
build/retrosoc_fw:     file format elf32-littleriscv


Disassembly of section .text:

30000000 <start>:
30000000:	00000093          	li	ra,0
30000004:	00000193          	li	gp,0
30000008:	00000213          	li	tp,0
3000000c:	00000293          	li	t0,0
30000010:	00000313          	li	t1,0
30000014:	00000393          	li	t2,0
30000018:	00000413          	li	s0,0
3000001c:	00000493          	li	s1,0
30000020:	00000513          	li	a0,0
30000024:	00000593          	li	a1,0
30000028:	00000613          	li	a2,0
3000002c:	00000693          	li	a3,0
30000030:	00000713          	li	a4,0
30000034:	00000793          	li	a5,0
30000038:	00000813          	li	a6,0
3000003c:	00000893          	li	a7,0
30000040:	00000913          	li	s2,0
30000044:	00000993          	li	s3,0
30000048:	00000a13          	li	s4,0
3000004c:	00000a93          	li	s5,0
30000050:	00000b13          	li	s6,0
30000054:	00000b93          	li	s7,0
30000058:	00000c13          	li	s8,0
3000005c:	00000c93          	li	s9,0
30000060:	00000d13          	li	s10,0
30000064:	00000d93          	li	s11,0
30000068:	00000e13          	li	t3,0
3000006c:	00000e93          	li	t4,0
30000070:	00000f13          	li	t5,0
30000074:	00000f93          	li	t6,0
30000078:	00000513          	li	a0,0

3000007c <setmemloop>:
3000007c:	00a52023          	sw	a0,0(a0)
30000080:	00450513          	addi	a0,a0,4
30000084:	fe254ce3          	blt	a0,sp,3000007c <setmemloop>
30000088:	00002517          	auipc	a0,0x2
3000008c:	ba050513          	addi	a0,a0,-1120 # 30001c28 <_etext>
30000090:	d4000597          	auipc	a1,0xd4000
30000094:	f7058593          	addi	a1,a1,-144 # 4000000 <_ebss>
30000098:	d4000617          	auipc	a2,0xd4000
3000009c:	f6860613          	addi	a2,a2,-152 # 4000000 <_ebss>
300000a0:	00c5dc63          	bge	a1,a2,300000b8 <end_init_data>

300000a4 <loop_init_data>:
300000a4:	00052683          	lw	a3,0(a0)
300000a8:	00d5a023          	sw	a3,0(a1)
300000ac:	00450513          	addi	a0,a0,4
300000b0:	00458593          	addi	a1,a1,4
300000b4:	fec5c8e3          	blt	a1,a2,300000a4 <loop_init_data>

300000b8 <end_init_data>:
300000b8:	d4000517          	auipc	a0,0xd4000
300000bc:	f4850513          	addi	a0,a0,-184 # 4000000 <_ebss>
300000c0:	d4000597          	auipc	a1,0xd4000
300000c4:	f4058593          	addi	a1,a1,-192 # 4000000 <_ebss>
300000c8:	00b55863          	bge	a0,a1,300000d8 <end_init_bss>

300000cc <loop_init_bss>:
300000cc:	00052023          	sw	zero,0(a0)
300000d0:	00450513          	addi	a0,a0,4
300000d4:	feb54ce3          	blt	a0,a1,300000cc <loop_init_bss>

300000d8 <end_init_bss>:
300000d8:	145010ef          	jal	30001a1c <main>

300000dc <loop>:
300000dc:	0000006f          	j	300000dc <loop>

300000e0 <flashio_worker_begin>:
300000e0:	020002b7          	lui	t0,0x2000
300000e4:	12000313          	li	t1,288
300000e8:	00629023          	sh	t1,0(t0) # 2000000 <_ebss-0x2000000>
300000ec:	000281a3          	sb	zero,3(t0)
300000f0:	02060863          	beqz	a2,30000120 <flashio_worker_L1>
300000f4:	00800f13          	li	t5,8
300000f8:	0ff67393          	zext.b	t2,a2

300000fc <flashio_worker_L4>:
300000fc:	0073de93          	srli	t4,t2,0x7
30000100:	01d28023          	sb	t4,0(t0)
30000104:	010eee93          	ori	t4,t4,16
30000108:	01d28023          	sb	t4,0(t0)
3000010c:	00139393          	slli	t2,t2,0x1
30000110:	0ff3f393          	zext.b	t2,t2
30000114:	ffff0f13          	addi	t5,t5,-1
30000118:	fe0f12e3          	bnez	t5,300000fc <flashio_worker_L4>
3000011c:	00628023          	sb	t1,0(t0)

30000120 <flashio_worker_L1>:
30000120:	04058663          	beqz	a1,3000016c <flashio_worker_L3>
30000124:	00800f13          	li	t5,8
30000128:	00054383          	lbu	t2,0(a0)

3000012c <flashio_worker_L2>:
3000012c:	0073de93          	srli	t4,t2,0x7
30000130:	01d28023          	sb	t4,0(t0)
30000134:	010eee93          	ori	t4,t4,16
30000138:	01d28023          	sb	t4,0(t0)
3000013c:	0002ce83          	lbu	t4,0(t0)
30000140:	002efe93          	andi	t4,t4,2
30000144:	001ede93          	srli	t4,t4,0x1
30000148:	00139393          	slli	t2,t2,0x1
3000014c:	01d3e3b3          	or	t2,t2,t4
30000150:	0ff3f393          	zext.b	t2,t2
30000154:	ffff0f13          	addi	t5,t5,-1
30000158:	fc0f1ae3          	bnez	t5,3000012c <flashio_worker_L2>
3000015c:	00750023          	sb	t2,0(a0)
30000160:	00150513          	addi	a0,a0,1
30000164:	fff58593          	addi	a1,a1,-1
30000168:	fb9ff06f          	j	30000120 <flashio_worker_L1>

3000016c <flashio_worker_L3>:
3000016c:	08000313          	li	t1,128
30000170:	006281a3          	sb	t1,3(t0)
30000174:	00008067          	ret

30000178 <memcpy>:
30000178:	00000793          	li	a5,0
3000017c:	00f61463          	bne	a2,a5,30000184 <memcpy+0xc>
30000180:	00008067          	ret
30000184:	00f58733          	add	a4,a1,a5
30000188:	00074683          	lbu	a3,0(a4)
3000018c:	00f50733          	add	a4,a0,a5
30000190:	00178793          	addi	a5,a5,1
30000194:	00d70023          	sb	a3,0(a4)
30000198:	fe5ff06f          	j	3000017c <memcpy+0x4>

3000019c <memset>:
3000019c:	00c50633          	add	a2,a0,a2
300001a0:	00050793          	mv	a5,a0
300001a4:	00c79463          	bne	a5,a2,300001ac <memset+0x10>
300001a8:	00008067          	ret
300001ac:	00178793          	addi	a5,a5,1
300001b0:	feb78fa3          	sb	a1,-1(a5)
300001b4:	ff1ff06f          	j	300001a4 <memset+0x8>

300001b8 <strlen>:
300001b8:	00050793          	mv	a5,a0
300001bc:	00000513          	li	a0,0
300001c0:	00a78733          	add	a4,a5,a0
300001c4:	00074703          	lbu	a4,0(a4)
300001c8:	00071463          	bnez	a4,300001d0 <strlen+0x18>
300001cc:	00008067          	ret
300001d0:	00150513          	addi	a0,a0,1
300001d4:	fedff06f          	j	300001c0 <strlen+0x8>

300001d8 <puts_helper>:
300001d8:	ff010113          	addi	sp,sp,-16
300001dc:	00812423          	sw	s0,8(sp)
300001e0:	00912223          	sw	s1,4(sp)
300001e4:	00112623          	sw	ra,12(sp)
300001e8:	00050493          	mv	s1,a0
300001ec:	00000413          	li	s0,0
300001f0:	008487b3          	add	a5,s1,s0
300001f4:	0007c503          	lbu	a0,0(a5)
300001f8:	00051e63          	bnez	a0,30000214 <puts_helper+0x3c>
300001fc:	00c12083          	lw	ra,12(sp)
30000200:	00040513          	mv	a0,s0
30000204:	00812403          	lw	s0,8(sp)
30000208:	00412483          	lw	s1,4(sp)
3000020c:	01010113          	addi	sp,sp,16
30000210:	00008067          	ret
30000214:	464000ef          	jal	30000678 <sys_putchar>
30000218:	00140413          	addi	s0,s0,1
3000021c:	fd5ff06f          	j	300001f0 <puts_helper+0x18>

30000220 <itoa_hex.isra.0>:
30000220:	ff010113          	addi	sp,sp,-16
30000224:	04060863          	beqz	a2,30000274 <itoa_hex.isra.0+0x54>
30000228:	300027b7          	lui	a5,0x30002
3000022c:	aa478793          	addi	a5,a5,-1372 # 30001aa4 <main+0x88>
30000230:	00410813          	addi	a6,sp,4
30000234:	04051663          	bnez	a0,30000280 <itoa_hex.isra.0+0x60>
30000238:	03000793          	li	a5,48
3000023c:	00f10223          	sb	a5,4(sp)
30000240:	00100713          	li	a4,1
30000244:	00058693          	mv	a3,a1
30000248:	00070793          	mv	a5,a4
3000024c:	fff78793          	addi	a5,a5,-1
30000250:	00f80633          	add	a2,a6,a5
30000254:	00064603          	lbu	a2,0(a2)
30000258:	00168693          	addi	a3,a3,1
3000025c:	fec68fa3          	sb	a2,-1(a3)
30000260:	fe0796e3          	bnez	a5,3000024c <itoa_hex.isra.0+0x2c>
30000264:	00e585b3          	add	a1,a1,a4
30000268:	00058023          	sb	zero,0(a1)
3000026c:	01010113          	addi	sp,sp,16
30000270:	00008067          	ret
30000274:	300027b7          	lui	a5,0x30002
30000278:	ab878793          	addi	a5,a5,-1352 # 30001ab8 <main+0x9c>
3000027c:	fb5ff06f          	j	30000230 <itoa_hex.isra.0+0x10>
30000280:	00080693          	mv	a3,a6
30000284:	00000713          	li	a4,0
30000288:	00f57613          	andi	a2,a0,15
3000028c:	00c78633          	add	a2,a5,a2
30000290:	00064603          	lbu	a2,0(a2)
30000294:	00455513          	srli	a0,a0,0x4
30000298:	00170713          	addi	a4,a4,1
3000029c:	00c68023          	sb	a2,0(a3)
300002a0:	00168693          	addi	a3,a3,1
300002a4:	fe0512e3          	bnez	a0,30000288 <itoa_hex.isra.0+0x68>
300002a8:	f9dff06f          	j	30000244 <itoa_hex.isra.0+0x24>

300002ac <itoa_decimal.isra.0>:
300002ac:	ff010113          	addi	sp,sp,-16
300002b0:	00410813          	addi	a6,sp,4
300002b4:	04055263          	bgez	a0,300002f8 <itoa_decimal.isra.0+0x4c>
300002b8:	40a00533          	neg	a0,a0
300002bc:	00100713          	li	a4,1
300002c0:	00080693          	mv	a3,a6
300002c4:	00000793          	li	a5,0
300002c8:	00a00893          	li	a7,10
300002cc:	03156633          	rem	a2,a0,a7
300002d0:	00178793          	addi	a5,a5,1
300002d4:	00168693          	addi	a3,a3,1
300002d8:	03154533          	div	a0,a0,a7
300002dc:	03060613          	addi	a2,a2,48
300002e0:	fec68fa3          	sb	a2,-1(a3)
300002e4:	fe0514e3          	bnez	a0,300002cc <itoa_decimal.isra.0+0x20>
300002e8:	02070663          	beqz	a4,30000314 <itoa_decimal.isra.0+0x68>
300002ec:	02d00693          	li	a3,45
300002f0:	00d58023          	sb	a3,0(a1)
300002f4:	0200006f          	j	30000314 <itoa_decimal.isra.0+0x68>
300002f8:	00050663          	beqz	a0,30000304 <itoa_decimal.isra.0+0x58>
300002fc:	00000713          	li	a4,0
30000300:	fc1ff06f          	j	300002c0 <itoa_decimal.isra.0+0x14>
30000304:	03000793          	li	a5,48
30000308:	00f10223          	sb	a5,4(sp)
3000030c:	00000713          	li	a4,0
30000310:	00100793          	li	a5,1
30000314:	00e585b3          	add	a1,a1,a4
30000318:	00058693          	mv	a3,a1
3000031c:	00078713          	mv	a4,a5
30000320:	fff70713          	addi	a4,a4,-1
30000324:	00e80633          	add	a2,a6,a4
30000328:	00064603          	lbu	a2,0(a2)
3000032c:	00168693          	addi	a3,a3,1
30000330:	fec68fa3          	sb	a2,-1(a3)
30000334:	fe0716e3          	bnez	a4,30000320 <itoa_decimal.isra.0+0x74>
30000338:	00b787b3          	add	a5,a5,a1
3000033c:	00078023          	sb	zero,0(a5)
30000340:	01010113          	addi	sp,sp,16
30000344:	00008067          	ret

30000348 <vprintf>:
30000348:	fc010113          	addi	sp,sp,-64
3000034c:	02812c23          	sw	s0,56(sp)
30000350:	02912a23          	sw	s1,52(sp)
30000354:	03212823          	sw	s2,48(sp)
30000358:	03312623          	sw	s3,44(sp)
3000035c:	03412423          	sw	s4,40(sp)
30000360:	03512223          	sw	s5,36(sp)
30000364:	02112e23          	sw	ra,60(sp)
30000368:	03612023          	sw	s6,32(sp)
3000036c:	00050913          	mv	s2,a0
30000370:	00058493          	mv	s1,a1
30000374:	00000413          	li	s0,0
30000378:	02500993          	li	s3,37
3000037c:	06900a13          	li	s4,105
30000380:	07500a93          	li	s5,117
30000384:	00094503          	lbu	a0,0(s2)
30000388:	02051863          	bnez	a0,300003b8 <vprintf+0x70>
3000038c:	03c12083          	lw	ra,60(sp)
30000390:	00040513          	mv	a0,s0
30000394:	03812403          	lw	s0,56(sp)
30000398:	03412483          	lw	s1,52(sp)
3000039c:	03012903          	lw	s2,48(sp)
300003a0:	02c12983          	lw	s3,44(sp)
300003a4:	02812a03          	lw	s4,40(sp)
300003a8:	02412a83          	lw	s5,36(sp)
300003ac:	02012b03          	lw	s6,32(sp)
300003b0:	04010113          	addi	sp,sp,64
300003b4:	00008067          	ret
300003b8:	00190b13          	addi	s6,s2,1
300003bc:	13351063          	bne	a0,s3,300004dc <vprintf+0x194>
300003c0:	00194783          	lbu	a5,1(s2)
300003c4:	10078c63          	beqz	a5,300004dc <vprintf+0x194>
300003c8:	05478063          	beq	a5,s4,30000408 <vprintf+0xc0>
300003cc:	04fa6a63          	bltu	s4,a5,30000420 <vprintf+0xd8>
300003d0:	05800713          	li	a4,88
300003d4:	0ce78063          	beq	a5,a4,30000494 <vprintf+0x14c>
300003d8:	02f76063          	bltu	a4,a5,300003f8 <vprintf+0xb0>
300003dc:	0f378863          	beq	a5,s3,300004cc <vprintf+0x184>
300003e0:	02500513          	li	a0,37
300003e4:	294000ef          	jal	30000678 <sys_putchar>
300003e8:	00194503          	lbu	a0,1(s2)
300003ec:	00240413          	addi	s0,s0,2
300003f0:	288000ef          	jal	30000678 <sys_putchar>
300003f4:	0980006f          	j	3000048c <vprintf+0x144>
300003f8:	06300713          	li	a4,99
300003fc:	06e78e63          	beq	a5,a4,30000478 <vprintf+0x130>
30000400:	06400713          	li	a4,100
30000404:	fce79ee3          	bne	a5,a4,300003e0 <vprintf+0x98>
30000408:	0004a503          	lw	a0,0(s1)
3000040c:	00010593          	mv	a1,sp
30000410:	00448913          	addi	s2,s1,4
30000414:	e99ff0ef          	jal	300002ac <itoa_decimal.isra.0>
30000418:	00010513          	mv	a0,sp
3000041c:	0300006f          	j	3000044c <vprintf+0x104>
30000420:	ff5784e3          	beq	a5,s5,30000408 <vprintf+0xc0>
30000424:	02faea63          	bltu	s5,a5,30000458 <vprintf+0x110>
30000428:	07000713          	li	a4,112
3000042c:	06e78a63          	beq	a5,a4,300004a0 <vprintf+0x158>
30000430:	07300713          	li	a4,115
30000434:	fae796e3          	bne	a5,a4,300003e0 <vprintf+0x98>
30000438:	0004a503          	lw	a0,0(s1)
3000043c:	00448913          	addi	s2,s1,4
30000440:	00051663          	bnez	a0,3000044c <vprintf+0x104>
30000444:	30002537          	lui	a0,0x30002
30000448:	acc50513          	addi	a0,a0,-1332 # 30001acc <main+0xb0>
3000044c:	d8dff0ef          	jal	300001d8 <puts_helper>
30000450:	00a40433          	add	s0,s0,a0
30000454:	0340006f          	j	30000488 <vprintf+0x140>
30000458:	07800713          	li	a4,120
3000045c:	f8e792e3          	bne	a5,a4,300003e0 <vprintf+0x98>
30000460:	00448913          	addi	s2,s1,4
30000464:	00000613          	li	a2,0
30000468:	0004a503          	lw	a0,0(s1)
3000046c:	00010593          	mv	a1,sp
30000470:	db1ff0ef          	jal	30000220 <itoa_hex.isra.0>
30000474:	fa5ff06f          	j	30000418 <vprintf+0xd0>
30000478:	0004c503          	lbu	a0,0(s1)
3000047c:	00448913          	addi	s2,s1,4
30000480:	00140413          	addi	s0,s0,1
30000484:	1f4000ef          	jal	30000678 <sys_putchar>
30000488:	00090493          	mv	s1,s2
3000048c:	001b0913          	addi	s2,s6,1
30000490:	ef5ff06f          	j	30000384 <vprintf+0x3c>
30000494:	00448913          	addi	s2,s1,4
30000498:	00100613          	li	a2,1
3000049c:	fcdff06f          	j	30000468 <vprintf+0x120>
300004a0:	03000513          	li	a0,48
300004a4:	00448913          	addi	s2,s1,4
300004a8:	0004a483          	lw	s1,0(s1)
300004ac:	1cc000ef          	jal	30000678 <sys_putchar>
300004b0:	07800513          	li	a0,120
300004b4:	1c4000ef          	jal	30000678 <sys_putchar>
300004b8:	00240413          	addi	s0,s0,2
300004bc:	00000613          	li	a2,0
300004c0:	00010593          	mv	a1,sp
300004c4:	00048513          	mv	a0,s1
300004c8:	fa9ff06f          	j	30000470 <vprintf+0x128>
300004cc:	00098513          	mv	a0,s3
300004d0:	1a8000ef          	jal	30000678 <sys_putchar>
300004d4:	00140413          	addi	s0,s0,1
300004d8:	fb5ff06f          	j	3000048c <vprintf+0x144>
300004dc:	19c000ef          	jal	30000678 <sys_putchar>
300004e0:	00140413          	addi	s0,s0,1
300004e4:	00090b13          	mv	s6,s2
300004e8:	fa5ff06f          	j	3000048c <vprintf+0x144>

300004ec <printf>:
300004ec:	fc010113          	addi	sp,sp,-64
300004f0:	02b12223          	sw	a1,36(sp)
300004f4:	02410593          	addi	a1,sp,36
300004f8:	00112e23          	sw	ra,28(sp)
300004fc:	02c12423          	sw	a2,40(sp)
30000500:	02d12623          	sw	a3,44(sp)
30000504:	02e12823          	sw	a4,48(sp)
30000508:	02f12a23          	sw	a5,52(sp)
3000050c:	03012c23          	sw	a6,56(sp)
30000510:	03112e23          	sw	a7,60(sp)
30000514:	00b12623          	sw	a1,12(sp)
30000518:	e31ff0ef          	jal	30000348 <vprintf>
3000051c:	01c12083          	lw	ra,28(sp)
30000520:	04010113          	addi	sp,sp,64
30000524:	00008067          	ret

30000528 <__divsi3>:
30000528:	06054063          	bltz	a0,30000588 <__umodsi3+0x10>
3000052c:	0605c663          	bltz	a1,30000598 <__umodsi3+0x20>

30000530 <__udivsi3>:
30000530:	00058613          	mv	a2,a1
30000534:	00050593          	mv	a1,a0
30000538:	fff00513          	li	a0,-1
3000053c:	02060c63          	beqz	a2,30000574 <__udivsi3+0x44>
30000540:	00100693          	li	a3,1
30000544:	00b67a63          	bgeu	a2,a1,30000558 <__udivsi3+0x28>
30000548:	00c05863          	blez	a2,30000558 <__udivsi3+0x28>
3000054c:	00161613          	slli	a2,a2,0x1
30000550:	00169693          	slli	a3,a3,0x1
30000554:	feb66ae3          	bltu	a2,a1,30000548 <__udivsi3+0x18>
30000558:	00000513          	li	a0,0
3000055c:	00c5e663          	bltu	a1,a2,30000568 <__udivsi3+0x38>
30000560:	40c585b3          	sub	a1,a1,a2
30000564:	00d56533          	or	a0,a0,a3
30000568:	0016d693          	srli	a3,a3,0x1
3000056c:	00165613          	srli	a2,a2,0x1
30000570:	fe0696e3          	bnez	a3,3000055c <__udivsi3+0x2c>
30000574:	00008067          	ret

30000578 <__umodsi3>:
30000578:	00008293          	mv	t0,ra
3000057c:	fb5ff0ef          	jal	30000530 <__udivsi3>
30000580:	00058513          	mv	a0,a1
30000584:	00028067          	jr	t0
30000588:	40a00533          	neg	a0,a0
3000058c:	00b04863          	bgtz	a1,3000059c <__umodsi3+0x24>
30000590:	40b005b3          	neg	a1,a1
30000594:	f9dff06f          	j	30000530 <__udivsi3>
30000598:	40b005b3          	neg	a1,a1
3000059c:	00008293          	mv	t0,ra
300005a0:	f91ff0ef          	jal	30000530 <__udivsi3>
300005a4:	40a00533          	neg	a0,a0
300005a8:	00028067          	jr	t0

300005ac <__modsi3>:
300005ac:	00008293          	mv	t0,ra
300005b0:	0005ca63          	bltz	a1,300005c4 <__modsi3+0x18>
300005b4:	00054c63          	bltz	a0,300005cc <__modsi3+0x20>
300005b8:	f79ff0ef          	jal	30000530 <__udivsi3>
300005bc:	00058513          	mv	a0,a1
300005c0:	00028067          	jr	t0
300005c4:	40b005b3          	neg	a1,a1
300005c8:	fe0558e3          	bgez	a0,300005b8 <__modsi3+0xc>
300005cc:	40a00533          	neg	a0,a0
300005d0:	f61ff0ef          	jal	30000530 <__udivsi3>
300005d4:	40b00533          	neg	a0,a1
300005d8:	00028067          	jr	t0

300005dc <__muldi3>:
300005dc:	00050613          	mv	a2,a0
300005e0:	00000513          	li	a0,0
300005e4:	0015f693          	andi	a3,a1,1
300005e8:	00068463          	beqz	a3,300005f0 <__muldi3+0x14>
300005ec:	00c50533          	add	a0,a0,a2
300005f0:	0015d593          	srli	a1,a1,0x1
300005f4:	00161613          	slli	a2,a2,0x1
300005f8:	fe0596e3          	bnez	a1,300005e4 <__muldi3+0x8>
300005fc:	00008067          	ret

30000600 <__mulsi3>:
30000600:	00050793          	mv	a5,a0
30000604:	00000513          	li	a0,0
30000608:	00079463          	bnez	a5,30000610 <__mulsi3+0x10>
3000060c:	00008067          	ret
30000610:	0017f713          	andi	a4,a5,1
30000614:	02b70733          	mul	a4,a4,a1
30000618:	0017d793          	srli	a5,a5,0x1
3000061c:	00159593          	slli	a1,a1,0x1
30000620:	00e50533          	add	a0,a0,a4
30000624:	fe5ff06f          	j	30000608 <__mulsi3+0x8>

30000628 <__lshrdi3>:
30000628:	00050713          	mv	a4,a0
3000062c:	00058793          	mv	a5,a1
30000630:	02060663          	beqz	a2,3000065c <__lshrdi3+0x34>
30000634:	03f00813          	li	a6,63
30000638:	00000713          	li	a4,0
3000063c:	00000793          	li	a5,0
30000640:	00c84e63          	blt	a6,a2,3000065c <__lshrdi3+0x34>
30000644:	ff010113          	addi	sp,sp,-16
30000648:	00112623          	sw	ra,12(sp)
3000064c:	fddff0ef          	jal	30000628 <__lshrdi3>
30000650:	00c12083          	lw	ra,12(sp)
30000654:	01010113          	addi	sp,sp,16
30000658:	00008067          	ret
3000065c:	00070513          	mv	a0,a4
30000660:	00078593          	mv	a1,a5
30000664:	00008067          	ret

30000668 <sys_uart_init>:
30000668:	030007b7          	lui	a5,0x3000
3000066c:	27100713          	li	a4,625
30000670:	00e7a823          	sw	a4,16(a5) # 3000010 <_ebss-0xfffff0>
30000674:	00008067          	ret

30000678 <sys_putchar>:
30000678:	030007b7          	lui	a5,0x3000
3000067c:	00a7aa23          	sw	a0,20(a5) # 3000014 <_ebss-0xffffec>
30000680:	00008067          	ret

30000684 <gpio_config>:
30000684:	0e050863          	beqz	a0,30000774 <gpio_config+0xf0>
30000688:	fd010113          	addi	sp,sp,-48
3000068c:	01612823          	sw	s6,16(sp)
30000690:	00052b03          	lw	s6,0(a0)
30000694:	02812423          	sw	s0,40(sp)
30000698:	03000437          	lui	s0,0x3000
3000069c:	02912223          	sw	s1,36(sp)
300006a0:	01312e23          	sw	s3,28(sp)
300006a4:	01412c23          	sw	s4,24(sp)
300006a8:	01512a23          	sw	s5,20(sp)
300006ac:	01712623          	sw	s7,12(sp)
300006b0:	01812423          	sw	s8,8(sp)
300006b4:	01912223          	sw	s9,4(sp)
300006b8:	02112623          	sw	ra,44(sp)
300006bc:	03212023          	sw	s2,32(sp)
300006c0:	00050993          	mv	s3,a0
300006c4:	00000493          	li	s1,0
300006c8:	00100b93          	li	s7,1
300006cc:	30002a37          	lui	s4,0x30002
300006d0:	30002c37          	lui	s8,0x30002
300006d4:	00440413          	addi	s0,s0,4 # 3000004 <_ebss-0xfffffc>
300006d8:	30002cb7          	lui	s9,0x30002
300006dc:	01000a93          	li	s5,16
300006e0:	009b57b3          	srl	a5,s6,s1
300006e4:	0017f793          	andi	a5,a5,1
300006e8:	02078a63          	beqz	a5,3000071c <gpio_config+0x98>
300006ec:	0049a783          	lw	a5,4(s3)
300006f0:	009b9933          	sll	s2,s7,s1
300006f4:	00048593          	mv	a1,s1
300006f8:	06079063          	bnez	a5,30000758 <gpio_config+0xd4>
300006fc:	ad4c8513          	addi	a0,s9,-1324 # 30001ad4 <main+0xb8>
30000700:	dedff0ef          	jal	300004ec <printf>
30000704:	00042783          	lw	a5,0(s0)
30000708:	00f967b3          	or	a5,s2,a5
3000070c:	00f42023          	sw	a5,0(s0)
30000710:	00042583          	lw	a1,0(s0)
30000714:	aeca0513          	addi	a0,s4,-1300 # 30001aec <main+0xd0>
30000718:	dd5ff0ef          	jal	300004ec <printf>
3000071c:	00148493          	addi	s1,s1,1
30000720:	fd5490e3          	bne	s1,s5,300006e0 <gpio_config+0x5c>
30000724:	02c12083          	lw	ra,44(sp)
30000728:	02812403          	lw	s0,40(sp)
3000072c:	02412483          	lw	s1,36(sp)
30000730:	02012903          	lw	s2,32(sp)
30000734:	01c12983          	lw	s3,28(sp)
30000738:	01812a03          	lw	s4,24(sp)
3000073c:	01412a83          	lw	s5,20(sp)
30000740:	01012b03          	lw	s6,16(sp)
30000744:	00c12b83          	lw	s7,12(sp)
30000748:	00812c03          	lw	s8,8(sp)
3000074c:	00412c83          	lw	s9,4(sp)
30000750:	03010113          	addi	sp,sp,48
30000754:	00008067          	ret
30000758:	b00c0513          	addi	a0,s8,-1280 # 30001b00 <main+0xe4>
3000075c:	d91ff0ef          	jal	300004ec <printf>
30000760:	00042783          	lw	a5,0(s0)
30000764:	fff94913          	not	s2,s2
30000768:	00f97933          	and	s2,s2,a5
3000076c:	01242023          	sw	s2,0(s0)
30000770:	fa1ff06f          	j	30000710 <gpio_config+0x8c>
30000774:	00008067          	ret

30000778 <gpio_set_level>:
30000778:	00100713          	li	a4,1
3000077c:	00a71533          	sll	a0,a4,a0
30000780:	030007b7          	lui	a5,0x3000
30000784:	00e59a63          	bne	a1,a4,30000798 <gpio_set_level+0x20>
30000788:	0007a703          	lw	a4,0(a5) # 3000000 <_ebss-0x1000000>
3000078c:	00a76733          	or	a4,a4,a0
30000790:	00e7a023          	sw	a4,0(a5)
30000794:	00008067          	ret
30000798:	0007a703          	lw	a4,0(a5)
3000079c:	fff54513          	not	a0,a0
300007a0:	00e57533          	and	a0,a0,a4
300007a4:	00a7a023          	sw	a0,0(a5)
300007a8:	00008067          	ret

300007ac <gpio_get_level>:
300007ac:	030007b7          	lui	a5,0x3000
300007b0:	0007a783          	lw	a5,0(a5) # 3000000 <_ebss-0x1000000>
300007b4:	00a7d533          	srl	a0,a5,a0
300007b8:	00157513          	andi	a0,a0,1
300007bc:	00008067          	ret

300007c0 <qspi_init>:
300007c0:	ff010113          	addi	sp,sp,-16
300007c4:	00112623          	sw	ra,12(sp)
300007c8:	01212023          	sw	s2,0(sp)
300007cc:	00812423          	sw	s0,8(sp)
300007d0:	00912223          	sw	s1,4(sp)
300007d4:	030077b7          	lui	a5,0x3007
300007d8:	01000713          	li	a4,16
300007dc:	00e7a023          	sw	a4,0(a5) # 3007000 <_ebss-0xff9000>
300007e0:	0007a023          	sw	zero,0(a5)
300007e4:	0207a223          	sw	zero,36(a5)
300007e8:	0007aa23          	sw	zero,20(a5)
300007ec:	00052703          	lw	a4,0(a0)
300007f0:	30002537          	lui	a0,0x30002
300007f4:	b1850513          	addi	a0,a0,-1256 # 30001b18 <main+0xfc>
300007f8:	00e7a223          	sw	a4,4(a5)
300007fc:	0007a583          	lw	a1,0(a5)
30000800:	00078913          	mv	s2,a5
30000804:	ce9ff0ef          	jal	300004ec <printf>
30000808:	02492583          	lw	a1,36(s2)
3000080c:	30002537          	lui	a0,0x30002
30000810:	b2c50513          	addi	a0,a0,-1236 # 30001b2c <main+0x110>
30000814:	cd9ff0ef          	jal	300004ec <printf>
30000818:	01492583          	lw	a1,20(s2)
3000081c:	30002537          	lui	a0,0x30002
30000820:	b4050513          	addi	a0,a0,-1216 # 30001b40 <main+0x124>
30000824:	cc9ff0ef          	jal	300004ec <printf>
30000828:	00812403          	lw	s0,8(sp)
3000082c:	00492583          	lw	a1,4(s2)
30000830:	00c12083          	lw	ra,12(sp)
30000834:	00412483          	lw	s1,4(sp)
30000838:	00012903          	lw	s2,0(sp)
3000083c:	30002537          	lui	a0,0x30002
30000840:	b5050513          	addi	a0,a0,-1200 # 30001b50 <main+0x134>
30000844:	01010113          	addi	sp,sp,16
30000848:	ca5ff06f          	j	300004ec <printf>

3000084c <qspi_write_8>:
3000084c:	030077b7          	lui	a5,0x3007
30000850:	000806b7          	lui	a3,0x80
30000854:	00d7a823          	sw	a3,16(a5) # 3007010 <_ebss-0xff8ff0>
30000858:	01851513          	slli	a0,a0,0x18
3000085c:	10200713          	li	a4,258
30000860:	00a7ac23          	sw	a0,24(a5)
30000864:	00e7a023          	sw	a4,0(a5)
30000868:	00100713          	li	a4,1
3000086c:	0007a683          	lw	a3,0(a5)
30000870:	fee69ee3          	bne	a3,a4,3000086c <qspi_write_8+0x20>
30000874:	00008067          	ret

30000878 <qspi_write_16>:
30000878:	030077b7          	lui	a5,0x3007
3000087c:	001006b7          	lui	a3,0x100
30000880:	00d7a823          	sw	a3,16(a5) # 3007010 <_ebss-0xff8ff0>
30000884:	01051513          	slli	a0,a0,0x10
30000888:	10200713          	li	a4,258
3000088c:	00a7ac23          	sw	a0,24(a5)
30000890:	00e7a023          	sw	a4,0(a5)
30000894:	00100713          	li	a4,1
30000898:	0007a683          	lw	a3,0(a5)
3000089c:	fee69ee3          	bne	a3,a4,30000898 <qspi_write_16+0x20>
300008a0:	00008067          	ret

300008a4 <qspi_write_32>:
300008a4:	030077b7          	lui	a5,0x3007
300008a8:	002006b7          	lui	a3,0x200
300008ac:	00d7a823          	sw	a3,16(a5) # 3007010 <_ebss-0xff8ff0>
300008b0:	10200713          	li	a4,258
300008b4:	00a7ac23          	sw	a0,24(a5)
300008b8:	00e7a023          	sw	a4,0(a5)
300008bc:	00100713          	li	a4,1
300008c0:	0007a683          	lw	a3,0(a5)
300008c4:	fee69ee3          	bne	a3,a4,300008c0 <qspi_write_32+0x1c>
300008c8:	00008067          	ret

300008cc <qspi_write_32x2>:
300008cc:	03007737          	lui	a4,0x3007
300008d0:	004006b7          	lui	a3,0x400
300008d4:	00d72823          	sw	a3,16(a4) # 3007010 <_ebss-0xff8ff0>
300008d8:	00a72c23          	sw	a0,24(a4)
300008dc:	10200793          	li	a5,258
300008e0:	00b72c23          	sw	a1,24(a4)
300008e4:	00f72023          	sw	a5,0(a4)
300008e8:	00100793          	li	a5,1
300008ec:	00072683          	lw	a3,0(a4)
300008f0:	fef69ee3          	bne	a3,a5,300008ec <qspi_write_32x2+0x20>
300008f4:	00008067          	ret

300008f8 <qspi_write_32x8>:
300008f8:	03007e37          	lui	t3,0x3007
300008fc:	01000eb7          	lui	t4,0x1000
30000900:	01de2823          	sw	t4,16(t3) # 3007010 <_ebss-0xff8ff0>
30000904:	00ae2c23          	sw	a0,24(t3)
30000908:	00be2c23          	sw	a1,24(t3)
3000090c:	00ce2c23          	sw	a2,24(t3)
30000910:	00de2c23          	sw	a3,24(t3)
30000914:	00ee2c23          	sw	a4,24(t3)
30000918:	00fe2c23          	sw	a5,24(t3)
3000091c:	010e2c23          	sw	a6,24(t3)
30000920:	10200793          	li	a5,258
30000924:	011e2c23          	sw	a7,24(t3)
30000928:	00fe2023          	sw	a5,0(t3)
3000092c:	00100793          	li	a5,1
30000930:	000e2703          	lw	a4,0(t3)
30000934:	fef71ee3          	bne	a4,a5,30000930 <qspi_write_32x8+0x38>
30000938:	00008067          	ret

3000093c <qspi_write_32x16>:
3000093c:	03007e37          	lui	t3,0x3007
30000940:	02000eb7          	lui	t4,0x2000
30000944:	01de2823          	sw	t4,16(t3) # 3007010 <_ebss-0xff8ff0>
30000948:	00ae2c23          	sw	a0,24(t3)
3000094c:	00be2c23          	sw	a1,24(t3)
30000950:	00ce2c23          	sw	a2,24(t3)
30000954:	00de2c23          	sw	a3,24(t3)
30000958:	00ee2c23          	sw	a4,24(t3)
3000095c:	00fe2c23          	sw	a5,24(t3)
30000960:	010e2c23          	sw	a6,24(t3)
30000964:	011e2c23          	sw	a7,24(t3)
30000968:	00012783          	lw	a5,0(sp)
3000096c:	00fe2c23          	sw	a5,24(t3)
30000970:	00412783          	lw	a5,4(sp)
30000974:	00fe2c23          	sw	a5,24(t3)
30000978:	00812783          	lw	a5,8(sp)
3000097c:	00fe2c23          	sw	a5,24(t3)
30000980:	00c12783          	lw	a5,12(sp)
30000984:	00fe2c23          	sw	a5,24(t3)
30000988:	01012783          	lw	a5,16(sp)
3000098c:	00fe2c23          	sw	a5,24(t3)
30000990:	01412783          	lw	a5,20(sp)
30000994:	00fe2c23          	sw	a5,24(t3)
30000998:	01812783          	lw	a5,24(sp)
3000099c:	00fe2c23          	sw	a5,24(t3)
300009a0:	01c12783          	lw	a5,28(sp)
300009a4:	00fe2c23          	sw	a5,24(t3)
300009a8:	10200793          	li	a5,258
300009ac:	00fe2023          	sw	a5,0(t3)
300009b0:	00100793          	li	a5,1
300009b4:	000e2703          	lw	a4,0(t3)
300009b8:	fef71ee3          	bne	a4,a5,300009b4 <qspi_write_32x16+0x78>
300009bc:	00008067          	ret

300009c0 <qspi_write_32x32>:
300009c0:	03007e37          	lui	t3,0x3007
300009c4:	04000eb7          	lui	t4,0x4000
300009c8:	01de2823          	sw	t4,16(t3) # 3007010 <_ebss-0xff8ff0>
300009cc:	00ae2c23          	sw	a0,24(t3)
300009d0:	00be2c23          	sw	a1,24(t3)
300009d4:	00ce2c23          	sw	a2,24(t3)
300009d8:	00de2c23          	sw	a3,24(t3)
300009dc:	00ee2c23          	sw	a4,24(t3)
300009e0:	00fe2c23          	sw	a5,24(t3)
300009e4:	010e2c23          	sw	a6,24(t3)
300009e8:	011e2c23          	sw	a7,24(t3)
300009ec:	00012783          	lw	a5,0(sp)
300009f0:	018e0313          	addi	t1,t3,24
300009f4:	00f32023          	sw	a5,0(t1)
300009f8:	00412783          	lw	a5,4(sp)
300009fc:	00f32023          	sw	a5,0(t1)
30000a00:	00812783          	lw	a5,8(sp)
30000a04:	00f32023          	sw	a5,0(t1)
30000a08:	00c12783          	lw	a5,12(sp)
30000a0c:	00f32023          	sw	a5,0(t1)
30000a10:	01012783          	lw	a5,16(sp)
30000a14:	00f32023          	sw	a5,0(t1)
30000a18:	01412783          	lw	a5,20(sp)
30000a1c:	00f32023          	sw	a5,0(t1)
30000a20:	01812783          	lw	a5,24(sp)
30000a24:	00f32023          	sw	a5,0(t1)
30000a28:	01c12783          	lw	a5,28(sp)
30000a2c:	00f32023          	sw	a5,0(t1)
30000a30:	02012783          	lw	a5,32(sp)
30000a34:	00f32023          	sw	a5,0(t1)
30000a38:	02412783          	lw	a5,36(sp)
30000a3c:	00f32023          	sw	a5,0(t1)
30000a40:	02812783          	lw	a5,40(sp)
30000a44:	00f32023          	sw	a5,0(t1)
30000a48:	02c12783          	lw	a5,44(sp)
30000a4c:	00f32023          	sw	a5,0(t1)
30000a50:	03012783          	lw	a5,48(sp)
30000a54:	00f32023          	sw	a5,0(t1)
30000a58:	03412783          	lw	a5,52(sp)
30000a5c:	00f32023          	sw	a5,0(t1)
30000a60:	03812783          	lw	a5,56(sp)
30000a64:	00f32023          	sw	a5,0(t1)
30000a68:	03c12783          	lw	a5,60(sp)
30000a6c:	00f32023          	sw	a5,0(t1)
30000a70:	04012783          	lw	a5,64(sp)
30000a74:	00f32023          	sw	a5,0(t1)
30000a78:	04412783          	lw	a5,68(sp)
30000a7c:	00f32023          	sw	a5,0(t1)
30000a80:	04812783          	lw	a5,72(sp)
30000a84:	00f32023          	sw	a5,0(t1)
30000a88:	04c12783          	lw	a5,76(sp)
30000a8c:	00f32023          	sw	a5,0(t1)
30000a90:	05012783          	lw	a5,80(sp)
30000a94:	00f32023          	sw	a5,0(t1)
30000a98:	05412783          	lw	a5,84(sp)
30000a9c:	00f32023          	sw	a5,0(t1)
30000aa0:	05812783          	lw	a5,88(sp)
30000aa4:	00f32023          	sw	a5,0(t1)
30000aa8:	05c12783          	lw	a5,92(sp)
30000aac:	00f32023          	sw	a5,0(t1)
30000ab0:	10200793          	li	a5,258
30000ab4:	00fe2023          	sw	a5,0(t3)
30000ab8:	00100793          	li	a5,1
30000abc:	000e2703          	lw	a4,0(t3)
30000ac0:	fef71ee3          	bne	a4,a5,30000abc <qspi_write_32x32+0xfc>
30000ac4:	00008067          	ret

30000ac8 <delay_us>:
30000ac8:	03000737          	lui	a4,0x3000
30000acc:	10000793          	li	a5,256
30000ad0:	04f72e23          	sw	a5,92(a4) # 300005c <_ebss-0xffffa4>
30000ad4:	04800793          	li	a5,72
30000ad8:	02f50533          	mul	a0,a0,a5
30000adc:	06470793          	addi	a5,a4,100
30000ae0:	10100693          	li	a3,257
30000ae4:	fff50513          	addi	a0,a0,-1
30000ae8:	00a7a023          	sw	a0,0(a5)
30000aec:	04d72e23          	sw	a3,92(a4)
30000af0:	0007a703          	lw	a4,0(a5)
30000af4:	fe071ee3          	bnez	a4,30000af0 <delay_us+0x28>
30000af8:	00008067          	ret

30000afc <delay_ms>:
30000afc:	3e800793          	li	a5,1000
30000b00:	02f50533          	mul	a0,a0,a5
30000b04:	fc5ff06f          	j	30000ac8 <delay_us>

30000b08 <delay_s>:
30000b08:	3e800793          	li	a5,1000
30000b0c:	02f50533          	mul	a0,a0,a5
30000b10:	fedff06f          	j	30000afc <delay_ms>

30000b14 <pwm_init>:
30000b14:	00052703          	lw	a4,0(a0)
30000b18:	030047b7          	lui	a5,0x3004
30000b1c:	00e7a223          	sw	a4,4(a5) # 3004004 <_ebss-0xffbffc>
30000b20:	00452703          	lw	a4,4(a0)
30000b24:	00e7a623          	sw	a4,12(a5)
30000b28:	00300713          	li	a4,3
30000b2c:	00e7a023          	sw	a4,0(a5)
30000b30:	00008067          	ret

30000b34 <pwm_set_compare>:
30000b34:	00200793          	li	a5,2
30000b38:	02f50863          	beq	a0,a5,30000b68 <pwm_set_compare+0x34>
30000b3c:	00a7ea63          	bltu	a5,a0,30000b50 <pwm_set_compare+0x1c>
30000b40:	00051e63          	bnez	a0,30000b5c <pwm_set_compare+0x28>
30000b44:	030047b7          	lui	a5,0x3004
30000b48:	00b7a823          	sw	a1,16(a5) # 3004010 <_ebss-0xffbff0>
30000b4c:	00008067          	ret
30000b50:	00300793          	li	a5,3
30000b54:	02f50063          	beq	a0,a5,30000b74 <pwm_set_compare+0x40>
30000b58:	00008067          	ret
30000b5c:	030047b7          	lui	a5,0x3004
30000b60:	00b7aa23          	sw	a1,20(a5) # 3004014 <_ebss-0xffbfec>
30000b64:	00008067          	ret
30000b68:	030047b7          	lui	a5,0x3004
30000b6c:	00b7ac23          	sw	a1,24(a5) # 3004018 <_ebss-0xffbfe8>
30000b70:	00008067          	ret
30000b74:	030047b7          	lui	a5,0x3004
30000b78:	00b7ae23          	sw	a1,28(a5) # 300401c <_ebss-0xffbfe4>
30000b7c:	00008067          	ret

30000b80 <i2c_get_ack>:
30000b80:	03006737          	lui	a4,0x3006
30000b84:	01470713          	addi	a4,a4,20 # 3006014 <_ebss-0xff9fec>
30000b88:	00072783          	lw	a5,0(a4)
30000b8c:	0027f793          	andi	a5,a5,2
30000b90:	fe078ce3          	beqz	a5,30000b88 <i2c_get_ack+0x8>
30000b94:	030067b7          	lui	a5,0x3006
30000b98:	01478793          	addi	a5,a5,20 # 3006014 <_ebss-0xff9fec>
30000b9c:	0007a703          	lw	a4,0(a5)
30000ba0:	00277713          	andi	a4,a4,2
30000ba4:	fe071ce3          	bnez	a4,30000b9c <i2c_get_ack+0x1c>
30000ba8:	0007a503          	lw	a0,0(a5)
30000bac:	00755513          	srli	a0,a0,0x7
30000bb0:	00157513          	andi	a0,a0,1
30000bb4:	00154513          	xori	a0,a0,1
30000bb8:	00008067          	ret

30000bbc <i2c_stop>:
30000bbc:	030067b7          	lui	a5,0x3006
30000bc0:	04000713          	li	a4,64
30000bc4:	00e7a823          	sw	a4,16(a5) # 3006010 <_ebss-0xff9ff0>
30000bc8:	01478713          	addi	a4,a5,20
30000bcc:	00072783          	lw	a5,0(a4)
30000bd0:	0407f793          	andi	a5,a5,64
30000bd4:	fe079ce3          	bnez	a5,30000bcc <i2c_stop+0x10>
30000bd8:	00008067          	ret

30000bdc <i2c_start_write>:
30000bdc:	ff010113          	addi	sp,sp,-16
30000be0:	00112623          	sw	ra,12(sp)
30000be4:	030067b7          	lui	a5,0x3006
30000be8:	00a7a423          	sw	a0,8(a5) # 3006008 <_ebss-0xff9ff8>
30000bec:	09000713          	li	a4,144
30000bf0:	00e7a823          	sw	a4,16(a5)
30000bf4:	f8dff0ef          	jal	30000b80 <i2c_get_ack>
30000bf8:	00051c63          	bnez	a0,30000c10 <i2c_start_write+0x34>
30000bfc:	00c12083          	lw	ra,12(sp)
30000c00:	30002537          	lui	a0,0x30002
30000c04:	b6450513          	addi	a0,a0,-1180 # 30001b64 <main+0x148>
30000c08:	01010113          	addi	sp,sp,16
30000c0c:	8e1ff06f          	j	300004ec <printf>
30000c10:	00c12083          	lw	ra,12(sp)
30000c14:	01010113          	addi	sp,sp,16
30000c18:	00008067          	ret

30000c1c <i2c_write_byte>:
30000c1c:	ff010113          	addi	sp,sp,-16
30000c20:	00112623          	sw	ra,12(sp)
30000c24:	030067b7          	lui	a5,0x3006
30000c28:	00a7a423          	sw	a0,8(a5) # 3006008 <_ebss-0xff9ff8>
30000c2c:	02000713          	li	a4,32
30000c30:	00e7a823          	sw	a4,16(a5)
30000c34:	f4dff0ef          	jal	30000b80 <i2c_get_ack>
30000c38:	00051c63          	bnez	a0,30000c50 <i2c_write_byte+0x34>
30000c3c:	00c12083          	lw	ra,12(sp)
30000c40:	30002537          	lui	a0,0x30002
30000c44:	b8050513          	addi	a0,a0,-1152 # 30001b80 <main+0x164>
30000c48:	01010113          	addi	sp,sp,16
30000c4c:	8a1ff06f          	j	300004ec <printf>
30000c50:	00c12083          	lw	ra,12(sp)
30000c54:	01010113          	addi	sp,sp,16
30000c58:	00008067          	ret

30000c5c <i2c_init>:
30000c5c:	030067b7          	lui	a5,0x3006
30000c60:	0007a023          	sw	zero,0(a5) # 3006000 <_ebss-0xffa000>
30000c64:	00052683          	lw	a3,0(a0)
30000c68:	08000713          	li	a4,128
30000c6c:	00d7a223          	sw	a3,4(a5)
30000c70:	00e7a023          	sw	a4,0(a5)
30000c74:	00008067          	ret

30000c78 <i2c_write_nbyte>:
30000c78:	fe010113          	addi	sp,sp,-32
30000c7c:	00812c23          	sw	s0,24(sp)
30000c80:	00912a23          	sw	s1,20(sp)
30000c84:	01212823          	sw	s2,16(sp)
30000c88:	01312623          	sw	s3,12(sp)
30000c8c:	01412423          	sw	s4,8(sp)
30000c90:	00058913          	mv	s2,a1
30000c94:	00112e23          	sw	ra,28(sp)
30000c98:	00060993          	mv	s3,a2
30000c9c:	00068413          	mv	s0,a3
30000ca0:	00070493          	mv	s1,a4
30000ca4:	f39ff0ef          	jal	30000bdc <i2c_start_write>
30000ca8:	00800793          	li	a5,8
30000cac:	0ff97a13          	zext.b	s4,s2
30000cb0:	02f99a63          	bne	s3,a5,30000ce4 <i2c_write_nbyte+0x6c>
30000cb4:	000a0513          	mv	a0,s4
30000cb8:	f65ff0ef          	jal	30000c1c <i2c_write_byte>
30000cbc:	009404b3          	add	s1,s0,s1
30000cc0:	02941863          	bne	s0,s1,30000cf0 <i2c_write_nbyte+0x78>
30000cc4:	01812403          	lw	s0,24(sp)
30000cc8:	01c12083          	lw	ra,28(sp)
30000ccc:	01412483          	lw	s1,20(sp)
30000cd0:	01012903          	lw	s2,16(sp)
30000cd4:	00c12983          	lw	s3,12(sp)
30000cd8:	00812a03          	lw	s4,8(sp)
30000cdc:	02010113          	addi	sp,sp,32
30000ce0:	eddff06f          	j	30000bbc <i2c_stop>
30000ce4:	00895513          	srli	a0,s2,0x8
30000ce8:	f35ff0ef          	jal	30000c1c <i2c_write_byte>
30000cec:	fc9ff06f          	j	30000cb4 <i2c_write_nbyte+0x3c>
30000cf0:	00044503          	lbu	a0,0(s0)
30000cf4:	00140413          	addi	s0,s0,1
30000cf8:	f25ff0ef          	jal	30000c1c <i2c_write_byte>
30000cfc:	fc5ff06f          	j	30000cc0 <i2c_write_nbyte+0x48>

30000d00 <i2c_read_nbyte>:
30000d00:	fe010113          	addi	sp,sp,-32
30000d04:	00812c23          	sw	s0,24(sp)
30000d08:	00912a23          	sw	s1,20(sp)
30000d0c:	01212823          	sw	s2,16(sp)
30000d10:	01312623          	sw	s3,12(sp)
30000d14:	01412423          	sw	s4,8(sp)
30000d18:	01512223          	sw	s5,4(sp)
30000d1c:	00058913          	mv	s2,a1
30000d20:	00112e23          	sw	ra,28(sp)
30000d24:	01612023          	sw	s6,0(sp)
30000d28:	00050413          	mv	s0,a0
30000d2c:	00060a13          	mv	s4,a2
30000d30:	00068993          	mv	s3,a3
30000d34:	00070493          	mv	s1,a4
30000d38:	ea5ff0ef          	jal	30000bdc <i2c_start_write>
30000d3c:	00800793          	li	a5,8
30000d40:	0ff97a93          	zext.b	s5,s2
30000d44:	08fa1263          	bne	s4,a5,30000dc8 <i2c_read_nbyte+0xc8>
30000d48:	000a8513          	mv	a0,s5
30000d4c:	ed1ff0ef          	jal	30000c1c <i2c_write_byte>
30000d50:	00140413          	addi	s0,s0,1
30000d54:	e69ff0ef          	jal	30000bbc <i2c_stop>
30000d58:	030067b7          	lui	a5,0x3006
30000d5c:	0ff47413          	zext.b	s0,s0
30000d60:	0087a423          	sw	s0,8(a5) # 3006008 <_ebss-0xff9ff8>
30000d64:	0a000713          	li	a4,160
30000d68:	00e7a823          	sw	a4,16(a5)
30000d6c:	e15ff0ef          	jal	30000b80 <i2c_get_ack>
30000d70:	00051863          	bnez	a0,30000d80 <i2c_read_nbyte+0x80>
30000d74:	30002537          	lui	a0,0x30002
30000d78:	b9850513          	addi	a0,a0,-1128 # 30001b98 <main+0x17c>
30000d7c:	f70ff0ef          	jal	300004ec <printf>
30000d80:	03006937          	lui	s2,0x3006
30000d84:	03006a37          	lui	s4,0x3006
30000d88:	00000413          	li	s0,0
30000d8c:	fff48a93          	addi	s5,s1,-1
30000d90:	01090913          	addi	s2,s2,16 # 3006010 <_ebss-0xff9ff0>
30000d94:	30002b37          	lui	s6,0x30002
30000d98:	00ca0a13          	addi	s4,s4,12 # 300600c <_ebss-0xff9ff4>
30000d9c:	02941c63          	bne	s0,s1,30000dd4 <i2c_read_nbyte+0xd4>
30000da0:	01812403          	lw	s0,24(sp)
30000da4:	01c12083          	lw	ra,28(sp)
30000da8:	01412483          	lw	s1,20(sp)
30000dac:	01012903          	lw	s2,16(sp)
30000db0:	00c12983          	lw	s3,12(sp)
30000db4:	00812a03          	lw	s4,8(sp)
30000db8:	00412a83          	lw	s5,4(sp)
30000dbc:	00012b03          	lw	s6,0(sp)
30000dc0:	02010113          	addi	sp,sp,32
30000dc4:	df9ff06f          	j	30000bbc <i2c_stop>
30000dc8:	00895513          	srli	a0,s2,0x8
30000dcc:	e51ff0ef          	jal	30000c1c <i2c_write_byte>
30000dd0:	f79ff06f          	j	30000d48 <i2c_read_nbyte+0x48>
30000dd4:	01000793          	li	a5,16
30000dd8:	008a9463          	bne	s5,s0,30000de0 <i2c_read_nbyte+0xe0>
30000ddc:	06000793          	li	a5,96
30000de0:	00f92023          	sw	a5,0(s2)
30000de4:	d9dff0ef          	jal	30000b80 <i2c_get_ack>
30000de8:	00051663          	bnez	a0,30000df4 <i2c_read_nbyte+0xf4>
30000dec:	bb0b0513          	addi	a0,s6,-1104 # 30001bb0 <main+0x194>
30000df0:	efcff0ef          	jal	300004ec <printf>
30000df4:	000a2703          	lw	a4,0(s4)
30000df8:	008987b3          	add	a5,s3,s0
30000dfc:	00140413          	addi	s0,s0,1
30000e00:	00e78023          	sb	a4,0(a5)
30000e04:	f99ff06f          	j	30000d9c <i2c_read_nbyte+0x9c>

30000e08 <st7735_wr_data8>:
30000e08:	00052503          	lw	a0,0(a0)
30000e0c:	ff010113          	addi	sp,sp,-16
30000e10:	00812423          	sw	s0,8(sp)
30000e14:	00058413          	mv	s0,a1
30000e18:	00100593          	li	a1,1
30000e1c:	00112623          	sw	ra,12(sp)
30000e20:	959ff0ef          	jal	30000778 <gpio_set_level>
30000e24:	00040513          	mv	a0,s0
30000e28:	00812403          	lw	s0,8(sp)
30000e2c:	00c12083          	lw	ra,12(sp)
30000e30:	01010113          	addi	sp,sp,16
30000e34:	a19ff06f          	j	3000084c <qspi_write_8>

30000e38 <st7735_wr_data16>:
30000e38:	00052503          	lw	a0,0(a0)
30000e3c:	ff010113          	addi	sp,sp,-16
30000e40:	00812423          	sw	s0,8(sp)
30000e44:	00058413          	mv	s0,a1
30000e48:	00100593          	li	a1,1
30000e4c:	00112623          	sw	ra,12(sp)
30000e50:	929ff0ef          	jal	30000778 <gpio_set_level>
30000e54:	00040513          	mv	a0,s0
30000e58:	00812403          	lw	s0,8(sp)
30000e5c:	00c12083          	lw	ra,12(sp)
30000e60:	01010113          	addi	sp,sp,16
30000e64:	a15ff06f          	j	30000878 <qspi_write_16>

30000e68 <st7735_wr_data32>:
30000e68:	00052503          	lw	a0,0(a0)
30000e6c:	ff010113          	addi	sp,sp,-16
30000e70:	00812423          	sw	s0,8(sp)
30000e74:	00058413          	mv	s0,a1
30000e78:	00100593          	li	a1,1
30000e7c:	00112623          	sw	ra,12(sp)
30000e80:	8f9ff0ef          	jal	30000778 <gpio_set_level>
30000e84:	00040513          	mv	a0,s0
30000e88:	00812403          	lw	s0,8(sp)
30000e8c:	00c12083          	lw	ra,12(sp)
30000e90:	01010113          	addi	sp,sp,16
30000e94:	a11ff06f          	j	300008a4 <qspi_write_32>

30000e98 <st7735_wr_data32x2>:
30000e98:	00052503          	lw	a0,0(a0)
30000e9c:	ff010113          	addi	sp,sp,-16
30000ea0:	00812423          	sw	s0,8(sp)
30000ea4:	00058413          	mv	s0,a1
30000ea8:	00100593          	li	a1,1
30000eac:	00912223          	sw	s1,4(sp)
30000eb0:	00112623          	sw	ra,12(sp)
30000eb4:	00060493          	mv	s1,a2
30000eb8:	8c1ff0ef          	jal	30000778 <gpio_set_level>
30000ebc:	00040513          	mv	a0,s0
30000ec0:	00812403          	lw	s0,8(sp)
30000ec4:	00c12083          	lw	ra,12(sp)
30000ec8:	00048593          	mv	a1,s1
30000ecc:	00412483          	lw	s1,4(sp)
30000ed0:	01010113          	addi	sp,sp,16
30000ed4:	9f9ff06f          	j	300008cc <qspi_write_32x2>

30000ed8 <st7735_wr_data32x8>:
30000ed8:	fd010113          	addi	sp,sp,-48
30000edc:	01112623          	sw	a7,12(sp)
30000ee0:	00052503          	lw	a0,0(a0)
30000ee4:	03012883          	lw	a7,48(sp)
30000ee8:	02812423          	sw	s0,40(sp)
30000eec:	00058413          	mv	s0,a1
30000ef0:	00100593          	li	a1,1
30000ef4:	02912223          	sw	s1,36(sp)
30000ef8:	02112623          	sw	ra,44(sp)
30000efc:	00060493          	mv	s1,a2
30000f00:	00d12e23          	sw	a3,28(sp)
30000f04:	00e12c23          	sw	a4,24(sp)
30000f08:	00f12a23          	sw	a5,20(sp)
30000f0c:	01012823          	sw	a6,16(sp)
30000f10:	01112423          	sw	a7,8(sp)
30000f14:	865ff0ef          	jal	30000778 <gpio_set_level>
30000f18:	00040513          	mv	a0,s0
30000f1c:	02812403          	lw	s0,40(sp)
30000f20:	00812883          	lw	a7,8(sp)
30000f24:	00c12803          	lw	a6,12(sp)
30000f28:	01012783          	lw	a5,16(sp)
30000f2c:	01412703          	lw	a4,20(sp)
30000f30:	01812683          	lw	a3,24(sp)
30000f34:	01c12603          	lw	a2,28(sp)
30000f38:	02c12083          	lw	ra,44(sp)
30000f3c:	00048593          	mv	a1,s1
30000f40:	02412483          	lw	s1,36(sp)
30000f44:	03010113          	addi	sp,sp,48
30000f48:	9b1ff06f          	j	300008f8 <qspi_write_32x8>

30000f4c <st7735_wr_data32x16>:
30000f4c:	fb010113          	addi	sp,sp,-80
30000f50:	01112623          	sw	a7,12(sp)
30000f54:	00052503          	lw	a0,0(a0)
30000f58:	05012883          	lw	a7,80(sp)
30000f5c:	04812423          	sw	s0,72(sp)
30000f60:	05212023          	sw	s2,64(sp)
30000f64:	03312e23          	sw	s3,60(sp)
30000f68:	03412c23          	sw	s4,56(sp)
30000f6c:	03512a23          	sw	s5,52(sp)
30000f70:	03612823          	sw	s6,48(sp)
30000f74:	03712623          	sw	s7,44(sp)
30000f78:	03812423          	sw	s8,40(sp)
30000f7c:	03912223          	sw	s9,36(sp)
30000f80:	05412903          	lw	s2,84(sp)
30000f84:	05812983          	lw	s3,88(sp)
30000f88:	05c12a03          	lw	s4,92(sp)
30000f8c:	06012a83          	lw	s5,96(sp)
30000f90:	06412b03          	lw	s6,100(sp)
30000f94:	06812b83          	lw	s7,104(sp)
30000f98:	06c12c03          	lw	s8,108(sp)
30000f9c:	07012c83          	lw	s9,112(sp)
30000fa0:	00058413          	mv	s0,a1
30000fa4:	00100593          	li	a1,1
30000fa8:	04912223          	sw	s1,68(sp)
30000fac:	04112623          	sw	ra,76(sp)
30000fb0:	00060493          	mv	s1,a2
30000fb4:	00d12e23          	sw	a3,28(sp)
30000fb8:	00e12c23          	sw	a4,24(sp)
30000fbc:	00f12a23          	sw	a5,20(sp)
30000fc0:	01012823          	sw	a6,16(sp)
30000fc4:	01112423          	sw	a7,8(sp)
30000fc8:	fb0ff0ef          	jal	30000778 <gpio_set_level>
30000fcc:	00040513          	mv	a0,s0
30000fd0:	04812403          	lw	s0,72(sp)
30000fd4:	07912623          	sw	s9,108(sp)
30000fd8:	07812423          	sw	s8,104(sp)
30000fdc:	07712223          	sw	s7,100(sp)
30000fe0:	07612023          	sw	s6,96(sp)
30000fe4:	05512e23          	sw	s5,92(sp)
30000fe8:	05412c23          	sw	s4,88(sp)
30000fec:	05312a23          	sw	s3,84(sp)
30000ff0:	05212823          	sw	s2,80(sp)
30000ff4:	00812883          	lw	a7,8(sp)
30000ff8:	00c12803          	lw	a6,12(sp)
30000ffc:	01012783          	lw	a5,16(sp)
30001000:	01412703          	lw	a4,20(sp)
30001004:	01812683          	lw	a3,24(sp)
30001008:	01c12603          	lw	a2,28(sp)
3000100c:	04c12083          	lw	ra,76(sp)
30001010:	04012903          	lw	s2,64(sp)
30001014:	03c12983          	lw	s3,60(sp)
30001018:	03812a03          	lw	s4,56(sp)
3000101c:	03412a83          	lw	s5,52(sp)
30001020:	03012b03          	lw	s6,48(sp)
30001024:	02c12b83          	lw	s7,44(sp)
30001028:	02812c03          	lw	s8,40(sp)
3000102c:	02412c83          	lw	s9,36(sp)
30001030:	00048593          	mv	a1,s1
30001034:	04412483          	lw	s1,68(sp)
30001038:	05010113          	addi	sp,sp,80
3000103c:	901ff06f          	j	3000093c <qspi_write_32x16>

30001040 <st7735_wr_data32x32>:
30001040:	f7010113          	addi	sp,sp,-144
30001044:	03112e23          	sw	a7,60(sp)
30001048:	09012883          	lw	a7,144(sp)
3000104c:	08112623          	sw	ra,140(sp)
30001050:	08812423          	sw	s0,136(sp)
30001054:	08912223          	sw	s1,132(sp)
30001058:	09212023          	sw	s2,128(sp)
3000105c:	07312e23          	sw	s3,124(sp)
30001060:	07412c23          	sw	s4,120(sp)
30001064:	07512a23          	sw	s5,116(sp)
30001068:	07612823          	sw	s6,112(sp)
3000106c:	07712623          	sw	s7,108(sp)
30001070:	07812423          	sw	s8,104(sp)
30001074:	07912223          	sw	s9,100(sp)
30001078:	05b12e23          	sw	s11,92(sp)
3000107c:	07a12023          	sw	s10,96(sp)
30001080:	09412403          	lw	s0,148(sp)
30001084:	09812903          	lw	s2,152(sp)
30001088:	09c12983          	lw	s3,156(sp)
3000108c:	0a012a03          	lw	s4,160(sp)
30001090:	0a412a83          	lw	s5,164(sp)
30001094:	0a812b03          	lw	s6,168(sp)
30001098:	0ac12b83          	lw	s7,172(sp)
3000109c:	0b012c03          	lw	s8,176(sp)
300010a0:	0b412c83          	lw	s9,180(sp)
300010a4:	00c12223          	sw	a2,4(sp)
300010a8:	04d12623          	sw	a3,76(sp)
300010ac:	04e12423          	sw	a4,72(sp)
300010b0:	05012023          	sw	a6,64(sp)
300010b4:	03112c23          	sw	a7,56(sp)
300010b8:	00b12023          	sw	a1,0(sp)
300010bc:	04f12223          	sw	a5,68(sp)
300010c0:	0b812d03          	lw	s10,184(sp)
300010c4:	0c412783          	lw	a5,196(sp)
300010c8:	0d812303          	lw	t1,216(sp)
300010cc:	0dc12e03          	lw	t3,220(sp)
300010d0:	00f12423          	sw	a5,8(sp)
300010d4:	0c812783          	lw	a5,200(sp)
300010d8:	0e012e83          	lw	t4,224(sp)
300010dc:	0e412f03          	lw	t5,228(sp)
300010e0:	00f12623          	sw	a5,12(sp)
300010e4:	0cc12783          	lw	a5,204(sp)
300010e8:	0e812f83          	lw	t6,232(sp)
300010ec:	0ec12283          	lw	t0,236(sp)
300010f0:	00f12823          	sw	a5,16(sp)
300010f4:	0d012783          	lw	a5,208(sp)
300010f8:	0f012383          	lw	t2,240(sp)
300010fc:	00052503          	lw	a0,0(a0)
30001100:	00f12a23          	sw	a5,20(sp)
30001104:	0d412783          	lw	a5,212(sp)
30001108:	00100593          	li	a1,1
3000110c:	0bc12d83          	lw	s11,188(sp)
30001110:	0c012483          	lw	s1,192(sp)
30001114:	00f12c23          	sw	a5,24(sp)
30001118:	02612a23          	sw	t1,52(sp)
3000111c:	03c12823          	sw	t3,48(sp)
30001120:	03d12623          	sw	t4,44(sp)
30001124:	03e12423          	sw	t5,40(sp)
30001128:	03f12223          	sw	t6,36(sp)
3000112c:	02512023          	sw	t0,32(sp)
30001130:	00712e23          	sw	t2,28(sp)
30001134:	e44ff0ef          	jal	30000778 <gpio_set_level>
30001138:	01812783          	lw	a5,24(sp)
3000113c:	01c12383          	lw	t2,28(sp)
30001140:	02012283          	lw	t0,32(sp)
30001144:	0cf12823          	sw	a5,208(sp)
30001148:	01412783          	lw	a5,20(sp)
3000114c:	02412f83          	lw	t6,36(sp)
30001150:	02812f03          	lw	t5,40(sp)
30001154:	0cf12623          	sw	a5,204(sp)
30001158:	01012783          	lw	a5,16(sp)
3000115c:	02c12e83          	lw	t4,44(sp)
30001160:	03012e03          	lw	t3,48(sp)
30001164:	0cf12423          	sw	a5,200(sp)
30001168:	00c12783          	lw	a5,12(sp)
3000116c:	03412303          	lw	t1,52(sp)
30001170:	0a912e23          	sw	s1,188(sp)
30001174:	0cf12223          	sw	a5,196(sp)
30001178:	00812783          	lw	a5,8(sp)
3000117c:	0bb12c23          	sw	s11,184(sp)
30001180:	0ba12a23          	sw	s10,180(sp)
30001184:	0cf12023          	sw	a5,192(sp)
30001188:	0b912823          	sw	s9,176(sp)
3000118c:	0b812623          	sw	s8,172(sp)
30001190:	0b712423          	sw	s7,168(sp)
30001194:	0b612223          	sw	s6,164(sp)
30001198:	0b512023          	sw	s5,160(sp)
3000119c:	0e712623          	sw	t2,236(sp)
300011a0:	0e512423          	sw	t0,232(sp)
300011a4:	0ff12223          	sw	t6,228(sp)
300011a8:	0fe12023          	sw	t5,224(sp)
300011ac:	0dd12e23          	sw	t4,220(sp)
300011b0:	0dc12c23          	sw	t3,216(sp)
300011b4:	0c612a23          	sw	t1,212(sp)
300011b8:	09412e23          	sw	s4,156(sp)
300011bc:	08812823          	sw	s0,144(sp)
300011c0:	08812403          	lw	s0,136(sp)
300011c4:	09312c23          	sw	s3,152(sp)
300011c8:	09212a23          	sw	s2,148(sp)
300011cc:	03812883          	lw	a7,56(sp)
300011d0:	03c12803          	lw	a6,60(sp)
300011d4:	04012783          	lw	a5,64(sp)
300011d8:	04412703          	lw	a4,68(sp)
300011dc:	04812683          	lw	a3,72(sp)
300011e0:	04c12603          	lw	a2,76(sp)
300011e4:	00412583          	lw	a1,4(sp)
300011e8:	00012503          	lw	a0,0(sp)
300011ec:	08c12083          	lw	ra,140(sp)
300011f0:	08412483          	lw	s1,132(sp)
300011f4:	08012903          	lw	s2,128(sp)
300011f8:	07c12983          	lw	s3,124(sp)
300011fc:	07812a03          	lw	s4,120(sp)
30001200:	07412a83          	lw	s5,116(sp)
30001204:	07012b03          	lw	s6,112(sp)
30001208:	06c12b83          	lw	s7,108(sp)
3000120c:	06812c03          	lw	s8,104(sp)
30001210:	06412c83          	lw	s9,100(sp)
30001214:	06012d03          	lw	s10,96(sp)
30001218:	05c12d83          	lw	s11,92(sp)
3000121c:	09010113          	addi	sp,sp,144
30001220:	fa0ff06f          	j	300009c0 <qspi_write_32x32>

30001224 <st7735_wr_cmd>:
30001224:	00052503          	lw	a0,0(a0)
30001228:	ff010113          	addi	sp,sp,-16
3000122c:	00812423          	sw	s0,8(sp)
30001230:	00058413          	mv	s0,a1
30001234:	00000593          	li	a1,0
30001238:	00112623          	sw	ra,12(sp)
3000123c:	d3cff0ef          	jal	30000778 <gpio_set_level>
30001240:	00040513          	mv	a0,s0
30001244:	00812403          	lw	s0,8(sp)
30001248:	00c12083          	lw	ra,12(sp)
3000124c:	01010113          	addi	sp,sp,16
30001250:	dfcff06f          	j	3000084c <qspi_write_8>

30001254 <st7735_addr_set>:
30001254:	fe010113          	addi	sp,sp,-32
30001258:	01412423          	sw	s4,8(sp)
3000125c:	00058a13          	mv	s4,a1
30001260:	02a00593          	li	a1,42
30001264:	00112e23          	sw	ra,28(sp)
30001268:	00812c23          	sw	s0,24(sp)
3000126c:	00912a23          	sw	s1,20(sp)
30001270:	00050413          	mv	s0,a0
30001274:	01212823          	sw	s2,16(sp)
30001278:	01312623          	sw	s3,12(sp)
3000127c:	00060913          	mv	s2,a2
30001280:	00068993          	mv	s3,a3
30001284:	00070493          	mv	s1,a4
30001288:	f9dff0ef          	jal	30001224 <st7735_wr_cmd>
3000128c:	01044783          	lbu	a5,16(s0)
30001290:	00040513          	mv	a0,s0
30001294:	00fa05b3          	add	a1,s4,a5
30001298:	01059593          	slli	a1,a1,0x10
3000129c:	0105d593          	srli	a1,a1,0x10
300012a0:	b99ff0ef          	jal	30000e38 <st7735_wr_data16>
300012a4:	01044783          	lbu	a5,16(s0)
300012a8:	00040513          	mv	a0,s0
300012ac:	00f985b3          	add	a1,s3,a5
300012b0:	01059593          	slli	a1,a1,0x10
300012b4:	0105d593          	srli	a1,a1,0x10
300012b8:	b81ff0ef          	jal	30000e38 <st7735_wr_data16>
300012bc:	00040513          	mv	a0,s0
300012c0:	02b00593          	li	a1,43
300012c4:	f61ff0ef          	jal	30001224 <st7735_wr_cmd>
300012c8:	01144783          	lbu	a5,17(s0)
300012cc:	00040513          	mv	a0,s0
300012d0:	00f905b3          	add	a1,s2,a5
300012d4:	01059593          	slli	a1,a1,0x10
300012d8:	0105d593          	srli	a1,a1,0x10
300012dc:	b5dff0ef          	jal	30000e38 <st7735_wr_data16>
300012e0:	01144783          	lbu	a5,17(s0)
300012e4:	00040513          	mv	a0,s0
300012e8:	00f485b3          	add	a1,s1,a5
300012ec:	01059593          	slli	a1,a1,0x10
300012f0:	0105d593          	srli	a1,a1,0x10
300012f4:	b45ff0ef          	jal	30000e38 <st7735_wr_data16>
300012f8:	00040513          	mv	a0,s0
300012fc:	01812403          	lw	s0,24(sp)
30001300:	01c12083          	lw	ra,28(sp)
30001304:	01412483          	lw	s1,20(sp)
30001308:	01012903          	lw	s2,16(sp)
3000130c:	00c12983          	lw	s3,12(sp)
30001310:	00812a03          	lw	s4,8(sp)
30001314:	02c00593          	li	a1,44
30001318:	02010113          	addi	sp,sp,32
3000131c:	f09ff06f          	j	30001224 <st7735_wr_cmd>

30001320 <st7735_fill>:
30001320:	f7010113          	addi	sp,sp,-144
30001324:	07312e23          	sw	s3,124(sp)
30001328:	07412c23          	sw	s4,120(sp)
3000132c:	00070993          	mv	s3,a4
30001330:	00068a13          	mv	s4,a3
30001334:	fff70713          	addi	a4,a4,-1
30001338:	fff68693          	addi	a3,a3,-1 # 3fffff <_ebss-0x3c00001>
3000133c:	01071713          	slli	a4,a4,0x10
30001340:	01069693          	slli	a3,a3,0x10
30001344:	01075713          	srli	a4,a4,0x10
30001348:	0106d693          	srli	a3,a3,0x10
3000134c:	08812423          	sw	s0,136(sp)
30001350:	08912223          	sw	s1,132(sp)
30001354:	07512a23          	sw	s5,116(sp)
30001358:	07612823          	sw	s6,112(sp)
3000135c:	08112623          	sw	ra,140(sp)
30001360:	09212023          	sw	s2,128(sp)
30001364:	00050a93          	mv	s5,a0
30001368:	00058b13          	mv	s6,a1
3000136c:	00060493          	mv	s1,a2
30001370:	00078413          	mv	s0,a5
30001374:	ee1ff0ef          	jal	30001254 <st7735_addr_set>
30001378:	0d34ea63          	bltu	s1,s3,3000144c <st7735_fill+0x12c>
3000137c:	08c12083          	lw	ra,140(sp)
30001380:	08812403          	lw	s0,136(sp)
30001384:	08412483          	lw	s1,132(sp)
30001388:	08012903          	lw	s2,128(sp)
3000138c:	07c12983          	lw	s3,124(sp)
30001390:	07812a03          	lw	s4,120(sp)
30001394:	07412a83          	lw	s5,116(sp)
30001398:	07012b03          	lw	s6,112(sp)
3000139c:	09010113          	addi	sp,sp,144
300013a0:	00008067          	ret
300013a4:	04090913          	addi	s2,s2,64
300013a8:	00812c23          	sw	s0,24(sp)
300013ac:	00812a23          	sw	s0,20(sp)
300013b0:	00812823          	sw	s0,16(sp)
300013b4:	00812623          	sw	s0,12(sp)
300013b8:	00812423          	sw	s0,8(sp)
300013bc:	00812223          	sw	s0,4(sp)
300013c0:	00812023          	sw	s0,0(sp)
300013c4:	00040893          	mv	a7,s0
300013c8:	00040813          	mv	a6,s0
300013cc:	00040793          	mv	a5,s0
300013d0:	00040713          	mv	a4,s0
300013d4:	00040693          	mv	a3,s0
300013d8:	00040613          	mv	a2,s0
300013dc:	00040593          	mv	a1,s0
300013e0:	000a8513          	mv	a0,s5
300013e4:	01091913          	slli	s2,s2,0x10
300013e8:	06812023          	sw	s0,96(sp)
300013ec:	04812e23          	sw	s0,92(sp)
300013f0:	04812c23          	sw	s0,88(sp)
300013f4:	04812a23          	sw	s0,84(sp)
300013f8:	04812823          	sw	s0,80(sp)
300013fc:	04812623          	sw	s0,76(sp)
30001400:	04812423          	sw	s0,72(sp)
30001404:	04812223          	sw	s0,68(sp)
30001408:	04812023          	sw	s0,64(sp)
3000140c:	02812e23          	sw	s0,60(sp)
30001410:	02812c23          	sw	s0,56(sp)
30001414:	02812a23          	sw	s0,52(sp)
30001418:	02812823          	sw	s0,48(sp)
3000141c:	02812623          	sw	s0,44(sp)
30001420:	02812423          	sw	s0,40(sp)
30001424:	02812223          	sw	s0,36(sp)
30001428:	02812023          	sw	s0,32(sp)
3000142c:	00812e23          	sw	s0,28(sp)
30001430:	01095913          	srli	s2,s2,0x10
30001434:	c0dff0ef          	jal	30001040 <st7735_wr_data32x32>
30001438:	f74966e3          	bltu	s2,s4,300013a4 <st7735_fill+0x84>
3000143c:	00148493          	addi	s1,s1,1
30001440:	01049493          	slli	s1,s1,0x10
30001444:	0104d493          	srli	s1,s1,0x10
30001448:	f31ff06f          	j	30001378 <st7735_fill+0x58>
3000144c:	000b0913          	mv	s2,s6
30001450:	fe9ff06f          	j	30001438 <st7735_fill+0x118>

30001454 <st7735_init>:
30001454:	00052783          	lw	a5,0(a0)
30001458:	fe010113          	addi	sp,sp,-32
3000145c:	00912a23          	sw	s1,20(sp)
30001460:	00100493          	li	s1,1
30001464:	00f497b3          	sll	a5,s1,a5
30001468:	00812c23          	sw	s0,24(sp)
3000146c:	00050413          	mv	s0,a0
30001470:	00810513          	addi	a0,sp,8
30001474:	00112e23          	sw	ra,28(sp)
30001478:	00f12423          	sw	a5,8(sp)
3000147c:	00912623          	sw	s1,12(sp)
30001480:	a04ff0ef          	jal	30000684 <gpio_config>
30001484:	00042503          	lw	a0,0(s0)
30001488:	00000593          	li	a1,0
3000148c:	aecff0ef          	jal	30000778 <gpio_set_level>
30001490:	07800513          	li	a0,120
30001494:	e68ff0ef          	jal	30000afc <delay_ms>
30001498:	01100593          	li	a1,17
3000149c:	00040513          	mv	a0,s0
300014a0:	d85ff0ef          	jal	30001224 <st7735_wr_cmd>
300014a4:	07800513          	li	a0,120
300014a8:	e54ff0ef          	jal	30000afc <delay_ms>
300014ac:	0b100593          	li	a1,177
300014b0:	00040513          	mv	a0,s0
300014b4:	d71ff0ef          	jal	30001224 <st7735_wr_cmd>
300014b8:	00048593          	mv	a1,s1
300014bc:	00040513          	mv	a0,s0
300014c0:	949ff0ef          	jal	30000e08 <st7735_wr_data8>
300014c4:	02c00593          	li	a1,44
300014c8:	00040513          	mv	a0,s0
300014cc:	93dff0ef          	jal	30000e08 <st7735_wr_data8>
300014d0:	02d00593          	li	a1,45
300014d4:	00040513          	mv	a0,s0
300014d8:	931ff0ef          	jal	30000e08 <st7735_wr_data8>
300014dc:	0b200593          	li	a1,178
300014e0:	00040513          	mv	a0,s0
300014e4:	d41ff0ef          	jal	30001224 <st7735_wr_cmd>
300014e8:	00048593          	mv	a1,s1
300014ec:	00040513          	mv	a0,s0
300014f0:	919ff0ef          	jal	30000e08 <st7735_wr_data8>
300014f4:	02c00593          	li	a1,44
300014f8:	00040513          	mv	a0,s0
300014fc:	90dff0ef          	jal	30000e08 <st7735_wr_data8>
30001500:	02d00593          	li	a1,45
30001504:	00040513          	mv	a0,s0
30001508:	901ff0ef          	jal	30000e08 <st7735_wr_data8>
3000150c:	0b300593          	li	a1,179
30001510:	00040513          	mv	a0,s0
30001514:	d11ff0ef          	jal	30001224 <st7735_wr_cmd>
30001518:	00048593          	mv	a1,s1
3000151c:	00040513          	mv	a0,s0
30001520:	8e9ff0ef          	jal	30000e08 <st7735_wr_data8>
30001524:	02c00593          	li	a1,44
30001528:	00040513          	mv	a0,s0
3000152c:	8ddff0ef          	jal	30000e08 <st7735_wr_data8>
30001530:	02d00593          	li	a1,45
30001534:	00040513          	mv	a0,s0
30001538:	8d1ff0ef          	jal	30000e08 <st7735_wr_data8>
3000153c:	00048593          	mv	a1,s1
30001540:	00040513          	mv	a0,s0
30001544:	8c5ff0ef          	jal	30000e08 <st7735_wr_data8>
30001548:	02c00593          	li	a1,44
3000154c:	00040513          	mv	a0,s0
30001550:	8b9ff0ef          	jal	30000e08 <st7735_wr_data8>
30001554:	02d00593          	li	a1,45
30001558:	00040513          	mv	a0,s0
3000155c:	8adff0ef          	jal	30000e08 <st7735_wr_data8>
30001560:	0b400593          	li	a1,180
30001564:	00040513          	mv	a0,s0
30001568:	cbdff0ef          	jal	30001224 <st7735_wr_cmd>
3000156c:	00700593          	li	a1,7
30001570:	00040513          	mv	a0,s0
30001574:	895ff0ef          	jal	30000e08 <st7735_wr_data8>
30001578:	30002537          	lui	a0,0x30002
3000157c:	bc850513          	addi	a0,a0,-1080 # 30001bc8 <main+0x1ac>
30001580:	f6dfe0ef          	jal	300004ec <printf>
30001584:	0c000593          	li	a1,192
30001588:	00040513          	mv	a0,s0
3000158c:	c99ff0ef          	jal	30001224 <st7735_wr_cmd>
30001590:	0a200593          	li	a1,162
30001594:	00040513          	mv	a0,s0
30001598:	871ff0ef          	jal	30000e08 <st7735_wr_data8>
3000159c:	00200593          	li	a1,2
300015a0:	00040513          	mv	a0,s0
300015a4:	865ff0ef          	jal	30000e08 <st7735_wr_data8>
300015a8:	08400593          	li	a1,132
300015ac:	00040513          	mv	a0,s0
300015b0:	859ff0ef          	jal	30000e08 <st7735_wr_data8>
300015b4:	0c100593          	li	a1,193
300015b8:	00040513          	mv	a0,s0
300015bc:	c69ff0ef          	jal	30001224 <st7735_wr_cmd>
300015c0:	0c500593          	li	a1,197
300015c4:	00040513          	mv	a0,s0
300015c8:	841ff0ef          	jal	30000e08 <st7735_wr_data8>
300015cc:	0c200593          	li	a1,194
300015d0:	00040513          	mv	a0,s0
300015d4:	c51ff0ef          	jal	30001224 <st7735_wr_cmd>
300015d8:	00a00593          	li	a1,10
300015dc:	00040513          	mv	a0,s0
300015e0:	829ff0ef          	jal	30000e08 <st7735_wr_data8>
300015e4:	00000593          	li	a1,0
300015e8:	00040513          	mv	a0,s0
300015ec:	81dff0ef          	jal	30000e08 <st7735_wr_data8>
300015f0:	0c300593          	li	a1,195
300015f4:	00040513          	mv	a0,s0
300015f8:	c2dff0ef          	jal	30001224 <st7735_wr_cmd>
300015fc:	08a00593          	li	a1,138
30001600:	00040513          	mv	a0,s0
30001604:	805ff0ef          	jal	30000e08 <st7735_wr_data8>
30001608:	02a00593          	li	a1,42
3000160c:	00040513          	mv	a0,s0
30001610:	ff8ff0ef          	jal	30000e08 <st7735_wr_data8>
30001614:	0c400593          	li	a1,196
30001618:	00040513          	mv	a0,s0
3000161c:	c09ff0ef          	jal	30001224 <st7735_wr_cmd>
30001620:	08a00593          	li	a1,138
30001624:	00040513          	mv	a0,s0
30001628:	fe0ff0ef          	jal	30000e08 <st7735_wr_data8>
3000162c:	0ee00593          	li	a1,238
30001630:	00040513          	mv	a0,s0
30001634:	fd4ff0ef          	jal	30000e08 <st7735_wr_data8>
30001638:	0c500593          	li	a1,197
3000163c:	00040513          	mv	a0,s0
30001640:	be5ff0ef          	jal	30001224 <st7735_wr_cmd>
30001644:	00e00593          	li	a1,14
30001648:	00040513          	mv	a0,s0
3000164c:	fbcff0ef          	jal	30000e08 <st7735_wr_data8>
30001650:	03600593          	li	a1,54
30001654:	00040513          	mv	a0,s0
30001658:	bcdff0ef          	jal	30001224 <st7735_wr_cmd>
3000165c:	30002537          	lui	a0,0x30002
30001660:	be050513          	addi	a0,a0,-1056 # 30001be0 <main+0x1c4>
30001664:	e89fe0ef          	jal	300004ec <printf>
30001668:	00c42783          	lw	a5,12(s0)
3000166c:	0a800593          	li	a1,168
30001670:	00978e63          	beq	a5,s1,3000168c <st7735_init+0x238>
30001674:	00200713          	li	a4,2
30001678:	00800593          	li	a1,8
3000167c:	00e78863          	beq	a5,a4,3000168c <st7735_init+0x238>
30001680:	0c800593          	li	a1,200
30001684:	00078463          	beqz	a5,3000168c <st7735_init+0x238>
30001688:	06800593          	li	a1,104
3000168c:	00040513          	mv	a0,s0
30001690:	f78ff0ef          	jal	30000e08 <st7735_wr_data8>
30001694:	00040513          	mv	a0,s0
30001698:	0e000593          	li	a1,224
3000169c:	b89ff0ef          	jal	30001224 <st7735_wr_cmd>
300016a0:	00040513          	mv	a0,s0
300016a4:	00f00593          	li	a1,15
300016a8:	f60ff0ef          	jal	30000e08 <st7735_wr_data8>
300016ac:	00040513          	mv	a0,s0
300016b0:	01a00593          	li	a1,26
300016b4:	f54ff0ef          	jal	30000e08 <st7735_wr_data8>
300016b8:	00040513          	mv	a0,s0
300016bc:	00f00593          	li	a1,15
300016c0:	f48ff0ef          	jal	30000e08 <st7735_wr_data8>
300016c4:	00040513          	mv	a0,s0
300016c8:	01800593          	li	a1,24
300016cc:	f3cff0ef          	jal	30000e08 <st7735_wr_data8>
300016d0:	00040513          	mv	a0,s0
300016d4:	02f00593          	li	a1,47
300016d8:	f30ff0ef          	jal	30000e08 <st7735_wr_data8>
300016dc:	00040513          	mv	a0,s0
300016e0:	02800593          	li	a1,40
300016e4:	f24ff0ef          	jal	30000e08 <st7735_wr_data8>
300016e8:	00040513          	mv	a0,s0
300016ec:	02000593          	li	a1,32
300016f0:	f18ff0ef          	jal	30000e08 <st7735_wr_data8>
300016f4:	00040513          	mv	a0,s0
300016f8:	02200593          	li	a1,34
300016fc:	f0cff0ef          	jal	30000e08 <st7735_wr_data8>
30001700:	00040513          	mv	a0,s0
30001704:	01f00593          	li	a1,31
30001708:	f00ff0ef          	jal	30000e08 <st7735_wr_data8>
3000170c:	00040513          	mv	a0,s0
30001710:	01b00593          	li	a1,27
30001714:	ef4ff0ef          	jal	30000e08 <st7735_wr_data8>
30001718:	00040513          	mv	a0,s0
3000171c:	02300593          	li	a1,35
30001720:	ee8ff0ef          	jal	30000e08 <st7735_wr_data8>
30001724:	00040513          	mv	a0,s0
30001728:	03700593          	li	a1,55
3000172c:	edcff0ef          	jal	30000e08 <st7735_wr_data8>
30001730:	00040513          	mv	a0,s0
30001734:	00000593          	li	a1,0
30001738:	ed0ff0ef          	jal	30000e08 <st7735_wr_data8>
3000173c:	00040513          	mv	a0,s0
30001740:	00700593          	li	a1,7
30001744:	ec4ff0ef          	jal	30000e08 <st7735_wr_data8>
30001748:	00040513          	mv	a0,s0
3000174c:	00200593          	li	a1,2
30001750:	eb8ff0ef          	jal	30000e08 <st7735_wr_data8>
30001754:	00040513          	mv	a0,s0
30001758:	01000593          	li	a1,16
3000175c:	eacff0ef          	jal	30000e08 <st7735_wr_data8>
30001760:	00040513          	mv	a0,s0
30001764:	0e100593          	li	a1,225
30001768:	abdff0ef          	jal	30001224 <st7735_wr_cmd>
3000176c:	00040513          	mv	a0,s0
30001770:	00f00593          	li	a1,15
30001774:	e94ff0ef          	jal	30000e08 <st7735_wr_data8>
30001778:	00040513          	mv	a0,s0
3000177c:	01b00593          	li	a1,27
30001780:	e88ff0ef          	jal	30000e08 <st7735_wr_data8>
30001784:	00040513          	mv	a0,s0
30001788:	00f00593          	li	a1,15
3000178c:	e7cff0ef          	jal	30000e08 <st7735_wr_data8>
30001790:	00040513          	mv	a0,s0
30001794:	01700593          	li	a1,23
30001798:	e70ff0ef          	jal	30000e08 <st7735_wr_data8>
3000179c:	00040513          	mv	a0,s0
300017a0:	03300593          	li	a1,51
300017a4:	e64ff0ef          	jal	30000e08 <st7735_wr_data8>
300017a8:	00040513          	mv	a0,s0
300017ac:	02c00593          	li	a1,44
300017b0:	e58ff0ef          	jal	30000e08 <st7735_wr_data8>
300017b4:	00040513          	mv	a0,s0
300017b8:	02900593          	li	a1,41
300017bc:	e4cff0ef          	jal	30000e08 <st7735_wr_data8>
300017c0:	00040513          	mv	a0,s0
300017c4:	02e00593          	li	a1,46
300017c8:	e40ff0ef          	jal	30000e08 <st7735_wr_data8>
300017cc:	00040513          	mv	a0,s0
300017d0:	03000593          	li	a1,48
300017d4:	e34ff0ef          	jal	30000e08 <st7735_wr_data8>
300017d8:	00040513          	mv	a0,s0
300017dc:	03000593          	li	a1,48
300017e0:	e28ff0ef          	jal	30000e08 <st7735_wr_data8>
300017e4:	00040513          	mv	a0,s0
300017e8:	03900593          	li	a1,57
300017ec:	e1cff0ef          	jal	30000e08 <st7735_wr_data8>
300017f0:	00040513          	mv	a0,s0
300017f4:	03f00593          	li	a1,63
300017f8:	e10ff0ef          	jal	30000e08 <st7735_wr_data8>
300017fc:	00040513          	mv	a0,s0
30001800:	00000593          	li	a1,0
30001804:	e04ff0ef          	jal	30000e08 <st7735_wr_data8>
30001808:	00040513          	mv	a0,s0
3000180c:	00700593          	li	a1,7
30001810:	df8ff0ef          	jal	30000e08 <st7735_wr_data8>
30001814:	00040513          	mv	a0,s0
30001818:	00300593          	li	a1,3
3000181c:	decff0ef          	jal	30000e08 <st7735_wr_data8>
30001820:	01000593          	li	a1,16
30001824:	00040513          	mv	a0,s0
30001828:	de0ff0ef          	jal	30000e08 <st7735_wr_data8>
3000182c:	30002537          	lui	a0,0x30002
30001830:	bfc50513          	addi	a0,a0,-1028 # 30001bfc <main+0x1e0>
30001834:	cb9fe0ef          	jal	300004ec <printf>
30001838:	00040513          	mv	a0,s0
3000183c:	0f000593          	li	a1,240
30001840:	9e5ff0ef          	jal	30001224 <st7735_wr_cmd>
30001844:	00040513          	mv	a0,s0
30001848:	00100593          	li	a1,1
3000184c:	dbcff0ef          	jal	30000e08 <st7735_wr_data8>
30001850:	00040513          	mv	a0,s0
30001854:	0f600593          	li	a1,246
30001858:	9cdff0ef          	jal	30001224 <st7735_wr_cmd>
3000185c:	00040513          	mv	a0,s0
30001860:	00000593          	li	a1,0
30001864:	da4ff0ef          	jal	30000e08 <st7735_wr_data8>
30001868:	00040513          	mv	a0,s0
3000186c:	03a00593          	li	a1,58
30001870:	9b5ff0ef          	jal	30001224 <st7735_wr_cmd>
30001874:	00040513          	mv	a0,s0
30001878:	00500593          	li	a1,5
3000187c:	d8cff0ef          	jal	30000e08 <st7735_wr_data8>
30001880:	00040513          	mv	a0,s0
30001884:	02900593          	li	a1,41
30001888:	99dff0ef          	jal	30001224 <st7735_wr_cmd>
3000188c:	08000713          	li	a4,128
30001890:	00040513          	mv	a0,s0
30001894:	fff00793          	li	a5,-1
30001898:	00070693          	mv	a3,a4
3000189c:	00000613          	li	a2,0
300018a0:	00000593          	li	a1,0
300018a4:	a7dff0ef          	jal	30001320 <st7735_fill>
300018a8:	30002537          	lui	a0,0x30002
300018ac:	c1850513          	addi	a0,a0,-1000 # 30001c18 <main+0x1fc>
300018b0:	c3dfe0ef          	jal	300004ec <printf>
300018b4:	01c12083          	lw	ra,28(sp)
300018b8:	01812403          	lw	s0,24(sp)
300018bc:	01412483          	lw	s1,20(sp)
300018c0:	02010113          	addi	sp,sp,32
300018c4:	00008067          	ret

300018c8 <st7735_fill_img>:
300018c8:	fff70713          	addi	a4,a4,-1
300018cc:	fff68693          	addi	a3,a3,-1
300018d0:	00e60733          	add	a4,a2,a4
300018d4:	00d586b3          	add	a3,a1,a3
300018d8:	f8010113          	addi	sp,sp,-128
300018dc:	01071713          	slli	a4,a4,0x10
300018e0:	01069693          	slli	a3,a3,0x10
300018e4:	06812c23          	sw	s0,120(sp)
300018e8:	06912a23          	sw	s1,116(sp)
300018ec:	00078413          	mv	s0,a5
300018f0:	01075713          	srli	a4,a4,0x10
300018f4:	0106d693          	srli	a3,a3,0x10
300018f8:	000084b7          	lui	s1,0x8
300018fc:	07212823          	sw	s2,112(sp)
30001900:	06112e23          	sw	ra,124(sp)
30001904:	00050913          	mv	s2,a0
30001908:	009404b3          	add	s1,s0,s1
3000190c:	949ff0ef          	jal	30001254 <st7735_addr_set>
30001910:	07c42783          	lw	a5,124(s0)
30001914:	00090513          	mv	a0,s2
30001918:	08040413          	addi	s0,s0,128
3000191c:	06f12023          	sw	a5,96(sp)
30001920:	ff842783          	lw	a5,-8(s0)
30001924:	04f12e23          	sw	a5,92(sp)
30001928:	ff442783          	lw	a5,-12(s0)
3000192c:	04f12c23          	sw	a5,88(sp)
30001930:	ff042783          	lw	a5,-16(s0)
30001934:	04f12a23          	sw	a5,84(sp)
30001938:	fec42783          	lw	a5,-20(s0)
3000193c:	04f12823          	sw	a5,80(sp)
30001940:	fe842783          	lw	a5,-24(s0)
30001944:	04f12623          	sw	a5,76(sp)
30001948:	fe442783          	lw	a5,-28(s0)
3000194c:	04f12423          	sw	a5,72(sp)
30001950:	fe042783          	lw	a5,-32(s0)
30001954:	04f12223          	sw	a5,68(sp)
30001958:	fdc42783          	lw	a5,-36(s0)
3000195c:	04f12023          	sw	a5,64(sp)
30001960:	fd842783          	lw	a5,-40(s0)
30001964:	02f12e23          	sw	a5,60(sp)
30001968:	fd442783          	lw	a5,-44(s0)
3000196c:	02f12c23          	sw	a5,56(sp)
30001970:	fd042783          	lw	a5,-48(s0)
30001974:	02f12a23          	sw	a5,52(sp)
30001978:	fcc42783          	lw	a5,-52(s0)
3000197c:	02f12823          	sw	a5,48(sp)
30001980:	fc842783          	lw	a5,-56(s0)
30001984:	02f12623          	sw	a5,44(sp)
30001988:	fc442783          	lw	a5,-60(s0)
3000198c:	02f12423          	sw	a5,40(sp)
30001990:	fc042783          	lw	a5,-64(s0)
30001994:	02f12223          	sw	a5,36(sp)
30001998:	fbc42783          	lw	a5,-68(s0)
3000199c:	02f12023          	sw	a5,32(sp)
300019a0:	fb842783          	lw	a5,-72(s0)
300019a4:	00f12e23          	sw	a5,28(sp)
300019a8:	fb442783          	lw	a5,-76(s0)
300019ac:	00f12c23          	sw	a5,24(sp)
300019b0:	fb042783          	lw	a5,-80(s0)
300019b4:	00f12a23          	sw	a5,20(sp)
300019b8:	fac42783          	lw	a5,-84(s0)
300019bc:	00f12823          	sw	a5,16(sp)
300019c0:	fa842783          	lw	a5,-88(s0)
300019c4:	00f12623          	sw	a5,12(sp)
300019c8:	fa442783          	lw	a5,-92(s0)
300019cc:	00f12423          	sw	a5,8(sp)
300019d0:	fa042783          	lw	a5,-96(s0)
300019d4:	00f12223          	sw	a5,4(sp)
300019d8:	f9c42783          	lw	a5,-100(s0)
300019dc:	00f12023          	sw	a5,0(sp)
300019e0:	f9842883          	lw	a7,-104(s0)
300019e4:	f9442803          	lw	a6,-108(s0)
300019e8:	f9042783          	lw	a5,-112(s0)
300019ec:	f8c42703          	lw	a4,-116(s0)
300019f0:	f8842683          	lw	a3,-120(s0)
300019f4:	f8442603          	lw	a2,-124(s0)
300019f8:	f8042583          	lw	a1,-128(s0)
300019fc:	e44ff0ef          	jal	30001040 <st7735_wr_data32x32>
30001a00:	f08498e3          	bne	s1,s0,30001910 <st7735_fill_img+0x48>
30001a04:	07c12083          	lw	ra,124(sp)
30001a08:	07812403          	lw	s0,120(sp)
30001a0c:	07412483          	lw	s1,116(sp)
30001a10:	07012903          	lw	s2,112(sp)
30001a14:	08010113          	addi	sp,sp,128
30001a18:	00008067          	ret

30001a1c <main>:
30001a1c:	fe010113          	addi	sp,sp,-32
30001a20:	00112e23          	sw	ra,28(sp)
30001a24:	00912a23          	sw	s1,20(sp)
30001a28:	00812c23          	sw	s0,24(sp)
30001a2c:	c3dfe0ef          	jal	30000668 <sys_uart_init>
30001a30:	30002537          	lui	a0,0x30002
30001a34:	a9850513          	addi	a0,a0,-1384 # 30001a98 <main+0x7c>
30001a38:	ab5fe0ef          	jal	300004ec <printf>
30001a3c:	04700793          	li	a5,71
30001a40:	00f12423          	sw	a5,8(sp)
30001a44:	00810513          	addi	a0,sp,8
30001a48:	3e700793          	li	a5,999
30001a4c:	00f12623          	sw	a5,12(sp)
30001a50:	3de00493          	li	s1,990
30001a54:	8c0ff0ef          	jal	30000b14 <pwm_init>
30001a58:	00000413          	li	s0,0
30001a5c:	00040593          	mv	a1,s0
30001a60:	00000513          	li	a0,0
30001a64:	8d0ff0ef          	jal	30000b34 <pwm_set_compare>
30001a68:	00500513          	li	a0,5
30001a6c:	00540413          	addi	s0,s0,5
30001a70:	88cff0ef          	jal	30000afc <delay_ms>
30001a74:	fe9414e3          	bne	s0,s1,30001a5c <main+0x40>
30001a78:	00040593          	mv	a1,s0
30001a7c:	00000513          	li	a0,0
30001a80:	8b4ff0ef          	jal	30000b34 <pwm_set_compare>
30001a84:	00500513          	li	a0,5
30001a88:	ffb40413          	addi	s0,s0,-5
30001a8c:	870ff0ef          	jal	30000afc <delay_ms>
30001a90:	fe0414e3          	bnez	s0,30001a78 <main+0x5c>
30001a94:	fc5ff06f          	j	30001a58 <main+0x3c>
30001a98:	5750                	.insn	2, 0x5750
30001a9a:	204d                	.insn	2, 0x204d
30001a9c:	6574                	.insn	2, 0x6574
30001a9e:	000a7473          	.insn	4, 0x000a7473
30001aa2:	0000                	.insn	2, 0x0000
30001aa4:	3130                	.insn	2, 0x3130
30001aa6:	3332                	.insn	2, 0x3332
30001aa8:	3534                	.insn	2, 0x3534
30001aaa:	3736                	.insn	2, 0x3736
30001aac:	3938                	.insn	2, 0x3938
30001aae:	4241                	.insn	2, 0x4241
30001ab0:	46454443          	.insn	4, 0x46454443
30001ab4:	0000                	.insn	2, 0x0000
30001ab6:	0000                	.insn	2, 0x0000
30001ab8:	3130                	.insn	2, 0x3130
30001aba:	3332                	.insn	2, 0x3332
30001abc:	3534                	.insn	2, 0x3534
30001abe:	3736                	.insn	2, 0x3736
30001ac0:	3938                	.insn	2, 0x3938
30001ac2:	6261                	.insn	2, 0x6261
30001ac4:	66656463          	bltu	a0,t1,3000212c <_etext+0x504>
30001ac8:	0000                	.insn	2, 0x0000
30001aca:	0000                	.insn	2, 0x0000
30001acc:	6e28                	.insn	2, 0x6e28
30001ace:	6c75                	.insn	2, 0x6c75
30001ad0:	296c                	.insn	2, 0x296c
30001ad2:	0000                	.insn	2, 0x0000
30001ad4:	6f697067          	.insn	4, 0x6f697067
30001ad8:	2520                	.insn	2, 0x2520
30001ada:	2064                	.insn	2, 0x2064
30001adc:	20746573          	.insn	4, 0x20746573
30001ae0:	7361                	.insn	2, 0x7361
30001ae2:	6920                	.insn	2, 0x6920
30001ae4:	706e                	.insn	2, 0x706e
30001ae6:	7475                	.insn	2, 0x7475
30001ae8:	000a                	.insn	2, 0x000a
30001aea:	0000                	.insn	2, 0x0000
30001aec:	4552                	.insn	2, 0x4552
30001aee:	50475f47          	.insn	4, 0x50475f47
30001af2:	4f49                	.insn	2, 0x4f49
30001af4:	455f 424e 203a      	.insn	6, 0x203a424e455f
30001afa:	7830                	.insn	2, 0x7830
30001afc:	7825                	.insn	2, 0x7825
30001afe:	000a                	.insn	2, 0x000a
30001b00:	6f697067          	.insn	4, 0x6f697067
30001b04:	2520                	.insn	2, 0x2520
30001b06:	2064                	.insn	2, 0x2064
30001b08:	20746573          	.insn	4, 0x20746573
30001b0c:	7361                	.insn	2, 0x7361
30001b0e:	6f20                	.insn	2, 0x6f20
30001b10:	7475                	.insn	2, 0x7475
30001b12:	7570                	.insn	2, 0x7570
30001b14:	0a74                	.insn	2, 0x0a74
30001b16:	0000                	.insn	2, 0x0000
30001b18:	7371                	.insn	2, 0x7371
30001b1a:	6970                	.insn	2, 0x6970
30001b1c:	735f 6174 7574      	.insn	6, 0x75746174735f
30001b22:	25203a73          	.insn	4, 0x25203a73
30001b26:	0a78                	.insn	2, 0x0a78
30001b28:	0000                	.insn	2, 0x0000
30001b2a:	0000                	.insn	2, 0x0000
30001b2c:	7371                	.insn	2, 0x7371
30001b2e:	6970                	.insn	2, 0x6970
30001b30:	695f 746e 6663      	.insn	6, 0x6663746e695f
30001b36:	25203a67          	.insn	4, 0x25203a67
30001b3a:	0a78                	.insn	2, 0x0a78
30001b3c:	0000                	.insn	2, 0x0000
30001b3e:	0000                	.insn	2, 0x0000
30001b40:	7371                	.insn	2, 0x7371
30001b42:	6970                	.insn	2, 0x6970
30001b44:	645f 6d75 203a      	.insn	6, 0x203a6d75645f
30001b4a:	7825                	.insn	2, 0x7825
30001b4c:	000a                	.insn	2, 0x000a
30001b4e:	0000                	.insn	2, 0x0000
30001b50:	7371                	.insn	2, 0x7371
30001b52:	6970                	.insn	2, 0x6970
30001b54:	635f 6b6c 6964      	.insn	6, 0x69646b6c635f
30001b5a:	3a76                	.insn	2, 0x3a76
30001b5c:	2520                	.insn	2, 0x2520
30001b5e:	0a78                	.insn	2, 0x0a78
30001b60:	0000                	.insn	2, 0x0000
30001b62:	0000                	.insn	2, 0x0000
30001b64:	3249                	.insn	2, 0x3249
30001b66:	73203a43          	.insn	4, 0x73203a43
30001b6a:	6174                	.insn	2, 0x6174
30001b6c:	7472                	.insn	2, 0x7472
30001b6e:	7720                	.insn	2, 0x7720
30001b70:	6972                	.insn	2, 0x6972
30001b72:	6574                	.insn	2, 0x6574
30001b74:	6e20                	.insn	2, 0x6e20
30001b76:	6361206f          	j	300141ac <_etext+0x12584>
30001b7a:	00000a6b          	.insn	4, 0x0a6b
30001b7e:	0000                	.insn	2, 0x0000
30001b80:	3249                	.insn	2, 0x3249
30001b82:	77203a43          	.insn	4, 0x77203a43
30001b86:	6972                	.insn	2, 0x6972
30001b88:	6574                	.insn	2, 0x6574
30001b8a:	6220                	.insn	2, 0x6220
30001b8c:	7479                	.insn	2, 0x7479
30001b8e:	2065                	.insn	2, 0x2065
30001b90:	6f6e                	.insn	2, 0x6f6e
30001b92:	6120                	.insn	2, 0x6120
30001b94:	000a6b63          	bltu	s4,zero,30001baa <main+0x18e>
30001b98:	3249                	.insn	2, 0x3249
30001b9a:	73203a43          	.insn	4, 0x73203a43
30001b9e:	6174                	.insn	2, 0x6174
30001ba0:	7472                	.insn	2, 0x7472
30001ba2:	7220                	.insn	2, 0x7220
30001ba4:	6165                	.insn	2, 0x6165
30001ba6:	2064                	.insn	2, 0x2064
30001ba8:	6f6e                	.insn	2, 0x6f6e
30001baa:	6120                	.insn	2, 0x6120
30001bac:	000a6b63          	bltu	s4,zero,30001bc2 <main+0x1a6>
30001bb0:	3249                	.insn	2, 0x3249
30001bb2:	72203a43          	.insn	4, 0x72203a43
30001bb6:	6165                	.insn	2, 0x6165
30001bb8:	2064                	.insn	2, 0x2064
30001bba:	7962                	.insn	2, 0x7962
30001bbc:	6574                	.insn	2, 0x6574
30001bbe:	6e20                	.insn	2, 0x6e20
30001bc0:	6361206f          	j	300141f6 <_etext+0x125ce>
30001bc4:	00000a6b          	.insn	4, 0x0a6b
30001bc8:	6661                	.insn	2, 0x6661
30001bca:	6574                	.insn	2, 0x6574
30001bcc:	2072                	.insn	2, 0x2072
30001bce:	7266                	.insn	2, 0x7266
30001bd0:	6d61                	.insn	2, 0x6d61
30001bd2:	2065                	.insn	2, 0x2065
30001bd4:	6172                	.insn	2, 0x6172
30001bd6:	6574                	.insn	2, 0x6574
30001bd8:	6920                	.insn	2, 0x6920
30001bda:	696e                	.insn	2, 0x696e
30001bdc:	0a74                	.insn	2, 0x0a74
30001bde:	0000                	.insn	2, 0x0000
30001be0:	6661                	.insn	2, 0x6661
30001be2:	6574                	.insn	2, 0x6574
30001be4:	2072                	.insn	2, 0x2072
30001be6:	6f70                	.insn	2, 0x6f70
30001be8:	20726577          	.insn	4, 0x20726577
30001bec:	75716573          	.insn	4, 0x75716573
30001bf0:	6e65                	.insn	2, 0x6e65
30001bf2:	69206563          	bltu	zero,s2,3000227c <_etext+0x654>
30001bf6:	696e                	.insn	2, 0x696e
30001bf8:	0a74                	.insn	2, 0x0a74
30001bfa:	0000                	.insn	2, 0x0000
30001bfc:	6661                	.insn	2, 0x6661
30001bfe:	6574                	.insn	2, 0x6574
30001c00:	2072                	.insn	2, 0x2072
30001c02:	6d6d6167          	.insn	4, 0x6d6d6167
30001c06:	2061                	.insn	2, 0x2061
30001c08:	75716573          	.insn	4, 0x75716573
30001c0c:	6e65                	.insn	2, 0x6e65
30001c0e:	69206563          	bltu	zero,s2,30002298 <_etext+0x670>
30001c12:	696e                	.insn	2, 0x696e
30001c14:	0a74                	.insn	2, 0x0a74
30001c16:	0000                	.insn	2, 0x0000
30001c18:	4654                	.insn	2, 0x4654
30001c1a:	2054                	.insn	2, 0x2054
30001c1c:	6e69                	.insn	2, 0x6e69
30001c1e:	7469                	.insn	2, 0x7469
30001c20:	6420                	.insn	2, 0x6420
30001c22:	0a656e6f          	jal	t3,30057cc8 <_etext+0x560a0>
	...
