
build/retrosoc_fw:     file format elf32-littleriscv


Disassembly of section .text:

30000000 <start>:
30000000:	00000093          	li	ra,0
30000004:	00000193          	li	gp,0
30000008:	00000213          	li	tp,0
3000000c:	00000293          	li	t0,0
30000010:	00000313          	li	t1,0
30000014:	00000393          	li	t2,0
30000018:	00000413          	li	s0,0
3000001c:	00000493          	li	s1,0
30000020:	00000513          	li	a0,0
30000024:	00000593          	li	a1,0
30000028:	00000613          	li	a2,0
3000002c:	00000693          	li	a3,0
30000030:	00000713          	li	a4,0
30000034:	00000793          	li	a5,0
30000038:	00000813          	li	a6,0
3000003c:	00000893          	li	a7,0
30000040:	00000913          	li	s2,0
30000044:	00000993          	li	s3,0
30000048:	00000a13          	li	s4,0
3000004c:	00000a93          	li	s5,0
30000050:	00000b13          	li	s6,0
30000054:	00000b93          	li	s7,0
30000058:	00000c13          	li	s8,0
3000005c:	00000c93          	li	s9,0
30000060:	00000d13          	li	s10,0
30000064:	00000d93          	li	s11,0
30000068:	00000e13          	li	t3,0
3000006c:	00000e93          	li	t4,0
30000070:	00000f13          	li	t5,0
30000074:	00000f93          	li	t6,0
30000078:	00000513          	li	a0,0

3000007c <setmemloop>:
3000007c:	00a52023          	sw	a0,0(a0)
30000080:	00450513          	addi	a0,a0,4
30000084:	fe254ce3          	blt	a0,sp,3000007c <setmemloop>
30000088:	00012517          	auipc	a0,0x12
3000008c:	d2850513          	addi	a0,a0,-728 # 30011db0 <_etext>
30000090:	d4000597          	auipc	a1,0xd4000
30000094:	f7058593          	addi	a1,a1,-144 # 4000000 <_ebss>
30000098:	d4000617          	auipc	a2,0xd4000
3000009c:	f6860613          	addi	a2,a2,-152 # 4000000 <_ebss>
300000a0:	00c5dc63          	bge	a1,a2,300000b8 <end_init_data>

300000a4 <loop_init_data>:
300000a4:	00052683          	lw	a3,0(a0)
300000a8:	00d5a023          	sw	a3,0(a1)
300000ac:	00450513          	addi	a0,a0,4
300000b0:	00458593          	addi	a1,a1,4
300000b4:	fec5c8e3          	blt	a1,a2,300000a4 <loop_init_data>

300000b8 <end_init_data>:
300000b8:	d4000517          	auipc	a0,0xd4000
300000bc:	f4850513          	addi	a0,a0,-184 # 4000000 <_ebss>
300000c0:	d4000597          	auipc	a1,0xd4000
300000c4:	f4058593          	addi	a1,a1,-192 # 4000000 <_ebss>
300000c8:	00b55863          	bge	a0,a1,300000d8 <end_init_bss>

300000cc <loop_init_bss>:
300000cc:	00052023          	sw	zero,0(a0)
300000d0:	00450513          	addi	a0,a0,4
300000d4:	feb54ce3          	blt	a0,a1,300000cc <loop_init_bss>

300000d8 <end_init_bss>:
300000d8:	145010ef          	jal	30001a1c <main>

300000dc <loop>:
300000dc:	0000006f          	j	300000dc <loop>

300000e0 <flashio_worker_begin>:
300000e0:	020002b7          	lui	t0,0x2000
300000e4:	12000313          	li	t1,288
300000e8:	00629023          	sh	t1,0(t0) # 2000000 <_ebss-0x2000000>
300000ec:	000281a3          	sb	zero,3(t0)
300000f0:	02060863          	beqz	a2,30000120 <flashio_worker_L1>
300000f4:	00800f13          	li	t5,8
300000f8:	0ff67393          	zext.b	t2,a2

300000fc <flashio_worker_L4>:
300000fc:	0073de93          	srli	t4,t2,0x7
30000100:	01d28023          	sb	t4,0(t0)
30000104:	010eee93          	ori	t4,t4,16
30000108:	01d28023          	sb	t4,0(t0)
3000010c:	00139393          	slli	t2,t2,0x1
30000110:	0ff3f393          	zext.b	t2,t2
30000114:	ffff0f13          	addi	t5,t5,-1
30000118:	fe0f12e3          	bnez	t5,300000fc <flashio_worker_L4>
3000011c:	00628023          	sb	t1,0(t0)

30000120 <flashio_worker_L1>:
30000120:	04058663          	beqz	a1,3000016c <flashio_worker_L3>
30000124:	00800f13          	li	t5,8
30000128:	00054383          	lbu	t2,0(a0)

3000012c <flashio_worker_L2>:
3000012c:	0073de93          	srli	t4,t2,0x7
30000130:	01d28023          	sb	t4,0(t0)
30000134:	010eee93          	ori	t4,t4,16
30000138:	01d28023          	sb	t4,0(t0)
3000013c:	0002ce83          	lbu	t4,0(t0)
30000140:	002efe93          	andi	t4,t4,2
30000144:	001ede93          	srli	t4,t4,0x1
30000148:	00139393          	slli	t2,t2,0x1
3000014c:	01d3e3b3          	or	t2,t2,t4
30000150:	0ff3f393          	zext.b	t2,t2
30000154:	ffff0f13          	addi	t5,t5,-1
30000158:	fc0f1ae3          	bnez	t5,3000012c <flashio_worker_L2>
3000015c:	00750023          	sb	t2,0(a0)
30000160:	00150513          	addi	a0,a0,1
30000164:	fff58593          	addi	a1,a1,-1
30000168:	fb9ff06f          	j	30000120 <flashio_worker_L1>

3000016c <flashio_worker_L3>:
3000016c:	08000313          	li	t1,128
30000170:	006281a3          	sb	t1,3(t0)
30000174:	00008067          	ret

30000178 <memcpy>:
30000178:	00000793          	li	a5,0
3000017c:	00f61463          	bne	a2,a5,30000184 <memcpy+0xc>
30000180:	00008067          	ret
30000184:	00f58733          	add	a4,a1,a5
30000188:	00074683          	lbu	a3,0(a4)
3000018c:	00f50733          	add	a4,a0,a5
30000190:	00178793          	addi	a5,a5,1
30000194:	00d70023          	sb	a3,0(a4)
30000198:	fe5ff06f          	j	3000017c <memcpy+0x4>

3000019c <memset>:
3000019c:	00c50633          	add	a2,a0,a2
300001a0:	00050793          	mv	a5,a0
300001a4:	00c79463          	bne	a5,a2,300001ac <memset+0x10>
300001a8:	00008067          	ret
300001ac:	00178793          	addi	a5,a5,1
300001b0:	feb78fa3          	sb	a1,-1(a5)
300001b4:	ff1ff06f          	j	300001a4 <memset+0x8>

300001b8 <strlen>:
300001b8:	00050793          	mv	a5,a0
300001bc:	00000513          	li	a0,0
300001c0:	00a78733          	add	a4,a5,a0
300001c4:	00074703          	lbu	a4,0(a4)
300001c8:	00071463          	bnez	a4,300001d0 <strlen+0x18>
300001cc:	00008067          	ret
300001d0:	00150513          	addi	a0,a0,1
300001d4:	fedff06f          	j	300001c0 <strlen+0x8>

300001d8 <puts_helper>:
300001d8:	ff010113          	addi	sp,sp,-16
300001dc:	00812423          	sw	s0,8(sp)
300001e0:	00912223          	sw	s1,4(sp)
300001e4:	00112623          	sw	ra,12(sp)
300001e8:	00050493          	mv	s1,a0
300001ec:	00000413          	li	s0,0
300001f0:	008487b3          	add	a5,s1,s0
300001f4:	0007c503          	lbu	a0,0(a5)
300001f8:	00051e63          	bnez	a0,30000214 <puts_helper+0x3c>
300001fc:	00c12083          	lw	ra,12(sp)
30000200:	00040513          	mv	a0,s0
30000204:	00812403          	lw	s0,8(sp)
30000208:	00412483          	lw	s1,4(sp)
3000020c:	01010113          	addi	sp,sp,16
30000210:	00008067          	ret
30000214:	464000ef          	jal	30000678 <sys_putchar>
30000218:	00140413          	addi	s0,s0,1
3000021c:	fd5ff06f          	j	300001f0 <puts_helper+0x18>

30000220 <itoa_hex.isra.0>:
30000220:	ff010113          	addi	sp,sp,-16
30000224:	04060863          	beqz	a2,30000274 <itoa_hex.isra.0+0x54>
30000228:	300127b7          	lui	a5,0x30012
3000022c:	c2c78793          	addi	a5,a5,-980 # 30011c2c <img+0x100a8>
30000230:	00410813          	addi	a6,sp,4
30000234:	04051663          	bnez	a0,30000280 <itoa_hex.isra.0+0x60>
30000238:	03000793          	li	a5,48
3000023c:	00f10223          	sb	a5,4(sp)
30000240:	00100713          	li	a4,1
30000244:	00058693          	mv	a3,a1
30000248:	00070793          	mv	a5,a4
3000024c:	fff78793          	addi	a5,a5,-1
30000250:	00f80633          	add	a2,a6,a5
30000254:	00064603          	lbu	a2,0(a2)
30000258:	00168693          	addi	a3,a3,1
3000025c:	fec68fa3          	sb	a2,-1(a3)
30000260:	fe0796e3          	bnez	a5,3000024c <itoa_hex.isra.0+0x2c>
30000264:	00e585b3          	add	a1,a1,a4
30000268:	00058023          	sb	zero,0(a1)
3000026c:	01010113          	addi	sp,sp,16
30000270:	00008067          	ret
30000274:	300127b7          	lui	a5,0x30012
30000278:	c4078793          	addi	a5,a5,-960 # 30011c40 <img+0x100bc>
3000027c:	fb5ff06f          	j	30000230 <itoa_hex.isra.0+0x10>
30000280:	00080693          	mv	a3,a6
30000284:	00000713          	li	a4,0
30000288:	00f57613          	andi	a2,a0,15
3000028c:	00c78633          	add	a2,a5,a2
30000290:	00064603          	lbu	a2,0(a2)
30000294:	00455513          	srli	a0,a0,0x4
30000298:	00170713          	addi	a4,a4,1
3000029c:	00c68023          	sb	a2,0(a3)
300002a0:	00168693          	addi	a3,a3,1
300002a4:	fe0512e3          	bnez	a0,30000288 <itoa_hex.isra.0+0x68>
300002a8:	f9dff06f          	j	30000244 <itoa_hex.isra.0+0x24>

300002ac <itoa_decimal.isra.0>:
300002ac:	ff010113          	addi	sp,sp,-16
300002b0:	00410813          	addi	a6,sp,4
300002b4:	04055263          	bgez	a0,300002f8 <itoa_decimal.isra.0+0x4c>
300002b8:	40a00533          	neg	a0,a0
300002bc:	00100713          	li	a4,1
300002c0:	00080693          	mv	a3,a6
300002c4:	00000793          	li	a5,0
300002c8:	00a00893          	li	a7,10
300002cc:	03156633          	rem	a2,a0,a7
300002d0:	00178793          	addi	a5,a5,1
300002d4:	00168693          	addi	a3,a3,1
300002d8:	03154533          	div	a0,a0,a7
300002dc:	03060613          	addi	a2,a2,48
300002e0:	fec68fa3          	sb	a2,-1(a3)
300002e4:	fe0514e3          	bnez	a0,300002cc <itoa_decimal.isra.0+0x20>
300002e8:	02070663          	beqz	a4,30000314 <itoa_decimal.isra.0+0x68>
300002ec:	02d00693          	li	a3,45
300002f0:	00d58023          	sb	a3,0(a1)
300002f4:	0200006f          	j	30000314 <itoa_decimal.isra.0+0x68>
300002f8:	00050663          	beqz	a0,30000304 <itoa_decimal.isra.0+0x58>
300002fc:	00000713          	li	a4,0
30000300:	fc1ff06f          	j	300002c0 <itoa_decimal.isra.0+0x14>
30000304:	03000793          	li	a5,48
30000308:	00f10223          	sb	a5,4(sp)
3000030c:	00000713          	li	a4,0
30000310:	00100793          	li	a5,1
30000314:	00e585b3          	add	a1,a1,a4
30000318:	00058693          	mv	a3,a1
3000031c:	00078713          	mv	a4,a5
30000320:	fff70713          	addi	a4,a4,-1
30000324:	00e80633          	add	a2,a6,a4
30000328:	00064603          	lbu	a2,0(a2)
3000032c:	00168693          	addi	a3,a3,1
30000330:	fec68fa3          	sb	a2,-1(a3)
30000334:	fe0716e3          	bnez	a4,30000320 <itoa_decimal.isra.0+0x74>
30000338:	00b787b3          	add	a5,a5,a1
3000033c:	00078023          	sb	zero,0(a5)
30000340:	01010113          	addi	sp,sp,16
30000344:	00008067          	ret

30000348 <vprintf>:
30000348:	fc010113          	addi	sp,sp,-64
3000034c:	02812c23          	sw	s0,56(sp)
30000350:	02912a23          	sw	s1,52(sp)
30000354:	03212823          	sw	s2,48(sp)
30000358:	03312623          	sw	s3,44(sp)
3000035c:	03412423          	sw	s4,40(sp)
30000360:	03512223          	sw	s5,36(sp)
30000364:	02112e23          	sw	ra,60(sp)
30000368:	03612023          	sw	s6,32(sp)
3000036c:	00050913          	mv	s2,a0
30000370:	00058493          	mv	s1,a1
30000374:	00000413          	li	s0,0
30000378:	02500993          	li	s3,37
3000037c:	06900a13          	li	s4,105
30000380:	07500a93          	li	s5,117
30000384:	00094503          	lbu	a0,0(s2)
30000388:	02051863          	bnez	a0,300003b8 <vprintf+0x70>
3000038c:	03c12083          	lw	ra,60(sp)
30000390:	00040513          	mv	a0,s0
30000394:	03812403          	lw	s0,56(sp)
30000398:	03412483          	lw	s1,52(sp)
3000039c:	03012903          	lw	s2,48(sp)
300003a0:	02c12983          	lw	s3,44(sp)
300003a4:	02812a03          	lw	s4,40(sp)
300003a8:	02412a83          	lw	s5,36(sp)
300003ac:	02012b03          	lw	s6,32(sp)
300003b0:	04010113          	addi	sp,sp,64
300003b4:	00008067          	ret
300003b8:	00190b13          	addi	s6,s2,1
300003bc:	13351063          	bne	a0,s3,300004dc <vprintf+0x194>
300003c0:	00194783          	lbu	a5,1(s2)
300003c4:	10078c63          	beqz	a5,300004dc <vprintf+0x194>
300003c8:	05478063          	beq	a5,s4,30000408 <vprintf+0xc0>
300003cc:	04fa6a63          	bltu	s4,a5,30000420 <vprintf+0xd8>
300003d0:	05800713          	li	a4,88
300003d4:	0ce78063          	beq	a5,a4,30000494 <vprintf+0x14c>
300003d8:	02f76063          	bltu	a4,a5,300003f8 <vprintf+0xb0>
300003dc:	0f378863          	beq	a5,s3,300004cc <vprintf+0x184>
300003e0:	02500513          	li	a0,37
300003e4:	294000ef          	jal	30000678 <sys_putchar>
300003e8:	00194503          	lbu	a0,1(s2)
300003ec:	00240413          	addi	s0,s0,2
300003f0:	288000ef          	jal	30000678 <sys_putchar>
300003f4:	0980006f          	j	3000048c <vprintf+0x144>
300003f8:	06300713          	li	a4,99
300003fc:	06e78e63          	beq	a5,a4,30000478 <vprintf+0x130>
30000400:	06400713          	li	a4,100
30000404:	fce79ee3          	bne	a5,a4,300003e0 <vprintf+0x98>
30000408:	0004a503          	lw	a0,0(s1)
3000040c:	00010593          	mv	a1,sp
30000410:	00448913          	addi	s2,s1,4
30000414:	e99ff0ef          	jal	300002ac <itoa_decimal.isra.0>
30000418:	00010513          	mv	a0,sp
3000041c:	0300006f          	j	3000044c <vprintf+0x104>
30000420:	ff5784e3          	beq	a5,s5,30000408 <vprintf+0xc0>
30000424:	02faea63          	bltu	s5,a5,30000458 <vprintf+0x110>
30000428:	07000713          	li	a4,112
3000042c:	06e78a63          	beq	a5,a4,300004a0 <vprintf+0x158>
30000430:	07300713          	li	a4,115
30000434:	fae796e3          	bne	a5,a4,300003e0 <vprintf+0x98>
30000438:	0004a503          	lw	a0,0(s1)
3000043c:	00448913          	addi	s2,s1,4
30000440:	00051663          	bnez	a0,3000044c <vprintf+0x104>
30000444:	30012537          	lui	a0,0x30012
30000448:	c5450513          	addi	a0,a0,-940 # 30011c54 <img+0x100d0>
3000044c:	d8dff0ef          	jal	300001d8 <puts_helper>
30000450:	00a40433          	add	s0,s0,a0
30000454:	0340006f          	j	30000488 <vprintf+0x140>
30000458:	07800713          	li	a4,120
3000045c:	f8e792e3          	bne	a5,a4,300003e0 <vprintf+0x98>
30000460:	00448913          	addi	s2,s1,4
30000464:	00000613          	li	a2,0
30000468:	0004a503          	lw	a0,0(s1)
3000046c:	00010593          	mv	a1,sp
30000470:	db1ff0ef          	jal	30000220 <itoa_hex.isra.0>
30000474:	fa5ff06f          	j	30000418 <vprintf+0xd0>
30000478:	0004c503          	lbu	a0,0(s1)
3000047c:	00448913          	addi	s2,s1,4
30000480:	00140413          	addi	s0,s0,1
30000484:	1f4000ef          	jal	30000678 <sys_putchar>
30000488:	00090493          	mv	s1,s2
3000048c:	001b0913          	addi	s2,s6,1
30000490:	ef5ff06f          	j	30000384 <vprintf+0x3c>
30000494:	00448913          	addi	s2,s1,4
30000498:	00100613          	li	a2,1
3000049c:	fcdff06f          	j	30000468 <vprintf+0x120>
300004a0:	03000513          	li	a0,48
300004a4:	00448913          	addi	s2,s1,4
300004a8:	0004a483          	lw	s1,0(s1)
300004ac:	1cc000ef          	jal	30000678 <sys_putchar>
300004b0:	07800513          	li	a0,120
300004b4:	1c4000ef          	jal	30000678 <sys_putchar>
300004b8:	00240413          	addi	s0,s0,2
300004bc:	00000613          	li	a2,0
300004c0:	00010593          	mv	a1,sp
300004c4:	00048513          	mv	a0,s1
300004c8:	fa9ff06f          	j	30000470 <vprintf+0x128>
300004cc:	00098513          	mv	a0,s3
300004d0:	1a8000ef          	jal	30000678 <sys_putchar>
300004d4:	00140413          	addi	s0,s0,1
300004d8:	fb5ff06f          	j	3000048c <vprintf+0x144>
300004dc:	19c000ef          	jal	30000678 <sys_putchar>
300004e0:	00140413          	addi	s0,s0,1
300004e4:	00090b13          	mv	s6,s2
300004e8:	fa5ff06f          	j	3000048c <vprintf+0x144>

300004ec <printf>:
300004ec:	fc010113          	addi	sp,sp,-64
300004f0:	02b12223          	sw	a1,36(sp)
300004f4:	02410593          	addi	a1,sp,36
300004f8:	00112e23          	sw	ra,28(sp)
300004fc:	02c12423          	sw	a2,40(sp)
30000500:	02d12623          	sw	a3,44(sp)
30000504:	02e12823          	sw	a4,48(sp)
30000508:	02f12a23          	sw	a5,52(sp)
3000050c:	03012c23          	sw	a6,56(sp)
30000510:	03112e23          	sw	a7,60(sp)
30000514:	00b12623          	sw	a1,12(sp)
30000518:	e31ff0ef          	jal	30000348 <vprintf>
3000051c:	01c12083          	lw	ra,28(sp)
30000520:	04010113          	addi	sp,sp,64
30000524:	00008067          	ret

30000528 <__divsi3>:
30000528:	06054063          	bltz	a0,30000588 <__umodsi3+0x10>
3000052c:	0605c663          	bltz	a1,30000598 <__umodsi3+0x20>

30000530 <__udivsi3>:
30000530:	00058613          	mv	a2,a1
30000534:	00050593          	mv	a1,a0
30000538:	fff00513          	li	a0,-1
3000053c:	02060c63          	beqz	a2,30000574 <__udivsi3+0x44>
30000540:	00100693          	li	a3,1
30000544:	00b67a63          	bgeu	a2,a1,30000558 <__udivsi3+0x28>
30000548:	00c05863          	blez	a2,30000558 <__udivsi3+0x28>
3000054c:	00161613          	slli	a2,a2,0x1
30000550:	00169693          	slli	a3,a3,0x1
30000554:	feb66ae3          	bltu	a2,a1,30000548 <__udivsi3+0x18>
30000558:	00000513          	li	a0,0
3000055c:	00c5e663          	bltu	a1,a2,30000568 <__udivsi3+0x38>
30000560:	40c585b3          	sub	a1,a1,a2
30000564:	00d56533          	or	a0,a0,a3
30000568:	0016d693          	srli	a3,a3,0x1
3000056c:	00165613          	srli	a2,a2,0x1
30000570:	fe0696e3          	bnez	a3,3000055c <__udivsi3+0x2c>
30000574:	00008067          	ret

30000578 <__umodsi3>:
30000578:	00008293          	mv	t0,ra
3000057c:	fb5ff0ef          	jal	30000530 <__udivsi3>
30000580:	00058513          	mv	a0,a1
30000584:	00028067          	jr	t0
30000588:	40a00533          	neg	a0,a0
3000058c:	00b04863          	bgtz	a1,3000059c <__umodsi3+0x24>
30000590:	40b005b3          	neg	a1,a1
30000594:	f9dff06f          	j	30000530 <__udivsi3>
30000598:	40b005b3          	neg	a1,a1
3000059c:	00008293          	mv	t0,ra
300005a0:	f91ff0ef          	jal	30000530 <__udivsi3>
300005a4:	40a00533          	neg	a0,a0
300005a8:	00028067          	jr	t0

300005ac <__modsi3>:
300005ac:	00008293          	mv	t0,ra
300005b0:	0005ca63          	bltz	a1,300005c4 <__modsi3+0x18>
300005b4:	00054c63          	bltz	a0,300005cc <__modsi3+0x20>
300005b8:	f79ff0ef          	jal	30000530 <__udivsi3>
300005bc:	00058513          	mv	a0,a1
300005c0:	00028067          	jr	t0
300005c4:	40b005b3          	neg	a1,a1
300005c8:	fe0558e3          	bgez	a0,300005b8 <__modsi3+0xc>
300005cc:	40a00533          	neg	a0,a0
300005d0:	f61ff0ef          	jal	30000530 <__udivsi3>
300005d4:	40b00533          	neg	a0,a1
300005d8:	00028067          	jr	t0

300005dc <__muldi3>:
300005dc:	00050613          	mv	a2,a0
300005e0:	00000513          	li	a0,0
300005e4:	0015f693          	andi	a3,a1,1
300005e8:	00068463          	beqz	a3,300005f0 <__muldi3+0x14>
300005ec:	00c50533          	add	a0,a0,a2
300005f0:	0015d593          	srli	a1,a1,0x1
300005f4:	00161613          	slli	a2,a2,0x1
300005f8:	fe0596e3          	bnez	a1,300005e4 <__muldi3+0x8>
300005fc:	00008067          	ret

30000600 <__mulsi3>:
30000600:	00050793          	mv	a5,a0
30000604:	00000513          	li	a0,0
30000608:	00079463          	bnez	a5,30000610 <__mulsi3+0x10>
3000060c:	00008067          	ret
30000610:	0017f713          	andi	a4,a5,1
30000614:	02b70733          	mul	a4,a4,a1
30000618:	0017d793          	srli	a5,a5,0x1
3000061c:	00159593          	slli	a1,a1,0x1
30000620:	00e50533          	add	a0,a0,a4
30000624:	fe5ff06f          	j	30000608 <__mulsi3+0x8>

30000628 <__lshrdi3>:
30000628:	00050713          	mv	a4,a0
3000062c:	00058793          	mv	a5,a1
30000630:	02060663          	beqz	a2,3000065c <__lshrdi3+0x34>
30000634:	03f00813          	li	a6,63
30000638:	00000713          	li	a4,0
3000063c:	00000793          	li	a5,0
30000640:	00c84e63          	blt	a6,a2,3000065c <__lshrdi3+0x34>
30000644:	ff010113          	addi	sp,sp,-16
30000648:	00112623          	sw	ra,12(sp)
3000064c:	fddff0ef          	jal	30000628 <__lshrdi3>
30000650:	00c12083          	lw	ra,12(sp)
30000654:	01010113          	addi	sp,sp,16
30000658:	00008067          	ret
3000065c:	00070513          	mv	a0,a4
30000660:	00078593          	mv	a1,a5
30000664:	00008067          	ret

30000668 <sys_uart_init>:
30000668:	030007b7          	lui	a5,0x3000
3000066c:	27100713          	li	a4,625
30000670:	00e7a823          	sw	a4,16(a5) # 3000010 <_ebss-0xfffff0>
30000674:	00008067          	ret

30000678 <sys_putchar>:
30000678:	030007b7          	lui	a5,0x3000
3000067c:	00a7aa23          	sw	a0,20(a5) # 3000014 <_ebss-0xffffec>
30000680:	00008067          	ret

30000684 <gpio_config>:
30000684:	0e050863          	beqz	a0,30000774 <gpio_config+0xf0>
30000688:	fd010113          	addi	sp,sp,-48
3000068c:	01612823          	sw	s6,16(sp)
30000690:	00052b03          	lw	s6,0(a0)
30000694:	02812423          	sw	s0,40(sp)
30000698:	03000437          	lui	s0,0x3000
3000069c:	02912223          	sw	s1,36(sp)
300006a0:	01312e23          	sw	s3,28(sp)
300006a4:	01412c23          	sw	s4,24(sp)
300006a8:	01512a23          	sw	s5,20(sp)
300006ac:	01712623          	sw	s7,12(sp)
300006b0:	01812423          	sw	s8,8(sp)
300006b4:	01912223          	sw	s9,4(sp)
300006b8:	02112623          	sw	ra,44(sp)
300006bc:	03212023          	sw	s2,32(sp)
300006c0:	00050993          	mv	s3,a0
300006c4:	00000493          	li	s1,0
300006c8:	00100b93          	li	s7,1
300006cc:	30012a37          	lui	s4,0x30012
300006d0:	30012c37          	lui	s8,0x30012
300006d4:	00440413          	addi	s0,s0,4 # 3000004 <_ebss-0xfffffc>
300006d8:	30012cb7          	lui	s9,0x30012
300006dc:	01000a93          	li	s5,16
300006e0:	009b57b3          	srl	a5,s6,s1
300006e4:	0017f793          	andi	a5,a5,1
300006e8:	02078a63          	beqz	a5,3000071c <gpio_config+0x98>
300006ec:	0049a783          	lw	a5,4(s3)
300006f0:	009b9933          	sll	s2,s7,s1
300006f4:	00048593          	mv	a1,s1
300006f8:	06079063          	bnez	a5,30000758 <gpio_config+0xd4>
300006fc:	c5cc8513          	addi	a0,s9,-932 # 30011c5c <img+0x100d8>
30000700:	dedff0ef          	jal	300004ec <printf>
30000704:	00042783          	lw	a5,0(s0)
30000708:	00f967b3          	or	a5,s2,a5
3000070c:	00f42023          	sw	a5,0(s0)
30000710:	00042583          	lw	a1,0(s0)
30000714:	c74a0513          	addi	a0,s4,-908 # 30011c74 <img+0x100f0>
30000718:	dd5ff0ef          	jal	300004ec <printf>
3000071c:	00148493          	addi	s1,s1,1
30000720:	fd5490e3          	bne	s1,s5,300006e0 <gpio_config+0x5c>
30000724:	02c12083          	lw	ra,44(sp)
30000728:	02812403          	lw	s0,40(sp)
3000072c:	02412483          	lw	s1,36(sp)
30000730:	02012903          	lw	s2,32(sp)
30000734:	01c12983          	lw	s3,28(sp)
30000738:	01812a03          	lw	s4,24(sp)
3000073c:	01412a83          	lw	s5,20(sp)
30000740:	01012b03          	lw	s6,16(sp)
30000744:	00c12b83          	lw	s7,12(sp)
30000748:	00812c03          	lw	s8,8(sp)
3000074c:	00412c83          	lw	s9,4(sp)
30000750:	03010113          	addi	sp,sp,48
30000754:	00008067          	ret
30000758:	c88c0513          	addi	a0,s8,-888 # 30011c88 <img+0x10104>
3000075c:	d91ff0ef          	jal	300004ec <printf>
30000760:	00042783          	lw	a5,0(s0)
30000764:	fff94913          	not	s2,s2
30000768:	00f97933          	and	s2,s2,a5
3000076c:	01242023          	sw	s2,0(s0)
30000770:	fa1ff06f          	j	30000710 <gpio_config+0x8c>
30000774:	00008067          	ret

30000778 <gpio_set_level>:
30000778:	00100713          	li	a4,1
3000077c:	00a71533          	sll	a0,a4,a0
30000780:	030007b7          	lui	a5,0x3000
30000784:	00e59a63          	bne	a1,a4,30000798 <gpio_set_level+0x20>
30000788:	0007a703          	lw	a4,0(a5) # 3000000 <_ebss-0x1000000>
3000078c:	00a76733          	or	a4,a4,a0
30000790:	00e7a023          	sw	a4,0(a5)
30000794:	00008067          	ret
30000798:	0007a703          	lw	a4,0(a5)
3000079c:	fff54513          	not	a0,a0
300007a0:	00e57533          	and	a0,a0,a4
300007a4:	00a7a023          	sw	a0,0(a5)
300007a8:	00008067          	ret

300007ac <gpio_get_level>:
300007ac:	030007b7          	lui	a5,0x3000
300007b0:	0007a783          	lw	a5,0(a5) # 3000000 <_ebss-0x1000000>
300007b4:	00a7d533          	srl	a0,a5,a0
300007b8:	00157513          	andi	a0,a0,1
300007bc:	00008067          	ret

300007c0 <qspi_init>:
300007c0:	ff010113          	addi	sp,sp,-16
300007c4:	00112623          	sw	ra,12(sp)
300007c8:	01212023          	sw	s2,0(sp)
300007cc:	00812423          	sw	s0,8(sp)
300007d0:	00912223          	sw	s1,4(sp)
300007d4:	030077b7          	lui	a5,0x3007
300007d8:	01000713          	li	a4,16
300007dc:	00e7a023          	sw	a4,0(a5) # 3007000 <_ebss-0xff9000>
300007e0:	0007a023          	sw	zero,0(a5)
300007e4:	0207a223          	sw	zero,36(a5)
300007e8:	0007aa23          	sw	zero,20(a5)
300007ec:	00052703          	lw	a4,0(a0)
300007f0:	30012537          	lui	a0,0x30012
300007f4:	ca050513          	addi	a0,a0,-864 # 30011ca0 <img+0x1011c>
300007f8:	00e7a223          	sw	a4,4(a5)
300007fc:	0007a583          	lw	a1,0(a5)
30000800:	00078913          	mv	s2,a5
30000804:	ce9ff0ef          	jal	300004ec <printf>
30000808:	02492583          	lw	a1,36(s2)
3000080c:	30012537          	lui	a0,0x30012
30000810:	cb450513          	addi	a0,a0,-844 # 30011cb4 <img+0x10130>
30000814:	cd9ff0ef          	jal	300004ec <printf>
30000818:	01492583          	lw	a1,20(s2)
3000081c:	30012537          	lui	a0,0x30012
30000820:	cc850513          	addi	a0,a0,-824 # 30011cc8 <img+0x10144>
30000824:	cc9ff0ef          	jal	300004ec <printf>
30000828:	00812403          	lw	s0,8(sp)
3000082c:	00492583          	lw	a1,4(s2)
30000830:	00c12083          	lw	ra,12(sp)
30000834:	00412483          	lw	s1,4(sp)
30000838:	00012903          	lw	s2,0(sp)
3000083c:	30012537          	lui	a0,0x30012
30000840:	cd850513          	addi	a0,a0,-808 # 30011cd8 <img+0x10154>
30000844:	01010113          	addi	sp,sp,16
30000848:	ca5ff06f          	j	300004ec <printf>

3000084c <qspi_write_8>:
3000084c:	030077b7          	lui	a5,0x3007
30000850:	000806b7          	lui	a3,0x80
30000854:	00d7a823          	sw	a3,16(a5) # 3007010 <_ebss-0xff8ff0>
30000858:	01851513          	slli	a0,a0,0x18
3000085c:	10200713          	li	a4,258
30000860:	00a7ac23          	sw	a0,24(a5)
30000864:	00e7a023          	sw	a4,0(a5)
30000868:	00100713          	li	a4,1
3000086c:	0007a683          	lw	a3,0(a5)
30000870:	fee69ee3          	bne	a3,a4,3000086c <qspi_write_8+0x20>
30000874:	00008067          	ret

30000878 <qspi_write_16>:
30000878:	030077b7          	lui	a5,0x3007
3000087c:	001006b7          	lui	a3,0x100
30000880:	00d7a823          	sw	a3,16(a5) # 3007010 <_ebss-0xff8ff0>
30000884:	01051513          	slli	a0,a0,0x10
30000888:	10200713          	li	a4,258
3000088c:	00a7ac23          	sw	a0,24(a5)
30000890:	00e7a023          	sw	a4,0(a5)
30000894:	00100713          	li	a4,1
30000898:	0007a683          	lw	a3,0(a5)
3000089c:	fee69ee3          	bne	a3,a4,30000898 <qspi_write_16+0x20>
300008a0:	00008067          	ret

300008a4 <qspi_write_32>:
300008a4:	030077b7          	lui	a5,0x3007
300008a8:	002006b7          	lui	a3,0x200
300008ac:	00d7a823          	sw	a3,16(a5) # 3007010 <_ebss-0xff8ff0>
300008b0:	10200713          	li	a4,258
300008b4:	00a7ac23          	sw	a0,24(a5)
300008b8:	00e7a023          	sw	a4,0(a5)
300008bc:	00100713          	li	a4,1
300008c0:	0007a683          	lw	a3,0(a5)
300008c4:	fee69ee3          	bne	a3,a4,300008c0 <qspi_write_32+0x1c>
300008c8:	00008067          	ret

300008cc <qspi_write_32x2>:
300008cc:	03007737          	lui	a4,0x3007
300008d0:	004006b7          	lui	a3,0x400
300008d4:	00d72823          	sw	a3,16(a4) # 3007010 <_ebss-0xff8ff0>
300008d8:	00a72c23          	sw	a0,24(a4)
300008dc:	10200793          	li	a5,258
300008e0:	00b72c23          	sw	a1,24(a4)
300008e4:	00f72023          	sw	a5,0(a4)
300008e8:	00100793          	li	a5,1
300008ec:	00072683          	lw	a3,0(a4)
300008f0:	fef69ee3          	bne	a3,a5,300008ec <qspi_write_32x2+0x20>
300008f4:	00008067          	ret

300008f8 <qspi_write_32x8>:
300008f8:	03007e37          	lui	t3,0x3007
300008fc:	01000eb7          	lui	t4,0x1000
30000900:	01de2823          	sw	t4,16(t3) # 3007010 <_ebss-0xff8ff0>
30000904:	00ae2c23          	sw	a0,24(t3)
30000908:	00be2c23          	sw	a1,24(t3)
3000090c:	00ce2c23          	sw	a2,24(t3)
30000910:	00de2c23          	sw	a3,24(t3)
30000914:	00ee2c23          	sw	a4,24(t3)
30000918:	00fe2c23          	sw	a5,24(t3)
3000091c:	010e2c23          	sw	a6,24(t3)
30000920:	10200793          	li	a5,258
30000924:	011e2c23          	sw	a7,24(t3)
30000928:	00fe2023          	sw	a5,0(t3)
3000092c:	00100793          	li	a5,1
30000930:	000e2703          	lw	a4,0(t3)
30000934:	fef71ee3          	bne	a4,a5,30000930 <qspi_write_32x8+0x38>
30000938:	00008067          	ret

3000093c <qspi_write_32x16>:
3000093c:	03007e37          	lui	t3,0x3007
30000940:	02000eb7          	lui	t4,0x2000
30000944:	01de2823          	sw	t4,16(t3) # 3007010 <_ebss-0xff8ff0>
30000948:	00ae2c23          	sw	a0,24(t3)
3000094c:	00be2c23          	sw	a1,24(t3)
30000950:	00ce2c23          	sw	a2,24(t3)
30000954:	00de2c23          	sw	a3,24(t3)
30000958:	00ee2c23          	sw	a4,24(t3)
3000095c:	00fe2c23          	sw	a5,24(t3)
30000960:	010e2c23          	sw	a6,24(t3)
30000964:	011e2c23          	sw	a7,24(t3)
30000968:	00012783          	lw	a5,0(sp)
3000096c:	00fe2c23          	sw	a5,24(t3)
30000970:	00412783          	lw	a5,4(sp)
30000974:	00fe2c23          	sw	a5,24(t3)
30000978:	00812783          	lw	a5,8(sp)
3000097c:	00fe2c23          	sw	a5,24(t3)
30000980:	00c12783          	lw	a5,12(sp)
30000984:	00fe2c23          	sw	a5,24(t3)
30000988:	01012783          	lw	a5,16(sp)
3000098c:	00fe2c23          	sw	a5,24(t3)
30000990:	01412783          	lw	a5,20(sp)
30000994:	00fe2c23          	sw	a5,24(t3)
30000998:	01812783          	lw	a5,24(sp)
3000099c:	00fe2c23          	sw	a5,24(t3)
300009a0:	01c12783          	lw	a5,28(sp)
300009a4:	00fe2c23          	sw	a5,24(t3)
300009a8:	10200793          	li	a5,258
300009ac:	00fe2023          	sw	a5,0(t3)
300009b0:	00100793          	li	a5,1
300009b4:	000e2703          	lw	a4,0(t3)
300009b8:	fef71ee3          	bne	a4,a5,300009b4 <qspi_write_32x16+0x78>
300009bc:	00008067          	ret

300009c0 <qspi_write_32x32>:
300009c0:	03007e37          	lui	t3,0x3007
300009c4:	04000eb7          	lui	t4,0x4000
300009c8:	01de2823          	sw	t4,16(t3) # 3007010 <_ebss-0xff8ff0>
300009cc:	00ae2c23          	sw	a0,24(t3)
300009d0:	00be2c23          	sw	a1,24(t3)
300009d4:	00ce2c23          	sw	a2,24(t3)
300009d8:	00de2c23          	sw	a3,24(t3)
300009dc:	00ee2c23          	sw	a4,24(t3)
300009e0:	00fe2c23          	sw	a5,24(t3)
300009e4:	010e2c23          	sw	a6,24(t3)
300009e8:	011e2c23          	sw	a7,24(t3)
300009ec:	00012783          	lw	a5,0(sp)
300009f0:	018e0313          	addi	t1,t3,24
300009f4:	00f32023          	sw	a5,0(t1)
300009f8:	00412783          	lw	a5,4(sp)
300009fc:	00f32023          	sw	a5,0(t1)
30000a00:	00812783          	lw	a5,8(sp)
30000a04:	00f32023          	sw	a5,0(t1)
30000a08:	00c12783          	lw	a5,12(sp)
30000a0c:	00f32023          	sw	a5,0(t1)
30000a10:	01012783          	lw	a5,16(sp)
30000a14:	00f32023          	sw	a5,0(t1)
30000a18:	01412783          	lw	a5,20(sp)
30000a1c:	00f32023          	sw	a5,0(t1)
30000a20:	01812783          	lw	a5,24(sp)
30000a24:	00f32023          	sw	a5,0(t1)
30000a28:	01c12783          	lw	a5,28(sp)
30000a2c:	00f32023          	sw	a5,0(t1)
30000a30:	02012783          	lw	a5,32(sp)
30000a34:	00f32023          	sw	a5,0(t1)
30000a38:	02412783          	lw	a5,36(sp)
30000a3c:	00f32023          	sw	a5,0(t1)
30000a40:	02812783          	lw	a5,40(sp)
30000a44:	00f32023          	sw	a5,0(t1)
30000a48:	02c12783          	lw	a5,44(sp)
30000a4c:	00f32023          	sw	a5,0(t1)
30000a50:	03012783          	lw	a5,48(sp)
30000a54:	00f32023          	sw	a5,0(t1)
30000a58:	03412783          	lw	a5,52(sp)
30000a5c:	00f32023          	sw	a5,0(t1)
30000a60:	03812783          	lw	a5,56(sp)
30000a64:	00f32023          	sw	a5,0(t1)
30000a68:	03c12783          	lw	a5,60(sp)
30000a6c:	00f32023          	sw	a5,0(t1)
30000a70:	04012783          	lw	a5,64(sp)
30000a74:	00f32023          	sw	a5,0(t1)
30000a78:	04412783          	lw	a5,68(sp)
30000a7c:	00f32023          	sw	a5,0(t1)
30000a80:	04812783          	lw	a5,72(sp)
30000a84:	00f32023          	sw	a5,0(t1)
30000a88:	04c12783          	lw	a5,76(sp)
30000a8c:	00f32023          	sw	a5,0(t1)
30000a90:	05012783          	lw	a5,80(sp)
30000a94:	00f32023          	sw	a5,0(t1)
30000a98:	05412783          	lw	a5,84(sp)
30000a9c:	00f32023          	sw	a5,0(t1)
30000aa0:	05812783          	lw	a5,88(sp)
30000aa4:	00f32023          	sw	a5,0(t1)
30000aa8:	05c12783          	lw	a5,92(sp)
30000aac:	00f32023          	sw	a5,0(t1)
30000ab0:	10200793          	li	a5,258
30000ab4:	00fe2023          	sw	a5,0(t3)
30000ab8:	00100793          	li	a5,1
30000abc:	000e2703          	lw	a4,0(t3)
30000ac0:	fef71ee3          	bne	a4,a5,30000abc <qspi_write_32x32+0xfc>
30000ac4:	00008067          	ret

30000ac8 <delay_us>:
30000ac8:	03000737          	lui	a4,0x3000
30000acc:	10000793          	li	a5,256
30000ad0:	04f72e23          	sw	a5,92(a4) # 300005c <_ebss-0xffffa4>
30000ad4:	04800793          	li	a5,72
30000ad8:	02f50533          	mul	a0,a0,a5
30000adc:	06470793          	addi	a5,a4,100
30000ae0:	10100693          	li	a3,257
30000ae4:	fff50513          	addi	a0,a0,-1
30000ae8:	00a7a023          	sw	a0,0(a5)
30000aec:	04d72e23          	sw	a3,92(a4)
30000af0:	0007a703          	lw	a4,0(a5)
30000af4:	fe071ee3          	bnez	a4,30000af0 <delay_us+0x28>
30000af8:	00008067          	ret

30000afc <delay_ms>:
30000afc:	3e800793          	li	a5,1000
30000b00:	02f50533          	mul	a0,a0,a5
30000b04:	fc5ff06f          	j	30000ac8 <delay_us>

30000b08 <delay_s>:
30000b08:	3e800793          	li	a5,1000
30000b0c:	02f50533          	mul	a0,a0,a5
30000b10:	fedff06f          	j	30000afc <delay_ms>

30000b14 <pwm_init>:
30000b14:	00052703          	lw	a4,0(a0)
30000b18:	030047b7          	lui	a5,0x3004
30000b1c:	00e7a223          	sw	a4,4(a5) # 3004004 <_ebss-0xffbffc>
30000b20:	00452703          	lw	a4,4(a0)
30000b24:	00e7a623          	sw	a4,12(a5)
30000b28:	00300713          	li	a4,3
30000b2c:	00e7a023          	sw	a4,0(a5)
30000b30:	00008067          	ret

30000b34 <pwm_set_compare>:
30000b34:	00200793          	li	a5,2
30000b38:	02f50863          	beq	a0,a5,30000b68 <pwm_set_compare+0x34>
30000b3c:	00a7ea63          	bltu	a5,a0,30000b50 <pwm_set_compare+0x1c>
30000b40:	00051e63          	bnez	a0,30000b5c <pwm_set_compare+0x28>
30000b44:	030047b7          	lui	a5,0x3004
30000b48:	00b7a823          	sw	a1,16(a5) # 3004010 <_ebss-0xffbff0>
30000b4c:	00008067          	ret
30000b50:	00300793          	li	a5,3
30000b54:	02f50063          	beq	a0,a5,30000b74 <pwm_set_compare+0x40>
30000b58:	00008067          	ret
30000b5c:	030047b7          	lui	a5,0x3004
30000b60:	00b7aa23          	sw	a1,20(a5) # 3004014 <_ebss-0xffbfec>
30000b64:	00008067          	ret
30000b68:	030047b7          	lui	a5,0x3004
30000b6c:	00b7ac23          	sw	a1,24(a5) # 3004018 <_ebss-0xffbfe8>
30000b70:	00008067          	ret
30000b74:	030047b7          	lui	a5,0x3004
30000b78:	00b7ae23          	sw	a1,28(a5) # 300401c <_ebss-0xffbfe4>
30000b7c:	00008067          	ret

30000b80 <i2c_get_ack>:
30000b80:	03006737          	lui	a4,0x3006
30000b84:	01470713          	addi	a4,a4,20 # 3006014 <_ebss-0xff9fec>
30000b88:	00072783          	lw	a5,0(a4)
30000b8c:	0027f793          	andi	a5,a5,2
30000b90:	fe078ce3          	beqz	a5,30000b88 <i2c_get_ack+0x8>
30000b94:	030067b7          	lui	a5,0x3006
30000b98:	01478793          	addi	a5,a5,20 # 3006014 <_ebss-0xff9fec>
30000b9c:	0007a703          	lw	a4,0(a5)
30000ba0:	00277713          	andi	a4,a4,2
30000ba4:	fe071ce3          	bnez	a4,30000b9c <i2c_get_ack+0x1c>
30000ba8:	0007a503          	lw	a0,0(a5)
30000bac:	00755513          	srli	a0,a0,0x7
30000bb0:	00157513          	andi	a0,a0,1
30000bb4:	00154513          	xori	a0,a0,1
30000bb8:	00008067          	ret

30000bbc <i2c_stop>:
30000bbc:	030067b7          	lui	a5,0x3006
30000bc0:	04000713          	li	a4,64
30000bc4:	00e7a823          	sw	a4,16(a5) # 3006010 <_ebss-0xff9ff0>
30000bc8:	01478713          	addi	a4,a5,20
30000bcc:	00072783          	lw	a5,0(a4)
30000bd0:	0407f793          	andi	a5,a5,64
30000bd4:	fe079ce3          	bnez	a5,30000bcc <i2c_stop+0x10>
30000bd8:	00008067          	ret

30000bdc <i2c_start_write>:
30000bdc:	ff010113          	addi	sp,sp,-16
30000be0:	00112623          	sw	ra,12(sp)
30000be4:	030067b7          	lui	a5,0x3006
30000be8:	00a7a423          	sw	a0,8(a5) # 3006008 <_ebss-0xff9ff8>
30000bec:	09000713          	li	a4,144
30000bf0:	00e7a823          	sw	a4,16(a5)
30000bf4:	f8dff0ef          	jal	30000b80 <i2c_get_ack>
30000bf8:	00051c63          	bnez	a0,30000c10 <i2c_start_write+0x34>
30000bfc:	00c12083          	lw	ra,12(sp)
30000c00:	30012537          	lui	a0,0x30012
30000c04:	cec50513          	addi	a0,a0,-788 # 30011cec <img+0x10168>
30000c08:	01010113          	addi	sp,sp,16
30000c0c:	8e1ff06f          	j	300004ec <printf>
30000c10:	00c12083          	lw	ra,12(sp)
30000c14:	01010113          	addi	sp,sp,16
30000c18:	00008067          	ret

30000c1c <i2c_write_byte>:
30000c1c:	ff010113          	addi	sp,sp,-16
30000c20:	00112623          	sw	ra,12(sp)
30000c24:	030067b7          	lui	a5,0x3006
30000c28:	00a7a423          	sw	a0,8(a5) # 3006008 <_ebss-0xff9ff8>
30000c2c:	02000713          	li	a4,32
30000c30:	00e7a823          	sw	a4,16(a5)
30000c34:	f4dff0ef          	jal	30000b80 <i2c_get_ack>
30000c38:	00051c63          	bnez	a0,30000c50 <i2c_write_byte+0x34>
30000c3c:	00c12083          	lw	ra,12(sp)
30000c40:	30012537          	lui	a0,0x30012
30000c44:	d0850513          	addi	a0,a0,-760 # 30011d08 <img+0x10184>
30000c48:	01010113          	addi	sp,sp,16
30000c4c:	8a1ff06f          	j	300004ec <printf>
30000c50:	00c12083          	lw	ra,12(sp)
30000c54:	01010113          	addi	sp,sp,16
30000c58:	00008067          	ret

30000c5c <i2c_init>:
30000c5c:	030067b7          	lui	a5,0x3006
30000c60:	0007a023          	sw	zero,0(a5) # 3006000 <_ebss-0xffa000>
30000c64:	00052683          	lw	a3,0(a0)
30000c68:	08000713          	li	a4,128
30000c6c:	00d7a223          	sw	a3,4(a5)
30000c70:	00e7a023          	sw	a4,0(a5)
30000c74:	00008067          	ret

30000c78 <i2c_write_nbyte>:
30000c78:	fe010113          	addi	sp,sp,-32
30000c7c:	00812c23          	sw	s0,24(sp)
30000c80:	00912a23          	sw	s1,20(sp)
30000c84:	01212823          	sw	s2,16(sp)
30000c88:	01312623          	sw	s3,12(sp)
30000c8c:	01412423          	sw	s4,8(sp)
30000c90:	00058913          	mv	s2,a1
30000c94:	00112e23          	sw	ra,28(sp)
30000c98:	00060993          	mv	s3,a2
30000c9c:	00068413          	mv	s0,a3
30000ca0:	00070493          	mv	s1,a4
30000ca4:	f39ff0ef          	jal	30000bdc <i2c_start_write>
30000ca8:	00800793          	li	a5,8
30000cac:	0ff97a13          	zext.b	s4,s2
30000cb0:	02f99a63          	bne	s3,a5,30000ce4 <i2c_write_nbyte+0x6c>
30000cb4:	000a0513          	mv	a0,s4
30000cb8:	f65ff0ef          	jal	30000c1c <i2c_write_byte>
30000cbc:	009404b3          	add	s1,s0,s1
30000cc0:	02941863          	bne	s0,s1,30000cf0 <i2c_write_nbyte+0x78>
30000cc4:	01812403          	lw	s0,24(sp)
30000cc8:	01c12083          	lw	ra,28(sp)
30000ccc:	01412483          	lw	s1,20(sp)
30000cd0:	01012903          	lw	s2,16(sp)
30000cd4:	00c12983          	lw	s3,12(sp)
30000cd8:	00812a03          	lw	s4,8(sp)
30000cdc:	02010113          	addi	sp,sp,32
30000ce0:	eddff06f          	j	30000bbc <i2c_stop>
30000ce4:	00895513          	srli	a0,s2,0x8
30000ce8:	f35ff0ef          	jal	30000c1c <i2c_write_byte>
30000cec:	fc9ff06f          	j	30000cb4 <i2c_write_nbyte+0x3c>
30000cf0:	00044503          	lbu	a0,0(s0)
30000cf4:	00140413          	addi	s0,s0,1
30000cf8:	f25ff0ef          	jal	30000c1c <i2c_write_byte>
30000cfc:	fc5ff06f          	j	30000cc0 <i2c_write_nbyte+0x48>

30000d00 <i2c_read_nbyte>:
30000d00:	fe010113          	addi	sp,sp,-32
30000d04:	00812c23          	sw	s0,24(sp)
30000d08:	00912a23          	sw	s1,20(sp)
30000d0c:	01212823          	sw	s2,16(sp)
30000d10:	01312623          	sw	s3,12(sp)
30000d14:	01412423          	sw	s4,8(sp)
30000d18:	01512223          	sw	s5,4(sp)
30000d1c:	00058913          	mv	s2,a1
30000d20:	00112e23          	sw	ra,28(sp)
30000d24:	01612023          	sw	s6,0(sp)
30000d28:	00050413          	mv	s0,a0
30000d2c:	00060a13          	mv	s4,a2
30000d30:	00068993          	mv	s3,a3
30000d34:	00070493          	mv	s1,a4
30000d38:	ea5ff0ef          	jal	30000bdc <i2c_start_write>
30000d3c:	00800793          	li	a5,8
30000d40:	0ff97a93          	zext.b	s5,s2
30000d44:	08fa1263          	bne	s4,a5,30000dc8 <i2c_read_nbyte+0xc8>
30000d48:	000a8513          	mv	a0,s5
30000d4c:	ed1ff0ef          	jal	30000c1c <i2c_write_byte>
30000d50:	00140413          	addi	s0,s0,1
30000d54:	e69ff0ef          	jal	30000bbc <i2c_stop>
30000d58:	030067b7          	lui	a5,0x3006
30000d5c:	0ff47413          	zext.b	s0,s0
30000d60:	0087a423          	sw	s0,8(a5) # 3006008 <_ebss-0xff9ff8>
30000d64:	0a000713          	li	a4,160
30000d68:	00e7a823          	sw	a4,16(a5)
30000d6c:	e15ff0ef          	jal	30000b80 <i2c_get_ack>
30000d70:	00051863          	bnez	a0,30000d80 <i2c_read_nbyte+0x80>
30000d74:	30012537          	lui	a0,0x30012
30000d78:	d2050513          	addi	a0,a0,-736 # 30011d20 <img+0x1019c>
30000d7c:	f70ff0ef          	jal	300004ec <printf>
30000d80:	03006937          	lui	s2,0x3006
30000d84:	03006a37          	lui	s4,0x3006
30000d88:	00000413          	li	s0,0
30000d8c:	fff48a93          	addi	s5,s1,-1
30000d90:	01090913          	addi	s2,s2,16 # 3006010 <_ebss-0xff9ff0>
30000d94:	30012b37          	lui	s6,0x30012
30000d98:	00ca0a13          	addi	s4,s4,12 # 300600c <_ebss-0xff9ff4>
30000d9c:	02941c63          	bne	s0,s1,30000dd4 <i2c_read_nbyte+0xd4>
30000da0:	01812403          	lw	s0,24(sp)
30000da4:	01c12083          	lw	ra,28(sp)
30000da8:	01412483          	lw	s1,20(sp)
30000dac:	01012903          	lw	s2,16(sp)
30000db0:	00c12983          	lw	s3,12(sp)
30000db4:	00812a03          	lw	s4,8(sp)
30000db8:	00412a83          	lw	s5,4(sp)
30000dbc:	00012b03          	lw	s6,0(sp)
30000dc0:	02010113          	addi	sp,sp,32
30000dc4:	df9ff06f          	j	30000bbc <i2c_stop>
30000dc8:	00895513          	srli	a0,s2,0x8
30000dcc:	e51ff0ef          	jal	30000c1c <i2c_write_byte>
30000dd0:	f79ff06f          	j	30000d48 <i2c_read_nbyte+0x48>
30000dd4:	01000793          	li	a5,16
30000dd8:	008a9463          	bne	s5,s0,30000de0 <i2c_read_nbyte+0xe0>
30000ddc:	06000793          	li	a5,96
30000de0:	00f92023          	sw	a5,0(s2)
30000de4:	d9dff0ef          	jal	30000b80 <i2c_get_ack>
30000de8:	00051663          	bnez	a0,30000df4 <i2c_read_nbyte+0xf4>
30000dec:	d38b0513          	addi	a0,s6,-712 # 30011d38 <img+0x101b4>
30000df0:	efcff0ef          	jal	300004ec <printf>
30000df4:	000a2703          	lw	a4,0(s4)
30000df8:	008987b3          	add	a5,s3,s0
30000dfc:	00140413          	addi	s0,s0,1
30000e00:	00e78023          	sb	a4,0(a5)
30000e04:	f99ff06f          	j	30000d9c <i2c_read_nbyte+0x9c>

30000e08 <st7735_wr_data8>:
30000e08:	00052503          	lw	a0,0(a0)
30000e0c:	ff010113          	addi	sp,sp,-16
30000e10:	00812423          	sw	s0,8(sp)
30000e14:	00058413          	mv	s0,a1
30000e18:	00100593          	li	a1,1
30000e1c:	00112623          	sw	ra,12(sp)
30000e20:	959ff0ef          	jal	30000778 <gpio_set_level>
30000e24:	00040513          	mv	a0,s0
30000e28:	00812403          	lw	s0,8(sp)
30000e2c:	00c12083          	lw	ra,12(sp)
30000e30:	01010113          	addi	sp,sp,16
30000e34:	a19ff06f          	j	3000084c <qspi_write_8>

30000e38 <st7735_wr_data16>:
30000e38:	00052503          	lw	a0,0(a0)
30000e3c:	ff010113          	addi	sp,sp,-16
30000e40:	00812423          	sw	s0,8(sp)
30000e44:	00058413          	mv	s0,a1
30000e48:	00100593          	li	a1,1
30000e4c:	00112623          	sw	ra,12(sp)
30000e50:	929ff0ef          	jal	30000778 <gpio_set_level>
30000e54:	00040513          	mv	a0,s0
30000e58:	00812403          	lw	s0,8(sp)
30000e5c:	00c12083          	lw	ra,12(sp)
30000e60:	01010113          	addi	sp,sp,16
30000e64:	a15ff06f          	j	30000878 <qspi_write_16>

30000e68 <st7735_wr_data32>:
30000e68:	00052503          	lw	a0,0(a0)
30000e6c:	ff010113          	addi	sp,sp,-16
30000e70:	00812423          	sw	s0,8(sp)
30000e74:	00058413          	mv	s0,a1
30000e78:	00100593          	li	a1,1
30000e7c:	00112623          	sw	ra,12(sp)
30000e80:	8f9ff0ef          	jal	30000778 <gpio_set_level>
30000e84:	00040513          	mv	a0,s0
30000e88:	00812403          	lw	s0,8(sp)
30000e8c:	00c12083          	lw	ra,12(sp)
30000e90:	01010113          	addi	sp,sp,16
30000e94:	a11ff06f          	j	300008a4 <qspi_write_32>

30000e98 <st7735_wr_data32x2>:
30000e98:	00052503          	lw	a0,0(a0)
30000e9c:	ff010113          	addi	sp,sp,-16
30000ea0:	00812423          	sw	s0,8(sp)
30000ea4:	00058413          	mv	s0,a1
30000ea8:	00100593          	li	a1,1
30000eac:	00912223          	sw	s1,4(sp)
30000eb0:	00112623          	sw	ra,12(sp)
30000eb4:	00060493          	mv	s1,a2
30000eb8:	8c1ff0ef          	jal	30000778 <gpio_set_level>
30000ebc:	00040513          	mv	a0,s0
30000ec0:	00812403          	lw	s0,8(sp)
30000ec4:	00c12083          	lw	ra,12(sp)
30000ec8:	00048593          	mv	a1,s1
30000ecc:	00412483          	lw	s1,4(sp)
30000ed0:	01010113          	addi	sp,sp,16
30000ed4:	9f9ff06f          	j	300008cc <qspi_write_32x2>

30000ed8 <st7735_wr_data32x8>:
30000ed8:	fd010113          	addi	sp,sp,-48
30000edc:	01112623          	sw	a7,12(sp)
30000ee0:	00052503          	lw	a0,0(a0)
30000ee4:	03012883          	lw	a7,48(sp)
30000ee8:	02812423          	sw	s0,40(sp)
30000eec:	00058413          	mv	s0,a1
30000ef0:	00100593          	li	a1,1
30000ef4:	02912223          	sw	s1,36(sp)
30000ef8:	02112623          	sw	ra,44(sp)
30000efc:	00060493          	mv	s1,a2
30000f00:	00d12e23          	sw	a3,28(sp)
30000f04:	00e12c23          	sw	a4,24(sp)
30000f08:	00f12a23          	sw	a5,20(sp)
30000f0c:	01012823          	sw	a6,16(sp)
30000f10:	01112423          	sw	a7,8(sp)
30000f14:	865ff0ef          	jal	30000778 <gpio_set_level>
30000f18:	00040513          	mv	a0,s0
30000f1c:	02812403          	lw	s0,40(sp)
30000f20:	00812883          	lw	a7,8(sp)
30000f24:	00c12803          	lw	a6,12(sp)
30000f28:	01012783          	lw	a5,16(sp)
30000f2c:	01412703          	lw	a4,20(sp)
30000f30:	01812683          	lw	a3,24(sp)
30000f34:	01c12603          	lw	a2,28(sp)
30000f38:	02c12083          	lw	ra,44(sp)
30000f3c:	00048593          	mv	a1,s1
30000f40:	02412483          	lw	s1,36(sp)
30000f44:	03010113          	addi	sp,sp,48
30000f48:	9b1ff06f          	j	300008f8 <qspi_write_32x8>

30000f4c <st7735_wr_data32x16>:
30000f4c:	fb010113          	addi	sp,sp,-80
30000f50:	01112623          	sw	a7,12(sp)
30000f54:	00052503          	lw	a0,0(a0)
30000f58:	05012883          	lw	a7,80(sp)
30000f5c:	04812423          	sw	s0,72(sp)
30000f60:	05212023          	sw	s2,64(sp)
30000f64:	03312e23          	sw	s3,60(sp)
30000f68:	03412c23          	sw	s4,56(sp)
30000f6c:	03512a23          	sw	s5,52(sp)
30000f70:	03612823          	sw	s6,48(sp)
30000f74:	03712623          	sw	s7,44(sp)
30000f78:	03812423          	sw	s8,40(sp)
30000f7c:	03912223          	sw	s9,36(sp)
30000f80:	05412903          	lw	s2,84(sp)
30000f84:	05812983          	lw	s3,88(sp)
30000f88:	05c12a03          	lw	s4,92(sp)
30000f8c:	06012a83          	lw	s5,96(sp)
30000f90:	06412b03          	lw	s6,100(sp)
30000f94:	06812b83          	lw	s7,104(sp)
30000f98:	06c12c03          	lw	s8,108(sp)
30000f9c:	07012c83          	lw	s9,112(sp)
30000fa0:	00058413          	mv	s0,a1
30000fa4:	00100593          	li	a1,1
30000fa8:	04912223          	sw	s1,68(sp)
30000fac:	04112623          	sw	ra,76(sp)
30000fb0:	00060493          	mv	s1,a2
30000fb4:	00d12e23          	sw	a3,28(sp)
30000fb8:	00e12c23          	sw	a4,24(sp)
30000fbc:	00f12a23          	sw	a5,20(sp)
30000fc0:	01012823          	sw	a6,16(sp)
30000fc4:	01112423          	sw	a7,8(sp)
30000fc8:	fb0ff0ef          	jal	30000778 <gpio_set_level>
30000fcc:	00040513          	mv	a0,s0
30000fd0:	04812403          	lw	s0,72(sp)
30000fd4:	07912623          	sw	s9,108(sp)
30000fd8:	07812423          	sw	s8,104(sp)
30000fdc:	07712223          	sw	s7,100(sp)
30000fe0:	07612023          	sw	s6,96(sp)
30000fe4:	05512e23          	sw	s5,92(sp)
30000fe8:	05412c23          	sw	s4,88(sp)
30000fec:	05312a23          	sw	s3,84(sp)
30000ff0:	05212823          	sw	s2,80(sp)
30000ff4:	00812883          	lw	a7,8(sp)
30000ff8:	00c12803          	lw	a6,12(sp)
30000ffc:	01012783          	lw	a5,16(sp)
30001000:	01412703          	lw	a4,20(sp)
30001004:	01812683          	lw	a3,24(sp)
30001008:	01c12603          	lw	a2,28(sp)
3000100c:	04c12083          	lw	ra,76(sp)
30001010:	04012903          	lw	s2,64(sp)
30001014:	03c12983          	lw	s3,60(sp)
30001018:	03812a03          	lw	s4,56(sp)
3000101c:	03412a83          	lw	s5,52(sp)
30001020:	03012b03          	lw	s6,48(sp)
30001024:	02c12b83          	lw	s7,44(sp)
30001028:	02812c03          	lw	s8,40(sp)
3000102c:	02412c83          	lw	s9,36(sp)
30001030:	00048593          	mv	a1,s1
30001034:	04412483          	lw	s1,68(sp)
30001038:	05010113          	addi	sp,sp,80
3000103c:	901ff06f          	j	3000093c <qspi_write_32x16>

30001040 <st7735_wr_data32x32>:
30001040:	f7010113          	addi	sp,sp,-144
30001044:	03112e23          	sw	a7,60(sp)
30001048:	09012883          	lw	a7,144(sp)
3000104c:	08112623          	sw	ra,140(sp)
30001050:	08812423          	sw	s0,136(sp)
30001054:	08912223          	sw	s1,132(sp)
30001058:	09212023          	sw	s2,128(sp)
3000105c:	07312e23          	sw	s3,124(sp)
30001060:	07412c23          	sw	s4,120(sp)
30001064:	07512a23          	sw	s5,116(sp)
30001068:	07612823          	sw	s6,112(sp)
3000106c:	07712623          	sw	s7,108(sp)
30001070:	07812423          	sw	s8,104(sp)
30001074:	07912223          	sw	s9,100(sp)
30001078:	05b12e23          	sw	s11,92(sp)
3000107c:	07a12023          	sw	s10,96(sp)
30001080:	09412403          	lw	s0,148(sp)
30001084:	09812903          	lw	s2,152(sp)
30001088:	09c12983          	lw	s3,156(sp)
3000108c:	0a012a03          	lw	s4,160(sp)
30001090:	0a412a83          	lw	s5,164(sp)
30001094:	0a812b03          	lw	s6,168(sp)
30001098:	0ac12b83          	lw	s7,172(sp)
3000109c:	0b012c03          	lw	s8,176(sp)
300010a0:	0b412c83          	lw	s9,180(sp)
300010a4:	00c12223          	sw	a2,4(sp)
300010a8:	04d12623          	sw	a3,76(sp)
300010ac:	04e12423          	sw	a4,72(sp)
300010b0:	05012023          	sw	a6,64(sp)
300010b4:	03112c23          	sw	a7,56(sp)
300010b8:	00b12023          	sw	a1,0(sp)
300010bc:	04f12223          	sw	a5,68(sp)
300010c0:	0b812d03          	lw	s10,184(sp)
300010c4:	0c412783          	lw	a5,196(sp)
300010c8:	0d812303          	lw	t1,216(sp)
300010cc:	0dc12e03          	lw	t3,220(sp)
300010d0:	00f12423          	sw	a5,8(sp)
300010d4:	0c812783          	lw	a5,200(sp)
300010d8:	0e012e83          	lw	t4,224(sp)
300010dc:	0e412f03          	lw	t5,228(sp)
300010e0:	00f12623          	sw	a5,12(sp)
300010e4:	0cc12783          	lw	a5,204(sp)
300010e8:	0e812f83          	lw	t6,232(sp)
300010ec:	0ec12283          	lw	t0,236(sp)
300010f0:	00f12823          	sw	a5,16(sp)
300010f4:	0d012783          	lw	a5,208(sp)
300010f8:	0f012383          	lw	t2,240(sp)
300010fc:	00052503          	lw	a0,0(a0)
30001100:	00f12a23          	sw	a5,20(sp)
30001104:	0d412783          	lw	a5,212(sp)
30001108:	00100593          	li	a1,1
3000110c:	0bc12d83          	lw	s11,188(sp)
30001110:	0c012483          	lw	s1,192(sp)
30001114:	00f12c23          	sw	a5,24(sp)
30001118:	02612a23          	sw	t1,52(sp)
3000111c:	03c12823          	sw	t3,48(sp)
30001120:	03d12623          	sw	t4,44(sp)
30001124:	03e12423          	sw	t5,40(sp)
30001128:	03f12223          	sw	t6,36(sp)
3000112c:	02512023          	sw	t0,32(sp)
30001130:	00712e23          	sw	t2,28(sp)
30001134:	e44ff0ef          	jal	30000778 <gpio_set_level>
30001138:	01812783          	lw	a5,24(sp)
3000113c:	01c12383          	lw	t2,28(sp)
30001140:	02012283          	lw	t0,32(sp)
30001144:	0cf12823          	sw	a5,208(sp)
30001148:	01412783          	lw	a5,20(sp)
3000114c:	02412f83          	lw	t6,36(sp)
30001150:	02812f03          	lw	t5,40(sp)
30001154:	0cf12623          	sw	a5,204(sp)
30001158:	01012783          	lw	a5,16(sp)
3000115c:	02c12e83          	lw	t4,44(sp)
30001160:	03012e03          	lw	t3,48(sp)
30001164:	0cf12423          	sw	a5,200(sp)
30001168:	00c12783          	lw	a5,12(sp)
3000116c:	03412303          	lw	t1,52(sp)
30001170:	0a912e23          	sw	s1,188(sp)
30001174:	0cf12223          	sw	a5,196(sp)
30001178:	00812783          	lw	a5,8(sp)
3000117c:	0bb12c23          	sw	s11,184(sp)
30001180:	0ba12a23          	sw	s10,180(sp)
30001184:	0cf12023          	sw	a5,192(sp)
30001188:	0b912823          	sw	s9,176(sp)
3000118c:	0b812623          	sw	s8,172(sp)
30001190:	0b712423          	sw	s7,168(sp)
30001194:	0b612223          	sw	s6,164(sp)
30001198:	0b512023          	sw	s5,160(sp)
3000119c:	0e712623          	sw	t2,236(sp)
300011a0:	0e512423          	sw	t0,232(sp)
300011a4:	0ff12223          	sw	t6,228(sp)
300011a8:	0fe12023          	sw	t5,224(sp)
300011ac:	0dd12e23          	sw	t4,220(sp)
300011b0:	0dc12c23          	sw	t3,216(sp)
300011b4:	0c612a23          	sw	t1,212(sp)
300011b8:	09412e23          	sw	s4,156(sp)
300011bc:	08812823          	sw	s0,144(sp)
300011c0:	08812403          	lw	s0,136(sp)
300011c4:	09312c23          	sw	s3,152(sp)
300011c8:	09212a23          	sw	s2,148(sp)
300011cc:	03812883          	lw	a7,56(sp)
300011d0:	03c12803          	lw	a6,60(sp)
300011d4:	04012783          	lw	a5,64(sp)
300011d8:	04412703          	lw	a4,68(sp)
300011dc:	04812683          	lw	a3,72(sp)
300011e0:	04c12603          	lw	a2,76(sp)
300011e4:	00412583          	lw	a1,4(sp)
300011e8:	00012503          	lw	a0,0(sp)
300011ec:	08c12083          	lw	ra,140(sp)
300011f0:	08412483          	lw	s1,132(sp)
300011f4:	08012903          	lw	s2,128(sp)
300011f8:	07c12983          	lw	s3,124(sp)
300011fc:	07812a03          	lw	s4,120(sp)
30001200:	07412a83          	lw	s5,116(sp)
30001204:	07012b03          	lw	s6,112(sp)
30001208:	06c12b83          	lw	s7,108(sp)
3000120c:	06812c03          	lw	s8,104(sp)
30001210:	06412c83          	lw	s9,100(sp)
30001214:	06012d03          	lw	s10,96(sp)
30001218:	05c12d83          	lw	s11,92(sp)
3000121c:	09010113          	addi	sp,sp,144
30001220:	fa0ff06f          	j	300009c0 <qspi_write_32x32>

30001224 <st7735_wr_cmd>:
30001224:	00052503          	lw	a0,0(a0)
30001228:	ff010113          	addi	sp,sp,-16
3000122c:	00812423          	sw	s0,8(sp)
30001230:	00058413          	mv	s0,a1
30001234:	00000593          	li	a1,0
30001238:	00112623          	sw	ra,12(sp)
3000123c:	d3cff0ef          	jal	30000778 <gpio_set_level>
30001240:	00040513          	mv	a0,s0
30001244:	00812403          	lw	s0,8(sp)
30001248:	00c12083          	lw	ra,12(sp)
3000124c:	01010113          	addi	sp,sp,16
30001250:	dfcff06f          	j	3000084c <qspi_write_8>

30001254 <st7735_addr_set>:
30001254:	fe010113          	addi	sp,sp,-32
30001258:	01412423          	sw	s4,8(sp)
3000125c:	00058a13          	mv	s4,a1
30001260:	02a00593          	li	a1,42
30001264:	00112e23          	sw	ra,28(sp)
30001268:	00812c23          	sw	s0,24(sp)
3000126c:	00912a23          	sw	s1,20(sp)
30001270:	00050413          	mv	s0,a0
30001274:	01212823          	sw	s2,16(sp)
30001278:	01312623          	sw	s3,12(sp)
3000127c:	00060913          	mv	s2,a2
30001280:	00068993          	mv	s3,a3
30001284:	00070493          	mv	s1,a4
30001288:	f9dff0ef          	jal	30001224 <st7735_wr_cmd>
3000128c:	01044783          	lbu	a5,16(s0)
30001290:	00040513          	mv	a0,s0
30001294:	00fa05b3          	add	a1,s4,a5
30001298:	01059593          	slli	a1,a1,0x10
3000129c:	0105d593          	srli	a1,a1,0x10
300012a0:	b99ff0ef          	jal	30000e38 <st7735_wr_data16>
300012a4:	01044783          	lbu	a5,16(s0)
300012a8:	00040513          	mv	a0,s0
300012ac:	00f985b3          	add	a1,s3,a5
300012b0:	01059593          	slli	a1,a1,0x10
300012b4:	0105d593          	srli	a1,a1,0x10
300012b8:	b81ff0ef          	jal	30000e38 <st7735_wr_data16>
300012bc:	00040513          	mv	a0,s0
300012c0:	02b00593          	li	a1,43
300012c4:	f61ff0ef          	jal	30001224 <st7735_wr_cmd>
300012c8:	01144783          	lbu	a5,17(s0)
300012cc:	00040513          	mv	a0,s0
300012d0:	00f905b3          	add	a1,s2,a5
300012d4:	01059593          	slli	a1,a1,0x10
300012d8:	0105d593          	srli	a1,a1,0x10
300012dc:	b5dff0ef          	jal	30000e38 <st7735_wr_data16>
300012e0:	01144783          	lbu	a5,17(s0)
300012e4:	00040513          	mv	a0,s0
300012e8:	00f485b3          	add	a1,s1,a5
300012ec:	01059593          	slli	a1,a1,0x10
300012f0:	0105d593          	srli	a1,a1,0x10
300012f4:	b45ff0ef          	jal	30000e38 <st7735_wr_data16>
300012f8:	00040513          	mv	a0,s0
300012fc:	01812403          	lw	s0,24(sp)
30001300:	01c12083          	lw	ra,28(sp)
30001304:	01412483          	lw	s1,20(sp)
30001308:	01012903          	lw	s2,16(sp)
3000130c:	00c12983          	lw	s3,12(sp)
30001310:	00812a03          	lw	s4,8(sp)
30001314:	02c00593          	li	a1,44
30001318:	02010113          	addi	sp,sp,32
3000131c:	f09ff06f          	j	30001224 <st7735_wr_cmd>

30001320 <st7735_fill>:
30001320:	f7010113          	addi	sp,sp,-144
30001324:	07312e23          	sw	s3,124(sp)
30001328:	07412c23          	sw	s4,120(sp)
3000132c:	00070993          	mv	s3,a4
30001330:	00068a13          	mv	s4,a3
30001334:	fff70713          	addi	a4,a4,-1
30001338:	fff68693          	addi	a3,a3,-1 # 3fffff <_ebss-0x3c00001>
3000133c:	01071713          	slli	a4,a4,0x10
30001340:	01069693          	slli	a3,a3,0x10
30001344:	01075713          	srli	a4,a4,0x10
30001348:	0106d693          	srli	a3,a3,0x10
3000134c:	08812423          	sw	s0,136(sp)
30001350:	08912223          	sw	s1,132(sp)
30001354:	07512a23          	sw	s5,116(sp)
30001358:	07612823          	sw	s6,112(sp)
3000135c:	08112623          	sw	ra,140(sp)
30001360:	09212023          	sw	s2,128(sp)
30001364:	00050a93          	mv	s5,a0
30001368:	00058b13          	mv	s6,a1
3000136c:	00060493          	mv	s1,a2
30001370:	00078413          	mv	s0,a5
30001374:	ee1ff0ef          	jal	30001254 <st7735_addr_set>
30001378:	0d34ea63          	bltu	s1,s3,3000144c <st7735_fill+0x12c>
3000137c:	08c12083          	lw	ra,140(sp)
30001380:	08812403          	lw	s0,136(sp)
30001384:	08412483          	lw	s1,132(sp)
30001388:	08012903          	lw	s2,128(sp)
3000138c:	07c12983          	lw	s3,124(sp)
30001390:	07812a03          	lw	s4,120(sp)
30001394:	07412a83          	lw	s5,116(sp)
30001398:	07012b03          	lw	s6,112(sp)
3000139c:	09010113          	addi	sp,sp,144
300013a0:	00008067          	ret
300013a4:	04090913          	addi	s2,s2,64
300013a8:	00812c23          	sw	s0,24(sp)
300013ac:	00812a23          	sw	s0,20(sp)
300013b0:	00812823          	sw	s0,16(sp)
300013b4:	00812623          	sw	s0,12(sp)
300013b8:	00812423          	sw	s0,8(sp)
300013bc:	00812223          	sw	s0,4(sp)
300013c0:	00812023          	sw	s0,0(sp)
300013c4:	00040893          	mv	a7,s0
300013c8:	00040813          	mv	a6,s0
300013cc:	00040793          	mv	a5,s0
300013d0:	00040713          	mv	a4,s0
300013d4:	00040693          	mv	a3,s0
300013d8:	00040613          	mv	a2,s0
300013dc:	00040593          	mv	a1,s0
300013e0:	000a8513          	mv	a0,s5
300013e4:	01091913          	slli	s2,s2,0x10
300013e8:	06812023          	sw	s0,96(sp)
300013ec:	04812e23          	sw	s0,92(sp)
300013f0:	04812c23          	sw	s0,88(sp)
300013f4:	04812a23          	sw	s0,84(sp)
300013f8:	04812823          	sw	s0,80(sp)
300013fc:	04812623          	sw	s0,76(sp)
30001400:	04812423          	sw	s0,72(sp)
30001404:	04812223          	sw	s0,68(sp)
30001408:	04812023          	sw	s0,64(sp)
3000140c:	02812e23          	sw	s0,60(sp)
30001410:	02812c23          	sw	s0,56(sp)
30001414:	02812a23          	sw	s0,52(sp)
30001418:	02812823          	sw	s0,48(sp)
3000141c:	02812623          	sw	s0,44(sp)
30001420:	02812423          	sw	s0,40(sp)
30001424:	02812223          	sw	s0,36(sp)
30001428:	02812023          	sw	s0,32(sp)
3000142c:	00812e23          	sw	s0,28(sp)
30001430:	01095913          	srli	s2,s2,0x10
30001434:	c0dff0ef          	jal	30001040 <st7735_wr_data32x32>
30001438:	f74966e3          	bltu	s2,s4,300013a4 <st7735_fill+0x84>
3000143c:	00148493          	addi	s1,s1,1
30001440:	01049493          	slli	s1,s1,0x10
30001444:	0104d493          	srli	s1,s1,0x10
30001448:	f31ff06f          	j	30001378 <st7735_fill+0x58>
3000144c:	000b0913          	mv	s2,s6
30001450:	fe9ff06f          	j	30001438 <st7735_fill+0x118>

30001454 <st7735_init>:
30001454:	00052783          	lw	a5,0(a0)
30001458:	fe010113          	addi	sp,sp,-32
3000145c:	00912a23          	sw	s1,20(sp)
30001460:	00100493          	li	s1,1
30001464:	00f497b3          	sll	a5,s1,a5
30001468:	00812c23          	sw	s0,24(sp)
3000146c:	00050413          	mv	s0,a0
30001470:	00810513          	addi	a0,sp,8
30001474:	00112e23          	sw	ra,28(sp)
30001478:	00f12423          	sw	a5,8(sp)
3000147c:	00912623          	sw	s1,12(sp)
30001480:	a04ff0ef          	jal	30000684 <gpio_config>
30001484:	00042503          	lw	a0,0(s0)
30001488:	00000593          	li	a1,0
3000148c:	aecff0ef          	jal	30000778 <gpio_set_level>
30001490:	07800513          	li	a0,120
30001494:	e68ff0ef          	jal	30000afc <delay_ms>
30001498:	01100593          	li	a1,17
3000149c:	00040513          	mv	a0,s0
300014a0:	d85ff0ef          	jal	30001224 <st7735_wr_cmd>
300014a4:	07800513          	li	a0,120
300014a8:	e54ff0ef          	jal	30000afc <delay_ms>
300014ac:	0b100593          	li	a1,177
300014b0:	00040513          	mv	a0,s0
300014b4:	d71ff0ef          	jal	30001224 <st7735_wr_cmd>
300014b8:	00048593          	mv	a1,s1
300014bc:	00040513          	mv	a0,s0
300014c0:	949ff0ef          	jal	30000e08 <st7735_wr_data8>
300014c4:	02c00593          	li	a1,44
300014c8:	00040513          	mv	a0,s0
300014cc:	93dff0ef          	jal	30000e08 <st7735_wr_data8>
300014d0:	02d00593          	li	a1,45
300014d4:	00040513          	mv	a0,s0
300014d8:	931ff0ef          	jal	30000e08 <st7735_wr_data8>
300014dc:	0b200593          	li	a1,178
300014e0:	00040513          	mv	a0,s0
300014e4:	d41ff0ef          	jal	30001224 <st7735_wr_cmd>
300014e8:	00048593          	mv	a1,s1
300014ec:	00040513          	mv	a0,s0
300014f0:	919ff0ef          	jal	30000e08 <st7735_wr_data8>
300014f4:	02c00593          	li	a1,44
300014f8:	00040513          	mv	a0,s0
300014fc:	90dff0ef          	jal	30000e08 <st7735_wr_data8>
30001500:	02d00593          	li	a1,45
30001504:	00040513          	mv	a0,s0
30001508:	901ff0ef          	jal	30000e08 <st7735_wr_data8>
3000150c:	0b300593          	li	a1,179
30001510:	00040513          	mv	a0,s0
30001514:	d11ff0ef          	jal	30001224 <st7735_wr_cmd>
30001518:	00048593          	mv	a1,s1
3000151c:	00040513          	mv	a0,s0
30001520:	8e9ff0ef          	jal	30000e08 <st7735_wr_data8>
30001524:	02c00593          	li	a1,44
30001528:	00040513          	mv	a0,s0
3000152c:	8ddff0ef          	jal	30000e08 <st7735_wr_data8>
30001530:	02d00593          	li	a1,45
30001534:	00040513          	mv	a0,s0
30001538:	8d1ff0ef          	jal	30000e08 <st7735_wr_data8>
3000153c:	00048593          	mv	a1,s1
30001540:	00040513          	mv	a0,s0
30001544:	8c5ff0ef          	jal	30000e08 <st7735_wr_data8>
30001548:	02c00593          	li	a1,44
3000154c:	00040513          	mv	a0,s0
30001550:	8b9ff0ef          	jal	30000e08 <st7735_wr_data8>
30001554:	02d00593          	li	a1,45
30001558:	00040513          	mv	a0,s0
3000155c:	8adff0ef          	jal	30000e08 <st7735_wr_data8>
30001560:	0b400593          	li	a1,180
30001564:	00040513          	mv	a0,s0
30001568:	cbdff0ef          	jal	30001224 <st7735_wr_cmd>
3000156c:	00700593          	li	a1,7
30001570:	00040513          	mv	a0,s0
30001574:	895ff0ef          	jal	30000e08 <st7735_wr_data8>
30001578:	30012537          	lui	a0,0x30012
3000157c:	d5050513          	addi	a0,a0,-688 # 30011d50 <img+0x101cc>
30001580:	f6dfe0ef          	jal	300004ec <printf>
30001584:	0c000593          	li	a1,192
30001588:	00040513          	mv	a0,s0
3000158c:	c99ff0ef          	jal	30001224 <st7735_wr_cmd>
30001590:	0a200593          	li	a1,162
30001594:	00040513          	mv	a0,s0
30001598:	871ff0ef          	jal	30000e08 <st7735_wr_data8>
3000159c:	00200593          	li	a1,2
300015a0:	00040513          	mv	a0,s0
300015a4:	865ff0ef          	jal	30000e08 <st7735_wr_data8>
300015a8:	08400593          	li	a1,132
300015ac:	00040513          	mv	a0,s0
300015b0:	859ff0ef          	jal	30000e08 <st7735_wr_data8>
300015b4:	0c100593          	li	a1,193
300015b8:	00040513          	mv	a0,s0
300015bc:	c69ff0ef          	jal	30001224 <st7735_wr_cmd>
300015c0:	0c500593          	li	a1,197
300015c4:	00040513          	mv	a0,s0
300015c8:	841ff0ef          	jal	30000e08 <st7735_wr_data8>
300015cc:	0c200593          	li	a1,194
300015d0:	00040513          	mv	a0,s0
300015d4:	c51ff0ef          	jal	30001224 <st7735_wr_cmd>
300015d8:	00a00593          	li	a1,10
300015dc:	00040513          	mv	a0,s0
300015e0:	829ff0ef          	jal	30000e08 <st7735_wr_data8>
300015e4:	00000593          	li	a1,0
300015e8:	00040513          	mv	a0,s0
300015ec:	81dff0ef          	jal	30000e08 <st7735_wr_data8>
300015f0:	0c300593          	li	a1,195
300015f4:	00040513          	mv	a0,s0
300015f8:	c2dff0ef          	jal	30001224 <st7735_wr_cmd>
300015fc:	08a00593          	li	a1,138
30001600:	00040513          	mv	a0,s0
30001604:	805ff0ef          	jal	30000e08 <st7735_wr_data8>
30001608:	02a00593          	li	a1,42
3000160c:	00040513          	mv	a0,s0
30001610:	ff8ff0ef          	jal	30000e08 <st7735_wr_data8>
30001614:	0c400593          	li	a1,196
30001618:	00040513          	mv	a0,s0
3000161c:	c09ff0ef          	jal	30001224 <st7735_wr_cmd>
30001620:	08a00593          	li	a1,138
30001624:	00040513          	mv	a0,s0
30001628:	fe0ff0ef          	jal	30000e08 <st7735_wr_data8>
3000162c:	0ee00593          	li	a1,238
30001630:	00040513          	mv	a0,s0
30001634:	fd4ff0ef          	jal	30000e08 <st7735_wr_data8>
30001638:	0c500593          	li	a1,197
3000163c:	00040513          	mv	a0,s0
30001640:	be5ff0ef          	jal	30001224 <st7735_wr_cmd>
30001644:	00e00593          	li	a1,14
30001648:	00040513          	mv	a0,s0
3000164c:	fbcff0ef          	jal	30000e08 <st7735_wr_data8>
30001650:	03600593          	li	a1,54
30001654:	00040513          	mv	a0,s0
30001658:	bcdff0ef          	jal	30001224 <st7735_wr_cmd>
3000165c:	30012537          	lui	a0,0x30012
30001660:	d6850513          	addi	a0,a0,-664 # 30011d68 <img+0x101e4>
30001664:	e89fe0ef          	jal	300004ec <printf>
30001668:	00c42783          	lw	a5,12(s0)
3000166c:	0a800593          	li	a1,168
30001670:	00978e63          	beq	a5,s1,3000168c <st7735_init+0x238>
30001674:	00200713          	li	a4,2
30001678:	00800593          	li	a1,8
3000167c:	00e78863          	beq	a5,a4,3000168c <st7735_init+0x238>
30001680:	0c800593          	li	a1,200
30001684:	00078463          	beqz	a5,3000168c <st7735_init+0x238>
30001688:	06800593          	li	a1,104
3000168c:	00040513          	mv	a0,s0
30001690:	f78ff0ef          	jal	30000e08 <st7735_wr_data8>
30001694:	00040513          	mv	a0,s0
30001698:	0e000593          	li	a1,224
3000169c:	b89ff0ef          	jal	30001224 <st7735_wr_cmd>
300016a0:	00040513          	mv	a0,s0
300016a4:	00f00593          	li	a1,15
300016a8:	f60ff0ef          	jal	30000e08 <st7735_wr_data8>
300016ac:	00040513          	mv	a0,s0
300016b0:	01a00593          	li	a1,26
300016b4:	f54ff0ef          	jal	30000e08 <st7735_wr_data8>
300016b8:	00040513          	mv	a0,s0
300016bc:	00f00593          	li	a1,15
300016c0:	f48ff0ef          	jal	30000e08 <st7735_wr_data8>
300016c4:	00040513          	mv	a0,s0
300016c8:	01800593          	li	a1,24
300016cc:	f3cff0ef          	jal	30000e08 <st7735_wr_data8>
300016d0:	00040513          	mv	a0,s0
300016d4:	02f00593          	li	a1,47
300016d8:	f30ff0ef          	jal	30000e08 <st7735_wr_data8>
300016dc:	00040513          	mv	a0,s0
300016e0:	02800593          	li	a1,40
300016e4:	f24ff0ef          	jal	30000e08 <st7735_wr_data8>
300016e8:	00040513          	mv	a0,s0
300016ec:	02000593          	li	a1,32
300016f0:	f18ff0ef          	jal	30000e08 <st7735_wr_data8>
300016f4:	00040513          	mv	a0,s0
300016f8:	02200593          	li	a1,34
300016fc:	f0cff0ef          	jal	30000e08 <st7735_wr_data8>
30001700:	00040513          	mv	a0,s0
30001704:	01f00593          	li	a1,31
30001708:	f00ff0ef          	jal	30000e08 <st7735_wr_data8>
3000170c:	00040513          	mv	a0,s0
30001710:	01b00593          	li	a1,27
30001714:	ef4ff0ef          	jal	30000e08 <st7735_wr_data8>
30001718:	00040513          	mv	a0,s0
3000171c:	02300593          	li	a1,35
30001720:	ee8ff0ef          	jal	30000e08 <st7735_wr_data8>
30001724:	00040513          	mv	a0,s0
30001728:	03700593          	li	a1,55
3000172c:	edcff0ef          	jal	30000e08 <st7735_wr_data8>
30001730:	00040513          	mv	a0,s0
30001734:	00000593          	li	a1,0
30001738:	ed0ff0ef          	jal	30000e08 <st7735_wr_data8>
3000173c:	00040513          	mv	a0,s0
30001740:	00700593          	li	a1,7
30001744:	ec4ff0ef          	jal	30000e08 <st7735_wr_data8>
30001748:	00040513          	mv	a0,s0
3000174c:	00200593          	li	a1,2
30001750:	eb8ff0ef          	jal	30000e08 <st7735_wr_data8>
30001754:	00040513          	mv	a0,s0
30001758:	01000593          	li	a1,16
3000175c:	eacff0ef          	jal	30000e08 <st7735_wr_data8>
30001760:	00040513          	mv	a0,s0
30001764:	0e100593          	li	a1,225
30001768:	abdff0ef          	jal	30001224 <st7735_wr_cmd>
3000176c:	00040513          	mv	a0,s0
30001770:	00f00593          	li	a1,15
30001774:	e94ff0ef          	jal	30000e08 <st7735_wr_data8>
30001778:	00040513          	mv	a0,s0
3000177c:	01b00593          	li	a1,27
30001780:	e88ff0ef          	jal	30000e08 <st7735_wr_data8>
30001784:	00040513          	mv	a0,s0
30001788:	00f00593          	li	a1,15
3000178c:	e7cff0ef          	jal	30000e08 <st7735_wr_data8>
30001790:	00040513          	mv	a0,s0
30001794:	01700593          	li	a1,23
30001798:	e70ff0ef          	jal	30000e08 <st7735_wr_data8>
3000179c:	00040513          	mv	a0,s0
300017a0:	03300593          	li	a1,51
300017a4:	e64ff0ef          	jal	30000e08 <st7735_wr_data8>
300017a8:	00040513          	mv	a0,s0
300017ac:	02c00593          	li	a1,44
300017b0:	e58ff0ef          	jal	30000e08 <st7735_wr_data8>
300017b4:	00040513          	mv	a0,s0
300017b8:	02900593          	li	a1,41
300017bc:	e4cff0ef          	jal	30000e08 <st7735_wr_data8>
300017c0:	00040513          	mv	a0,s0
300017c4:	02e00593          	li	a1,46
300017c8:	e40ff0ef          	jal	30000e08 <st7735_wr_data8>
300017cc:	00040513          	mv	a0,s0
300017d0:	03000593          	li	a1,48
300017d4:	e34ff0ef          	jal	30000e08 <st7735_wr_data8>
300017d8:	00040513          	mv	a0,s0
300017dc:	03000593          	li	a1,48
300017e0:	e28ff0ef          	jal	30000e08 <st7735_wr_data8>
300017e4:	00040513          	mv	a0,s0
300017e8:	03900593          	li	a1,57
300017ec:	e1cff0ef          	jal	30000e08 <st7735_wr_data8>
300017f0:	00040513          	mv	a0,s0
300017f4:	03f00593          	li	a1,63
300017f8:	e10ff0ef          	jal	30000e08 <st7735_wr_data8>
300017fc:	00040513          	mv	a0,s0
30001800:	00000593          	li	a1,0
30001804:	e04ff0ef          	jal	30000e08 <st7735_wr_data8>
30001808:	00040513          	mv	a0,s0
3000180c:	00700593          	li	a1,7
30001810:	df8ff0ef          	jal	30000e08 <st7735_wr_data8>
30001814:	00040513          	mv	a0,s0
30001818:	00300593          	li	a1,3
3000181c:	decff0ef          	jal	30000e08 <st7735_wr_data8>
30001820:	01000593          	li	a1,16
30001824:	00040513          	mv	a0,s0
30001828:	de0ff0ef          	jal	30000e08 <st7735_wr_data8>
3000182c:	30012537          	lui	a0,0x30012
30001830:	d8450513          	addi	a0,a0,-636 # 30011d84 <img+0x10200>
30001834:	cb9fe0ef          	jal	300004ec <printf>
30001838:	00040513          	mv	a0,s0
3000183c:	0f000593          	li	a1,240
30001840:	9e5ff0ef          	jal	30001224 <st7735_wr_cmd>
30001844:	00040513          	mv	a0,s0
30001848:	00100593          	li	a1,1
3000184c:	dbcff0ef          	jal	30000e08 <st7735_wr_data8>
30001850:	00040513          	mv	a0,s0
30001854:	0f600593          	li	a1,246
30001858:	9cdff0ef          	jal	30001224 <st7735_wr_cmd>
3000185c:	00040513          	mv	a0,s0
30001860:	00000593          	li	a1,0
30001864:	da4ff0ef          	jal	30000e08 <st7735_wr_data8>
30001868:	00040513          	mv	a0,s0
3000186c:	03a00593          	li	a1,58
30001870:	9b5ff0ef          	jal	30001224 <st7735_wr_cmd>
30001874:	00040513          	mv	a0,s0
30001878:	00500593          	li	a1,5
3000187c:	d8cff0ef          	jal	30000e08 <st7735_wr_data8>
30001880:	00040513          	mv	a0,s0
30001884:	02900593          	li	a1,41
30001888:	99dff0ef          	jal	30001224 <st7735_wr_cmd>
3000188c:	08000713          	li	a4,128
30001890:	00040513          	mv	a0,s0
30001894:	fff00793          	li	a5,-1
30001898:	00070693          	mv	a3,a4
3000189c:	00000613          	li	a2,0
300018a0:	00000593          	li	a1,0
300018a4:	a7dff0ef          	jal	30001320 <st7735_fill>
300018a8:	30012537          	lui	a0,0x30012
300018ac:	da050513          	addi	a0,a0,-608 # 30011da0 <img+0x1021c>
300018b0:	c3dfe0ef          	jal	300004ec <printf>
300018b4:	01c12083          	lw	ra,28(sp)
300018b8:	01812403          	lw	s0,24(sp)
300018bc:	01412483          	lw	s1,20(sp)
300018c0:	02010113          	addi	sp,sp,32
300018c4:	00008067          	ret

300018c8 <st7735_fill_img>:
300018c8:	fff70713          	addi	a4,a4,-1
300018cc:	fff68693          	addi	a3,a3,-1
300018d0:	00e60733          	add	a4,a2,a4
300018d4:	00d586b3          	add	a3,a1,a3
300018d8:	f8010113          	addi	sp,sp,-128
300018dc:	01071713          	slli	a4,a4,0x10
300018e0:	01069693          	slli	a3,a3,0x10
300018e4:	06812c23          	sw	s0,120(sp)
300018e8:	06912a23          	sw	s1,116(sp)
300018ec:	00078413          	mv	s0,a5
300018f0:	01075713          	srli	a4,a4,0x10
300018f4:	0106d693          	srli	a3,a3,0x10
300018f8:	000084b7          	lui	s1,0x8
300018fc:	07212823          	sw	s2,112(sp)
30001900:	06112e23          	sw	ra,124(sp)
30001904:	00050913          	mv	s2,a0
30001908:	009404b3          	add	s1,s0,s1
3000190c:	949ff0ef          	jal	30001254 <st7735_addr_set>
30001910:	07c42783          	lw	a5,124(s0)
30001914:	00090513          	mv	a0,s2
30001918:	08040413          	addi	s0,s0,128
3000191c:	06f12023          	sw	a5,96(sp)
30001920:	ff842783          	lw	a5,-8(s0)
30001924:	04f12e23          	sw	a5,92(sp)
30001928:	ff442783          	lw	a5,-12(s0)
3000192c:	04f12c23          	sw	a5,88(sp)
30001930:	ff042783          	lw	a5,-16(s0)
30001934:	04f12a23          	sw	a5,84(sp)
30001938:	fec42783          	lw	a5,-20(s0)
3000193c:	04f12823          	sw	a5,80(sp)
30001940:	fe842783          	lw	a5,-24(s0)
30001944:	04f12623          	sw	a5,76(sp)
30001948:	fe442783          	lw	a5,-28(s0)
3000194c:	04f12423          	sw	a5,72(sp)
30001950:	fe042783          	lw	a5,-32(s0)
30001954:	04f12223          	sw	a5,68(sp)
30001958:	fdc42783          	lw	a5,-36(s0)
3000195c:	04f12023          	sw	a5,64(sp)
30001960:	fd842783          	lw	a5,-40(s0)
30001964:	02f12e23          	sw	a5,60(sp)
30001968:	fd442783          	lw	a5,-44(s0)
3000196c:	02f12c23          	sw	a5,56(sp)
30001970:	fd042783          	lw	a5,-48(s0)
30001974:	02f12a23          	sw	a5,52(sp)
30001978:	fcc42783          	lw	a5,-52(s0)
3000197c:	02f12823          	sw	a5,48(sp)
30001980:	fc842783          	lw	a5,-56(s0)
30001984:	02f12623          	sw	a5,44(sp)
30001988:	fc442783          	lw	a5,-60(s0)
3000198c:	02f12423          	sw	a5,40(sp)
30001990:	fc042783          	lw	a5,-64(s0)
30001994:	02f12223          	sw	a5,36(sp)
30001998:	fbc42783          	lw	a5,-68(s0)
3000199c:	02f12023          	sw	a5,32(sp)
300019a0:	fb842783          	lw	a5,-72(s0)
300019a4:	00f12e23          	sw	a5,28(sp)
300019a8:	fb442783          	lw	a5,-76(s0)
300019ac:	00f12c23          	sw	a5,24(sp)
300019b0:	fb042783          	lw	a5,-80(s0)
300019b4:	00f12a23          	sw	a5,20(sp)
300019b8:	fac42783          	lw	a5,-84(s0)
300019bc:	00f12823          	sw	a5,16(sp)
300019c0:	fa842783          	lw	a5,-88(s0)
300019c4:	00f12623          	sw	a5,12(sp)
300019c8:	fa442783          	lw	a5,-92(s0)
300019cc:	00f12423          	sw	a5,8(sp)
300019d0:	fa042783          	lw	a5,-96(s0)
300019d4:	00f12223          	sw	a5,4(sp)
300019d8:	f9c42783          	lw	a5,-100(s0)
300019dc:	00f12023          	sw	a5,0(sp)
300019e0:	f9842883          	lw	a7,-104(s0)
300019e4:	f9442803          	lw	a6,-108(s0)
300019e8:	f9042783          	lw	a5,-112(s0)
300019ec:	f8c42703          	lw	a4,-116(s0)
300019f0:	f8842683          	lw	a3,-120(s0)
300019f4:	f8442603          	lw	a2,-124(s0)
300019f8:	f8042583          	lw	a1,-128(s0)
300019fc:	e44ff0ef          	jal	30001040 <st7735_wr_data32x32>
30001a00:	f08498e3          	bne	s1,s0,30001910 <st7735_fill_img+0x48>
30001a04:	07c12083          	lw	ra,124(sp)
30001a08:	07812403          	lw	s0,120(sp)
30001a0c:	07412483          	lw	s1,116(sp)
30001a10:	07012903          	lw	s2,112(sp)
30001a14:	08010113          	addi	sp,sp,128
30001a18:	00008067          	ret

30001a1c <main>:
30001a1c:	fd010113          	addi	sp,sp,-48
30001a20:	02112623          	sw	ra,44(sp)
30001a24:	c45fe0ef          	jal	30000668 <sys_uart_init>
30001a28:	30012537          	lui	a0,0x30012
30001a2c:	b8450513          	addi	a0,a0,-1148 # 30011b84 <img+0x10000>
30001a30:	abdfe0ef          	jal	300004ec <printf>
30001a34:	00810513          	addi	a0,sp,8
30001a38:	00012423          	sw	zero,8(sp)
30001a3c:	d85fe0ef          	jal	300007c0 <qspi_init>
30001a40:	300025b7          	lui	a1,0x30002
30001a44:	01400613          	li	a2,20
30001a48:	b7058593          	addi	a1,a1,-1168 # 30001b70 <main+0x154>
30001a4c:	00c10513          	addi	a0,sp,12
30001a50:	f28fe0ef          	jal	30000178 <memcpy>
30001a54:	00c10513          	addi	a0,sp,12
30001a58:	9fdff0ef          	jal	30001454 <st7735_init>
30001a5c:	30012537          	lui	a0,0x30012
30001a60:	b9850513          	addi	a0,a0,-1128 # 30011b98 <img+0x10014>
30001a64:	a89fe0ef          	jal	300004ec <printf>
30001a68:	01415703          	lhu	a4,20(sp)
30001a6c:	01015683          	lhu	a3,16(sp)
30001a70:	f80107b7          	lui	a5,0xf8010
30001a74:	80078793          	addi	a5,a5,-2048 # f800f800 <_etext+0xc7ffda50>
30001a78:	00000613          	li	a2,0
30001a7c:	00000593          	li	a1,0
30001a80:	00c10513          	addi	a0,sp,12
30001a84:	89dff0ef          	jal	30001320 <st7735_fill>
30001a88:	00300513          	li	a0,3
30001a8c:	87cff0ef          	jal	30000b08 <delay_s>
30001a90:	30012537          	lui	a0,0x30012
30001a94:	bb050513          	addi	a0,a0,-1104 # 30011bb0 <img+0x1002c>
30001a98:	a55fe0ef          	jal	300004ec <printf>
30001a9c:	01415703          	lhu	a4,20(sp)
30001aa0:	01015683          	lhu	a3,16(sp)
30001aa4:	07e007b7          	lui	a5,0x7e00
30001aa8:	7e078793          	addi	a5,a5,2016 # 7e007e0 <_ebss+0x3e007e0>
30001aac:	00000613          	li	a2,0
30001ab0:	00000593          	li	a1,0
30001ab4:	00c10513          	addi	a0,sp,12
30001ab8:	869ff0ef          	jal	30001320 <st7735_fill>
30001abc:	00300513          	li	a0,3
30001ac0:	848ff0ef          	jal	30000b08 <delay_s>
30001ac4:	30012537          	lui	a0,0x30012
30001ac8:	bc850513          	addi	a0,a0,-1080 # 30011bc8 <img+0x10044>
30001acc:	a21fe0ef          	jal	300004ec <printf>
30001ad0:	01415703          	lhu	a4,20(sp)
30001ad4:	01015683          	lhu	a3,16(sp)
30001ad8:	001f07b7          	lui	a5,0x1f0
30001adc:	01f78793          	addi	a5,a5,31 # 1f001f <_ebss-0x3e0ffe1>
30001ae0:	00000613          	li	a2,0
30001ae4:	00000593          	li	a1,0
30001ae8:	00c10513          	addi	a0,sp,12
30001aec:	835ff0ef          	jal	30001320 <st7735_fill>
30001af0:	00300513          	li	a0,3
30001af4:	814ff0ef          	jal	30000b08 <delay_s>
30001af8:	30012537          	lui	a0,0x30012
30001afc:	be050513          	addi	a0,a0,-1056 # 30011be0 <img+0x1005c>
30001b00:	9edfe0ef          	jal	300004ec <printf>
30001b04:	01415703          	lhu	a4,20(sp)
30001b08:	01015683          	lhu	a3,16(sp)
30001b0c:	300027b7          	lui	a5,0x30002
30001b10:	b8478793          	addi	a5,a5,-1148 # 30001b84 <img>
30001b14:	00000613          	li	a2,0
30001b18:	00000593          	li	a1,0
30001b1c:	00c10513          	addi	a0,sp,12
30001b20:	da9ff0ef          	jal	300018c8 <st7735_fill_img>
30001b24:	00300513          	li	a0,3
30001b28:	fe1fe0ef          	jal	30000b08 <delay_s>
30001b2c:	30012537          	lui	a0,0x30012
30001b30:	bf850513          	addi	a0,a0,-1032 # 30011bf8 <img+0x10074>
30001b34:	9b9fe0ef          	jal	300004ec <printf>
30001b38:	01415703          	lhu	a4,20(sp)
30001b3c:	01015683          	lhu	a3,16(sp)
30001b40:	3000a7b7          	lui	a5,0x3000a
30001b44:	b8478793          	addi	a5,a5,-1148 # 30009b84 <img+0x8000>
30001b48:	00000613          	li	a2,0
30001b4c:	00000593          	li	a1,0
30001b50:	00c10513          	addi	a0,sp,12
30001b54:	d75ff0ef          	jal	300018c8 <st7735_fill_img>
30001b58:	00300513          	li	a0,3
30001b5c:	fadfe0ef          	jal	30000b08 <delay_s>
30001b60:	30012537          	lui	a0,0x30012
30001b64:	c1050513          	addi	a0,a0,-1008 # 30011c10 <img+0x1008c>
30001b68:	985fe0ef          	jal	300004ec <printf>
30001b6c:	0000006f          	j	30001b6c <main+0x150>
30001b70:	0002                	.insn	2, 0x0002
30001b72:	0000                	.insn	2, 0x0000
30001b74:	0080                	.insn	2, 0x0080
30001b76:	0000                	.insn	2, 0x0000
30001b78:	0080                	.insn	2, 0x0080
30001b7a:	0000                	.insn	2, 0x0000
30001b7c:	0000                	.insn	2, 0x0000
30001b7e:	0000                	.insn	2, 0x0000
30001b80:	0302                	.insn	2, 0x0302
	...

30001b84 <img>:
30001b84:	ffff ffff ffff ffff ffff ffff ffff ffff     ................
30001b94:	ffff ffff ffff ffff ffff ffff ffff ffff     ................
30001ba4:	ffff ffff ffff ffff ffff ffff ffff ffff     ................
30001bb4:	ffff ffff ffff ffff ffff ffff ffff ffff     ................
30001bc4:	ffff ffff ffff ffff ffff ffff ffff ffff     ................
30001bd4:	ffff ffff ffff ffff ffff ffff ffff ffff     ................
30001be4:	ffff ffff ffff ffff ffff ffff ffff ffff     ................
30001bf4:	ffff ffff ffff ffff ffff ffff ffff ffff     ................
30001c04:	ffff ffff ffff ffff ffff ffff ffff ffff     ................
30001c14:	ffff ffff ffff ffff ffff ffff ffff ffff     ................
30001c24:	ffff ffff ffff ffff ffff ffff ffff ffff     ................
30001c34:	ffff ffff ffff ffff ffff ffff ffff ffff     ................
30001c44:	ffff ffff ffff ffff ffff ffff ffff ffff     ................
30001c54:	ffff ffff ffff ffff ffff ffff ffff ffff     ................
30001c64:	ffff ffff ffff ffff ffff ffff ffff ffff     ................
30001c74:	ffff ffff ffff ffff ffff ffff ffff ffff     ................
30001c84:	ffff ffff ffff ffff ffff ffff ffff ffff     ................
30001c94:	ffff ffff ffff ffff ffff ffff ffff ffff     ................
30001ca4:	ffff ffff ffff ffff ffff ffff ffff ffff     ................
30001cb4:	ffff ffff ffff ffff ffff ffff ffff ffff     ................
30001cc4:	ffff ffff ffff ffff ffff ffff ffff ffff     ................
30001cd4:	ffff ffff ffff ffff ffff ffff ffff ffff     ................
30001ce4:	ffff ffff ffff ffff ffff ffff ffff ffff     ................
30001cf4:	ffff ffff ffff ffff ffff ffff ffff ffff     ................
30001d04:	ffff ffff ffff ffff ffff ffff ffff ffff     ................
30001d14:	ffff ffff ffff ffff ffff ffff ffff ffff     ................
30001d24:	ffff ffff ffff ffff ffff ffff ffff ffff     ................
30001d34:	ffff ffff ffff ffff ffff ffff ffff ffff     ................
30001d44:	ffff ffff ffff ffff ffff ffff ffff ffff     ................
30001d54:	ffff ffff ffff ffff ffff ffff ffff ffff     ................
30001d64:	ffff ffff ffff ffff ffff ffff ffff ffff     ................
30001d74:	ffff ffff ffff ffff ffff ffff ffff ffff     ................
30001d84:	ffff ffff ffff ffff ffff ffff ffff ffff     ................
30001d94:	ffff ffff ffff ffff ffff ffff ffff ffff     ................
30001da4:	ffff ffff ffff ffff ffff ffff ffff ffff     ................
30001db4:	ffff ffff ffff ffff ffff ffff ffff ffff     ................
30001dc4:	ffff ffff ffff ffff ffff ffff ffff ffff     ................
30001dd4:	ffff ffff ffff ffff ffff ffff ffff ffff     ................
30001de4:	ffff ffff ffff ffff ffff ffff ffff ffff     ................
30001df4:	ffff ffff ffff ffff ffff ffff ffff ffff     ................
30001e04:	ffff ffff ffff ffff ffff ffff ffff ffff     ................
30001e14:	ffff ffff ffff ffff ffff ffff ffff ffff     ................
30001e24:	1231 0a30 11f1 1211 ffff ffff ffff ffff     1.0.............
30001e34:	ffff ffff ffff ffff ffff ffff ffff ffff     ................
30001e44:	ffff ffff ffff ffff ffff ffff ffff ffff     ................
30001e54:	ffff ffff ffff ffff ffff ffff ffff ffff     ................
30001e64:	ffff ffff ffff ffff ffff ffff ffff ffff     ................
30001e74:	ffff ffff ffff ffff ffff ffff ffff ffff     ................
30001e84:	ffff ffff ffff ffff ffff ffff ffff ffff     ................
30001e94:	ffff ffff ffff ffff ffff ffff ffff ffff     ................
30001ea4:	ffff ffff ffff ffff ffff ffff ffff ffff     ................
30001eb4:	ffff ffff ffff ffff ffff ffff ffff ffff     ................
30001ec4:	ffff ffff ffff ffff ffff ffff ffff ffff     ................
30001ed4:	ffff ffff ffff ffff ffff ffff ffff ffff     ................
30001ee4:	ffff ffff ffff ffff ffff ffff ffff ffff     ................
30001ef4:	ffff ffff ffff ffff ffff ffff ffff ffff     ................
30001f04:	ffff ffff ffff ffff ffff ffff ffff ffff     ................
30001f14:	ffff ffff ffff ffff ffff ffff 0a10 0193     ................
30001f24:	1252 1231 1231 1231 1230 1210 ffff 018c     R.1.1.1.0.......
30001f34:	ffff ffff ffff ffff ffff ffff ffff ffff     ................
30001f44:	ffff ffff ffff ffff ffff ffff ffff ffff     ................
30001f54:	ffff ffff ffff ffff ffff ffff ffff ffff     ................
30001f64:	ffff ffff ffff ffff ffff ffff ffff ffff     ................
30001f74:	ffff ffff ffff ffff ffff ffff ffff ffff     ................
30001f84:	ffff ffff ffff ffff ffff ffff ffff ffff     ................
30001f94:	ffff ffff ffff ffff ffff ffff ffff ffff     ................
30001fa4:	ffff ffff ffff ffff ffff ffff ffff ffff     ................
30001fb4:	ffff ffff ffff ffff ffff ffff ffff ffff     ................
30001fc4:	ffff ffff ffff ffff ffff ffff ffff ffff     ................
30001fd4:	ffff ffff ffff ffff ffff ffff ffff ffff     ................
30001fe4:	ffff ffff ffff ffff ffff ffff ffff ffff     ................
30001ff4:	ffff ffff ffff ffff ffff ffff ffff ffff     ................
30002004:	ffff ffff ffff ffff ffff ffff ffff ffff     ................
30002014:	ffff ffff ffff ffff ffff ffff 1210 01ef     ................
30002024:	1252 1253 1252 1231 1252 1231 ffff 0a10     R.S.R.1.R.1.....
30002034:	ffff ffff ffff ffff ffff ffff ffff ffff     ................
30002044:	ffff ffff ffff ffff ffff ffff ffff ffff     ................
30002054:	ffff ffff ffff ffff ffff ffff ffff ffff     ................
30002064:	ffff ffff ffff ffff ffff ffff ffff ffff     ................
30002074:	ffff ffff ffff ffff ffff ffff ffff ffff     ................
30002084:	ffff ffff ffff ffff ffff ffff ffff ffff     ................
30002094:	ffff ffff ffff ffff ffff ffff ffff ffff     ................
300020a4:	ffff ffff ffff ffff ffff ffff ffff ffff     ................
300020b4:	ffff ffff ffff ffff ffff ffff ffff ffff     ................
300020c4:	ffff ffff ffff ffff ffff ffff ffff ffff     ................
300020d4:	ffff ffff ffff ffff ffff ffff ffff ffff     ................
300020e4:	ffff ffff ffff ffff ffff ffff ffff ffff     ................
300020f4:	ffff ffff ffff ffff ffff ffff ffff ffff     ................
30002104:	ffff ffff ffff ffff ffff ffff ffff ffff     ................
30002114:	ffff ffff ffff ffff ffff ffff 1231 02aa     ............1...
30002124:	1231 1231 1210 1210 1253 1231 11af 1211     1.1.....S.1.....
30002134:	ffff ffff ffff ffff ffff ffff ffff ffff     ................
30002144:	ffff ffff ffff ffff ffff ffff ffff ffff     ................
30002154:	ffff ffff ffff ffff ffff ffff ffff ffff     ................
30002164:	ffff ffff ffff ffff ffff ffff ffff ffff     ................
30002174:	ffff ffff ffff ffff ffff ffff ffff ffff     ................
30002184:	ffff ffff ffff ffff ffff ffff ffff ffff     ................
30002194:	ffff ffff ffff ffff ffff ffff ffff ffff     ................
300021a4:	ffff ffff ffff ffff ffff ffff ffff ffff     ................
300021b4:	ffff ffff ffff ffff ffff ffff ffff ffff     ................
300021c4:	ffff ffff ffff ffff ffff ffff ffff ffff     ................
300021d4:	ffff ffff ffff ffff ffff ffff ffff ffff     ................
300021e4:	ffff ffff ffff ffff ffff ffff ffff ffff     ................
300021f4:	ffff ffff ffff ffff 07ff ffff 11ef 11f0     ................
30002204:	ffff ffff ffff ffff ffff ffff ffff ffff     ................
30002214:	ffff ffff ffff ffff ffff ffff 01f7 ffff     ................
30002224:	1231 0a10 1210 1211 1211 1210 1211 1231     1.............1.
30002234:	ffff 09f1 ffff ffff ffff ffff ffff ffff     ................
30002244:	ffff ffff ffff ffff ffff ffff ffff ffff     ................
30002254:	ffff ffff ffff ffff ffff ffff ffff ffff     ................
30002264:	ffff ffff ffff ffff ffff ffff ffff ffff     ................
30002274:	ffff ffff ffff ffff ffff ffff ffff ffff     ................
30002284:	ffff ffff ffff ffff ffff ffff ffff ffff     ................
30002294:	ffff ffff ffff ffff ffff ffff ffff ffff     ................
300022a4:	ffff ffff ffff ffff ffff ffff ffff ffff     ................
300022b4:	ffff ffff ffff ffff ffff ffff ffff ffff     ................
300022c4:	ffff ffff ffff ffff ffff ffff ffff ffff     ................
300022d4:	ffff ffff ffff ffff ffff ffff ffff ffff     ................
300022e4:	ffff ffff ffff ffff ffff ffff ffff ffff     ................
300022f4:	ffff ffff ffff ffff 1a2f ffff 1231 1210     ......../...1...
30002304:	ffff 11f0 ffff ffff ffff ffff ffff ffff     ................
30002314:	ffff ffff ffff ffff ffff ffff ffff ffff     ................
30002324:	1211 09f0 1210 1231 1210 1210 1232 1231     ......1.....2.1.
30002334:	ff0a 1210 0a30 120f ffff 01d1 ffff ffff     ....0...........
30002344:	ffff ffff ffff ffff ffff ffff ffff ffff     ................
30002354:	ffff ffff ffff ffff ffff ffff ffff ffff     ................
30002364:	ffff ffff ffff ffff ffff ffff ffff ffff     ................
30002374:	ffff ffff ffff ffff ffff ffff ffff ffff     ................
30002384:	ffff ffff ffff ffff ffff ffff ffff ffff     ................
30002394:	ffff ffff ffff ffff ffff ffff ffff ffff     ................
300023a4:	ffff ffff ffff ffff ffff ffff ffff ffff     ................
300023b4:	ffff ffff ffff ffff ffff ffff ffff ffff     ................
300023c4:	ffff ffff ffff ffff ffff ffff ffff ffff     ................
300023d4:	ffff ffff ffff ffff ffff ffff ffff ffff     ................
300023e4:	ffff ffff ffff ffff ffff ffff ffff ffff     ................
300023f4:	ffff ffff ffff ffff 1210 ffff 1252 1231     ............R.1.
30002404:	318c 1210 ffff ffff ffff ffff ffff ffff     .1..............
30002414:	ffff ffff ffff ffff ffff ffff ffff ffff     ................
30002424:	1210 ffff 1211 1231 1210 1210 1231 1210     ......1.....1...
30002434:	1210 1210 1232 1231 ffff 0a11 ffff ffff     ....2.1.........
30002444:	ffff ffff ffff ffff ffff ffff ffff ffff     ................
30002454:	ffff ffff ffff ffff ffff ffff ffff ffff     ................
30002464:	ffff ffff ffff ffff ffff ffff ffff ffff     ................
30002474:	ffff ffff ffff ffff ffff ffff ffff ffff     ................
30002484:	ffff ffff ffff ffff ffff ffff ffff ffff     ................
30002494:	ffff ffff ffff ffff ffff ffff ffff ffff     ................
300024a4:	ffff ffff ffff ffff ffff ffff ffff ffff     ................
300024b4:	ffff ffff ffff ffff ffff ffff ffff ffff     ................
300024c4:	ffff ffff ffff ffff ffff ffff ffff ffff     ................
300024d4:	ffff ffff ffff ffff ffff ffff ffff ffff     ................
300024e4:	ffff ffff ffff ffff ffff ffff ffff ffff     ................
300024f4:	ffff ffff ffff ffff 1210 ff0f 1231 1252     ............1.R.
30002504:	1211 1211 ffff ffff ffff ffff ffff ffff     ................
30002514:	ffff ffff ffff ffff ffff ffff ffff ffff     ................
30002524:	1210 11d1 1211 1231 1210 1210 1210 1210     ......1.........
30002534:	1210 1211 1252 1252 ff0f 1211 ffff ffff     ....R.R.........
30002544:	ffff ffff ffff ffff ffff ffff ffff ffff     ................
30002554:	ffff ffff ffff ffff ffff ffff ffff ffff     ................
30002564:	ffff ffff ffff ffff ffff ffff ffff ffff     ................
30002574:	ffff ffff ffff ffff ffff ffff ffff ffff     ................
30002584:	ffff ffff ffff ffff ffff ffff ffff ffff     ................
30002594:	ffff ffff ffff ffff ffff ffff ffff ffff     ................
300025a4:	ffff ffff ffff ffff ffff ffff ffff ffff     ................
300025b4:	ffff ffff ffff ffff ffff ffff ffff ffff     ................
300025c4:	ffff ffff ffff ffff ffff ffff ffff ffff     ................
300025d4:	ffff ffff ffff ffff ffff ffff ffff ffff     ................
300025e4:	ffff ffff ffff ffff ffff ffff ffff ffff     ................
300025f4:	ffff ffff ffff ffff 1210 1210 1231 1231     ............1.1.
30002604:	1211 1232 ffff 018c ffff ffff ffff ffff     ..2.............
30002614:	ffff ffff ffff ffff ffff ffff 09f0 11af     ................
30002624:	1231 1211 1210 1211 1210 1210 1210 1210     1...............
30002634:	1211 1210 1231 1231 022e 1210 ffff ffff     ....1.1.........
30002644:	ffff ffff ffff ffff ffff ffff ffff ffff     ................
30002654:	ffff ffff ffff ffff ffff ffff ffff ffff     ................
30002664:	ffff ffff ffff ffff ffff ffff ffff ffff     ................
30002674:	ffff ffff ffff ffff ffff ffff ffff ffff     ................
30002684:	ffff ffff ffff ffff ffff ffff ffff ffff     ................
30002694:	ffff ffff ffff ffff ffff ffff ffff ffff     ................
300026a4:	ffff ffff ffff ffff ffff ffff ffff ffff     ................
300026b4:	ffff ffff ffff ffff ffff ffff ffff ffff     ................
300026c4:	ffff ffff ffff ffff ffff ffff ffff ffff     ................
300026d4:	ffff ffff ffff ffff ffff ffff ffff ffff     ................
300026e4:	ffff ffff ffff ffff ffff ffff ffff ffff     ................
300026f4:	ffff ffff ff0f ffff 1231 1211 1211 1211     ........1.......
30002704:	1210 1231 ffff 198f ffff ffff ffff ffff     ..1.............
30002714:	ffff ffff 198f 19ef 1231 0a2f 1211 1211     ........1./.....
30002724:	1211 1232 1210 1210 1210 1210 1210 1210     ..2.............
30002734:	1231 1211 1232 1231 11f0 1210 ffff ffff     1...2.1.........
30002744:	ffff ffff ffff ffff ffff ffff ffff ffff     ................
30002754:	ffff ffff ffff ffff ffff ffff ffff ffff     ................
30002764:	ffff ffff ffff ffff ffff ffff ffff ffff     ................
30002774:	ffff ffff ffff ffff ffff ffff ffff ffff     ................
30002784:	ffff ffff ffff ffff ffff ffff ffff ffff     ................
30002794:	ffff ffff ffff ffff ffff ffff ffff ffff     ................
300027a4:	ffff ffff ffff ffff ffff ffff ffff ffff     ................
300027b4:	ffff ffff ffff ffff ffff ffff ffff ffff     ................
300027c4:	ffff ffff ffff ffff ffff ffff ffff ffff     ................
300027d4:	ffff ffff ffff ffff ffff ffff ffff ffff     ................
300027e4:	ffff ffff ffff ffff ffff ffff ffff ffff     ................
300027f4:	ffff ffff 19ef ffff 1231 1210 1210 1211     ........1.......
30002804:	1210 1231 ffff 11ef ffff ffff ffff ffff     ..1.............
30002814:	1231 03ef 1210 1211 1231 1210 1231 1232     1.......1...1.2.
30002824:	1210 1231 1210 1210 1210 1210 1211 1210     ..1.............
30002834:	1231 1231 1231 1210 122e 1210 ffff ffff     1.1.1...........
30002844:	ffff ffff ffff ffff ffff ffff ffff ffff     ................
30002854:	ffff ffff ffff ffff ffff ffff ffff ffff     ................
30002864:	ffff ffff ffff ffff ffff ffff ffff ffff     ................
30002874:	ffff ffff ffff ffff ffff ffff ffff ffff     ................
30002884:	ffff ffff ffff ffff ffff ffff ffff ffff     ................
30002894:	ffff ffff ffff ffff ffff ffff ffff ffff     ................
300028a4:	ffff ffff ffff ffff ffff ffff ffff ffff     ................
300028b4:	ffff ffff ffff ffff ffff ffff ffff ffff     ................
300028c4:	ffff ffff ffff ffff ffff ffff ffff ffff     ................
300028d4:	ffff ffff ffff ffff ffff ffff ffff ffff     ................
300028e4:	ffff ffff ffff ffff ffff ffff ffff ffff     ................
300028f4:	ffff ffff 1a10 ffff 1231 1210 1211 1210     ........1.......
30002904:	1210 1231 ffff 122e ffff ffff 1211 02aa     ..1.............
30002914:	1231 1230 1231 1232 1231 1231 1210 1231     1.0.1.2.1.1...1.
30002924:	1210 1210 1210 1210 1210 1210 1211 1211     ................
30002934:	1211 1231 1231 0a11 ff1f 0a31 ffff ffff     ..1.1.....1.....
30002944:	ffff ffff ffff ffff ffff ffff ffff ffff     ................
30002954:	ffff ffff ffff ffff ffff ffff ffff ffff     ................
30002964:	ffff ffff ffff ffff ffff ffff ffff ffff     ................
30002974:	ffff ffff ffff ffff ffff ffff ffff ffff     ................
30002984:	ffff ffff ffff ffff ffff ffff ffff ffff     ................
30002994:	ffff ffff ffff ffff ffff ffff ffff ffff     ................
300029a4:	ffff ffff ffff ffff ffff ffff ffff ffff     ................
300029b4:	ffff ffff ffff ffff ffff ffff ffff ffff     ................
300029c4:	ffff ffff ffff ffff ffff ffff ffff ffff     ................
300029d4:	ffff ffff ffff ffff ffff ffff ffff ffff     ................
300029e4:	ffff ffff ffff ffff ffff ffff ffff ffff     ................
300029f4:	ffff ffff 1231 03ef 1211 1231 1211 1210     ....1.....1.....
30002a04:	1210 1231 ffff 01e7 1210 09f0 1211 1210     ..1.............
30002a14:	1231 1231 1231 1231 1210 1231 1210 1210     1.1.1.1...1.....
30002a24:	1210 1210 1210 1210 1210 1210 1211 1252     ..............R.
30002a34:	198f 1210 ffff ffff ffff ffff ffff ffff     ................
30002a44:	ffff ffff ffff ffff ffff ffff ffff ffff     ................
30002a54:	ffff ffff ffff ffff ffff ffff ffff ffff     ................
30002a64:	ffff ffff ffff ffff ffff ffff ffff ffff     ................
30002a74:	ffff ffff ffff ffff ffff ffff ffff ffff     ................
30002a84:	ffff ffff ffff ffff ffff ffff ffff ffff     ................
30002a94:	ffff ffff ffff ffff ffff ffff ffff ffff     ................
30002aa4:	ffff ffff ffff ffff ffff ffff ffff ffff     ................
30002ab4:	ffff ffff ffff ffff ffff ffff ffff ffff     ................
30002ac4:	ffff ffff ffff ffff ffff ffff 1271 02b5     ............q...
30002ad4:	1231 1231 ffff 1210 ffff ffff ffff ffff     1.1.............
30002ae4:	ffff ffff ffff ffff ffff ffff ffff ffff     ................
30002af4:	ffff ffff 1210 024d 1211 1231 1210 1210     ......M...1.....
30002b04:	1210 1231 1210 11f0 1231 1231 1232 1231     ..1.....1.1.2.1.
30002b14:	1210 1231 1210 1210 1210 1210 1210 1210     ..1.............
30002b24:	1210 1210 1210 1210 1231 1210 1210 1231     ........1.....1.
30002b34:	ffff ffff ffff ffff ffff ffff ffff ffff     ................
30002b44:	ffff ffff ffff ffff ffff ffff ffff ffff     ................
30002b54:	ffff ffff ffff ffff ffff ffff ffff ffff     ................
30002b64:	ffff ffff ffff ffff ffff ffff ffff ffff     ................
30002b74:	ffff ffff ffff ffff ffff ffff ffff ffff     ................
30002b84:	ffff ffff ffff ffff ffff ffff ffff ffff     ................
30002b94:	ffff ffff ffff ffff ffff ffff ffff ffff     ................
30002ba4:	ffff ffff ffff ffff ffff ffff ffff ffff     ................
30002bb4:	ffff ffff ffff ffff ffff ffff ffff ffff     ................
30002bc4:	09f0 ffff 1211 09f1 1210 1210 1210 1211     ................
30002bd4:	1231 1211 1211 1231 ffff 11f0 ffff ffff     1.....1.........
30002be4:	ffff ffff ffff ffff ffff ffff ffff ffff     ................
30002bf4:	ffff ffff 1211 1210 1210 1231 1210 1210     ..........1.....
30002c04:	1210 1210 1231 1231 1232 1252 1210 1231     ....1.1.2.R...1.
30002c14:	1210 1210 1210 1210 1210 1210 1232 1231     ............2.1.
30002c24:	1231 1252 1210 1210 1231 1231 09cf 1210     1.R.....1.1.....
30002c34:	ffff ffff ffff ffff ffff ffff ffff ffff     ................
30002c44:	ffff ffff ffff ffff ffff ffff ffff ffff     ................
30002c54:	ffff ffff ffff ffff ffff ffff ffff ffff     ................
30002c64:	ffff ffff ffff ffff ffff ffff ffff ffff     ................
30002c74:	ffff ffff ffff ffff ffff ffff ffff ffff     ................
30002c84:	ffff ffff ffff ffff ffff ffff ffff ffff     ................
30002c94:	ffff ffff ffff ffff ffff ffff ffff ffff     ................
30002ca4:	ffff ffff ffff ffff ffff ffff ffff ffff     ................
30002cb4:	ffff ffff 09f0 ff0f 11f0 1211 1210 1210     ................
30002cc4:	1231 1210 1231 1231 1211 1231 1232 1231     1...1.1...1.2.1.
30002cd4:	1232 1252 1231 1232 0a10 1231 ffff 19ce     2.R.1.2...1.....
30002ce4:	ffff ffff ffff ffff ffff ffff ffff ffff     ................
30002cf4:	0a10 02af 1211 1210 1210 1211 1210 1210     ................
30002d04:	1211 1210 1231 1232 1210 1210 1210 1210     ....1.2.........
30002d14:	1210 1210 1210 1210 1232 1231 1231 1231     ........2.1.1.1.
30002d24:	1211 1231 1210 1211 1231 1231 ffff 0a10     ..1.....1.1.....
30002d34:	ffff ffff ffff ffff ffff ffff ffff ffff     ................
30002d44:	ffff ffff ffff ffff ffff ffff ffff ffff     ................
30002d54:	ffff ffff ffff ffff ffff ffff ffff ffff     ................
30002d64:	ffff ffff ffff ffff ffff ffff ffff ffff     ................
30002d74:	ffff ffff ffff ffff ffff ffff ffff ffff     ................
30002d84:	ffff ffff ffff ffff ffff ffff 11d1 ffff     ................
30002d94:	ffff 09f1 ffff ffff ffff ffff ffff ffff     ................
30002da4:	ffff ffff ffff ffff 1210 11f1 11f0 09f0     ................
30002db4:	1231 1210 1231 1210 1231 1231 1211 1211     1...1...1.1.....
30002dc4:	1252 1231 1252 1252 1231 1231 1210 1211     R.1.R.R.1.1.....
30002dd4:	1210 1210 1231 1210 1231 1252 ffff 1231     ....1...1.R...1.
30002de4:	ffff ffff ffff ffff ffff ffff ffff ffff     ................
30002df4:	1211 11f1 1231 1231 1210 1210 1210 1210     ....1.1.........
30002e04:	1210 1210 1210 1210 1210 1210 1210 1210     ................
30002e14:	1210 1210 1232 1231 1231 1231 11f0 1210     ....2.1.1.1.....
30002e24:	0a10 0a0f 1211 1231 1231 1211 0252 1210     ......1.1...R...
30002e34:	ffff ffff ffff ffff ffff ffff ffff ffff     ................
30002e44:	ffff ffff ffff ffff ffff ffff ffff ffff     ................
30002e54:	ffff ffff ffff ffff ffff ffff ffff ffff     ................
30002e64:	ffff ffff ffff ffff ffff ffff ffff ffff     ................
30002e74:	ffff ffff ffff ffff ffff ffff ffff ffff     ................
30002e84:	ffff ffff ffff ffff 0a31 02af 1231 1211     ........1...1...
30002e94:	0a11 1252 ffff 018c ffff ffff 0a10 ffff     ..R.............
30002ea4:	0a11 1210 1210 09f0 1231 1231 1211 1231     ........1.1...1.
30002eb4:	1231 1231 1252 1231 1232 1232 1231 1231     1.1.R.1.2.2.1.1.
30002ec4:	1210 1211 1210 1210 1210 1210 1210 1210     ................
30002ed4:	1210 1210 1210 1210 1232 1231 ffff 1231     ........2.1...1.
30002ee4:	ffff ffff ffff ffff ffff ffff ffff ffff     ................
30002ef4:	1211 11f1 1210 1232 1210 1210 1210 1210     ......2.........
30002f04:	1210 1210 1210 1210 1210 1210 1231 1210     ............1...
30002f14:	1232 1231 1210 1231 1210 1211 ffff ffff     2.1...1.........
30002f24:	1230 ffff 1211 1232 1231 1211 ffff 1210     0.....2.1.......
30002f34:	ffff ffff ffff ffff ffff ffff ffff ffff     ................
30002f44:	ffff ffff ffff ffff ffff ffff ffff ffff     ................
30002f54:	ffff ffff ffff ffff ffff ffff ffff ffff     ................
30002f64:	ffff ffff ffff ffff ffff ffff ffff ffff     ................
30002f74:	ffff ffff ffff ffff ffff ffff ffff ffff     ................
30002f84:	ffff ffff 1210 ffff 1231 1210 1232 1231     ........1...2.1.
30002f94:	1211 1252 11f0 1210 1210 1210 1231 09f0     ..R.........1...
30002fa4:	1231 1231 1211 1211 1252 1252 1231 1232     1.1.....R.R.1.2.
30002fb4:	1231 1231 1210 1211 1210 1210 1210 1210     1.1.............
30002fc4:	1210 1210 1210 1210 1210 1210 1210 1210     ................
30002fd4:	1210 1210 1231 1211 1210 1231 ffff 19d1     ....1.....1.....
30002fe4:	ffff ffff ffff ffff ffff ffff ffff ffff     ................
30002ff4:	1211 1a10 1210 1231 1210 1210 1210 1210     ......1.........
30003004:	1210 1210 1210 1210 1231 1210 1231 1231     ........1...1.1.
30003014:	1231 1232 11f0 1211 ffff ffff ffff ffff     1.2.............
30003024:	1211 03ef 1231 1231 1211 1231 09cf 0a10     ....1.1...1.....
30003034:	1a6f 122e ffff 01ef ffff ffff ffff ffff     o...............
30003044:	ffff ffff ffff ffff ffff ffff 0a10 03ef     ................
30003054:	11f0 1231 11f0 11f0 11f0 11f0 1210 11f0     ..1.............
30003064:	1210 1210 1210 1210 1251 1210 02aa 0a10     ........Q.......
30003074:	ffff ffff ffff ffff ffff ffff ffff ffff     ................
30003084:	03ef ffff 1231 1211 1232 1231 1210 1231     ....1...2.1...1.
30003094:	1231 1210 1210 1210 1210 1210 1232 1210     1...........2...
300030a4:	1231 1232 1211 1231 1210 1210 1210 1210     1.2...1.........
300030b4:	1210 1210 1210 1210 1210 1210 1210 1210     ................
300030c4:	1210 1210 1210 1210 1210 1210 1231 1231     ............1.1.
300030d4:	1231 1231 1232 1231 09f0 1231 ffff ffff     1.1.2.1...1.....
300030e4:	ffff ffff ffff ffff ffff ffff ffff ffff     ................
300030f4:	1231 1210 1210 1231 1210 1210 1210 1210     1.....1.........
30003104:	1210 1210 1231 1210 1231 1231 0a11 1211     ....1...1.1.....
30003114:	1211 1231 ffff ffff ffff ffff ffff ffff     ..1.............
30003124:	1231 03ef 1231 1231 1210 1211 1211 1231     1...1.1.......1.
30003134:	1231 1231 1231 1231 ffff 0a10 ffff ffff     1.1.1.1.........
30003144:	ffff ffff ffff ffff ffff ffff 1210 0a10     ................
30003154:	1210 1231 1210 1210 1210 1210 1210 1210     ..1.............
30003164:	1210 1210 1210 1210 1231 1210 122e 1210     ........1.......
30003174:	ffff ffff ffff ffff ffff ffff ffff ffff     ................
30003184:	1a6f ffff 1252 1210 1210 1231 1210 1210     o...R.....1.....
30003194:	1210 1210 1231 1231 1231 1231 1211 1231     ....1.1.1.1...1.
300031a4:	1210 1211 1210 1210 1210 1210 1210 1210     ................
300031b4:	1210 1210 1210 1210 1210 1210 1210 1210     ................
300031c4:	1211 1210 1231 1231 1231 1231 1231 1231     ....1.1.1.1.1.1.
300031d4:	1210 1210 1211 1211 ffff 11ef ffff ffff     ................
300031e4:	ffff ffff ffff ffff ffff ffff ffff ffff     ................
300031f4:	1231 1211 1210 1231 1210 1210 1210 1210     1.....1.........
30003204:	1211 1210 1231 1231 1231 1211 0155 1230     ....1.1.1...U.0.
30003214:	ffff 02b5 ffff ffff ffff ffff ffff ffff     ................
30003224:	1210 018c 1211 1231 1210 1210 1231 1231     ......1.....1.1.
30003234:	1231 1231 1211 1231 1231 1210 ffff ffff     1.1...1.1.......
30003244:	ffff ffff ffff ffff ffff ffff 1211 11f0     ................
30003254:	1252 1252 1232 1232 1232 1232 1232 1232     R.R.2.2.2.2.2.2.
30003264:	1232 1232 1232 1232 1252 1252 11ce 1210     2.2.2.2.R.R.....
30003274:	ffff ffff ffff ffff ffff ffff ffff ffff     ................
30003284:	2252 ffff 1232 1210 1210 1211 1210 1210     R"..2...........
30003294:	1210 1210 1210 1210 1210 1210 1210 1210     ................
300032a4:	1210 1210 1210 1210 1210 1210 1210 1210     ................
300032b4:	1210 1210 1210 1210 1210 1210 1211 1210     ................
300032c4:	1231 1231 1210 1231 1231 1210 1211 1211     1.1...1.1.......
300032d4:	0a30 1210 11ef 11f1 ffff ffff ffff ffff     0...............
300032e4:	ffff ffff ffff ffff ffff ffff ffff ffff     ................
300032f4:	1231 1210 1210 1231 1210 1210 1211 1210     1.....1.........
30003304:	1231 1211 1231 1211 1231 1211 ffff ffff     1...1...1.......
30003314:	ffff ffff ffff ffff ffff ffff ffff ffff     ................
30003324:	11f0 01ef 1211 1231 1210 1210 1231 1211     ......1.....1...
30003334:	1231 1231 1232 1231 120f 1231 ffff ffff     1.1.2.1...1.....
30003344:	ffff ffff ffff ffff ffff ffff 1210 11af     ................
30003354:	1210 1231 1210 1210 1210 1210 1231 1210     ..1.........1...
30003364:	1231 1231 1231 1231 1252 1231 1231 1210     1.1.1.1.R.1.1...
30003374:	ffff ffff ffff ffff ffff ffff ffff ffff     ................
30003384:	ff1f ffff 1211 1210 1210 1231 1210 1210     ..........1.....
30003394:	1210 1210 1210 1210 1210 1210 1210 1210     ................
300033a4:	1210 1210 1210 1210 1210 1210 1210 1210     ................
300033b4:	1210 1210 1210 1210 1210 1210 1231 1211     ............1...
300033c4:	1211 1210 1230 1231 1230 1231 ffff 122e     ....0.1.0.1.....
300033d4:	ffff ffff ffff ffff ffff ffff ffff ffff     ................
300033e4:	ffff ffff ffff ffff ffff ffff 01ef ffff     ................
300033f4:	1232 1211 1210 1231 1210 1210 1231 1211     2.....1.....1...
30003404:	1211 1231 09f0 0a31 ffff ffff ffff ffff     ..1...1.........
30003414:	ffff ffff ffff ffff ffff ffff ffff ffff     ................
30003424:	11f0 3333 1211 1231 1210 1210 1210 1210     ..33..1.........
30003434:	1210 1210 1231 1210 1210 1210 ffff ffff     ....1...........
30003444:	ffff ffff ffff ffff ffff ffff 11cf ffff     ................
30003454:	1210 1251 11f0 11f0 11f0 11f0 1211 0a10     ..Q.............
30003464:	1211 1211 1211 1211 1252 1211 02b5 1231     ........R.....1.
30003474:	ffff ffff ffff ffff ffff ffff ffff ffff     ................
30003484:	ffff ffff 1210 09ef 1210 1231 1210 1210     ..........1.....
30003494:	1210 1210 1210 1210 1210 1210 1210 1210     ................
300034a4:	1210 1210 1210 1210 1210 1210 1210 1210     ................
300034b4:	1210 1210 1210 1210 1231 1210 1231 1210     ........1...1...
300034c4:	11f0 1231 ffff 09f0 ffff ffff ffff ffff     ..1.............
300034d4:	ffff ffff ffff ffff ffff ffff ffff ffff     ................
300034e4:	ffff ffff ffff ffff ffff ffff 014f ffff     ............O...
300034f4:	1232 1210 1210 1231 1231 1210 1231 1232     2.....1.1...1.2.
30003504:	09ef 1231 ffff ffff ffff ffff ffff ffff     ..1.............
30003514:	ffff ffff ffff ffff ffff ffff ffff ffff     ................
30003524:	1210 3333 1210 1231 1210 1210 1210 1211     ..33..1.........
30003534:	1210 1210 1232 1231 0252 1211 ffff ffff     ....2.1.R.......
30003544:	ffff ffff ffff ffff ffff ffff 1210 2271     ..............q"
30003554:	11f0 1210 11f0 11f0 11f0 11f0 0a10 1210     ................
30003564:	0a10 0a10 1210 0a10 1231 1210 03ef 1210     ........1.......
30003574:	ffff ffff ffff ffff ffff ffff ffff ffff     ................
30003584:	ffff ffff 1210 01ef 1231 1252 1210 1210     ........1.R.....
30003594:	1210 1210 1210 1210 1210 1210 1210 1210     ................
300035a4:	1210 1210 1210 1210 1210 1210 1210 1210     ................
300035b4:	1210 1210 1210 1210 1231 1211 09ef 1210     ........1.......
300035c4:	ffff ffff ffff ffff ffff ffff ffff ffff     ................
300035d4:	ffff ffff ffff ffff ffff ffff ffff ffff     ................
300035e4:	ffff ffff ffff ffff ffff ffff ff0f ffff     ................
300035f4:	1231 1210 1231 1211 1252 1231 1210 1231     1...1...R.1...1.
30003604:	ffff 018c ffff ffff ffff ffff ffff ffff     ................
30003614:	ffff ffff ffff ffff ffff ffff 0a31 ffff     ............1...
30003624:	1231 1210 1210 1231 1210 1210 1210 1210     1.....1.........
30003634:	1210 1210 1231 1231 ffff 1230 ffff ffff     ....1.1...0.....
30003644:	ffff ffff ffff ffff ffff ffff 1231 1211     ............1...
30003654:	1231 1252 1231 1231 1231 1231 1231 1231     1.R.1.1.1.1.1.1.
30003664:	1231 1231 1232 1232 1252 1232 198f 1211     1.1.2.2.R.2.....
30003674:	ffff ffff ffff ffff ffff ffff ffff ffff     ................
30003684:	ffff ffff 1231 ffff 1231 1231 1210 1210     ....1...1.1.....
30003694:	1210 1210 1210 1210 1210 1210 1210 1210     ................
300036a4:	1210 1210 1210 1210 1210 1210 1210 1210     ................
300036b4:	1210 1210 1210 1210 1211 1231 ffff 1210     ..........1.....
300036c4:	ffff ffff ffff ffff ffff ffff ffff ffff     ................
300036d4:	ffff ffff ffff ffff ffff ffff ffff ffff     ................
300036e4:	ffff ffff ffff ffff ffff ffff ffff ffff     ................
300036f4:	19ce ffff 1273 1211 1231 1231 ffff 1210     ....s...1.1.....
30003704:	ffff ffff ffff ffff ffff ffff ffff ffff     ................
30003714:	ffff ffff ffff ffff 39ef ffff 1231 1210     .........9..1...
30003724:	1231 1231 1210 1210 1210 1211 1231 1210     1.1.........1...
30003734:	1211 1210 1210 1231 ffff 11af ffff ffff     ......1.........
30003744:	ffff ffff ffff ffff ffff ffff 1231 0a31     ............1.1.
30003754:	1252 1253 1252 1252 1252 1252 1232 1232     R.S.R.R.R.R.2.2.
30003764:	1232 1232 1232 1232 1273 1252 11ce 1210     2.2.2.2.s.R.....
30003774:	ffff ffff ffff ffff ffff ffff ffff ffff     ................
30003784:	ffff ffff ffff ffff 1231 11f0 1210 1231     ........1.....1.
30003794:	1210 1210 1210 1210 1210 1210 1210 1210     ................
300037a4:	1210 1210 1210 1210 1210 1210 1210 1210     ................
300037b4:	1210 1210 1211 1210 1210 1211 ffff 19ef     ................
300037c4:	ffff ffff ffff ffff ffff ffff ffff ffff     ................
300037d4:	ffff ffff ffff ffff ffff ffff ffff ffff     ................
300037e4:	ffff ffff ffff ffff ffff ffff ffff ffff     ................
300037f4:	ffff ffff 1252 0a31 120f 1231 ffff ffff     ....R.1...1.....
30003804:	ffff ffff ffff ffff ffff ffff ffff ffff     ................
30003814:	ffff ffff ffff ffff 1231 ffff 1252 1210     ........1...R...
30003824:	1210 1232 1211 1210 1210 1231 1231 1210     ..2.......1.1...
30003834:	1211 1211 1210 1231 ffff 212d ffff ffff     ......1...-!....
30003844:	ffff ffff ffff ffff ffff ffff 1211 1210     ................
30003854:	1210 1231 1210 1210 1211 1210 1231 1231     ..1.........1.1.
30003864:	1210 1210 1210 1210 1231 1210 11ef 1210     ........1.......
30003874:	ffff ffff ffff ffff ffff ffff ffff ffff     ................
30003884:	ffff ffff ffff ffff 1210 122e 1210 1232     ..............2.
30003894:	1210 1210 1210 1210 1210 1210 1210 1210     ................
300038a4:	1210 1210 1210 1210 1210 1210 1210 1210     ................
300038b4:	1210 1210 1231 1210 1210 1231 ffff ffff     ....1.....1.....
300038c4:	ffff ffff ffff ffff ffff ffff ffff ffff     ................
300038d4:	ffff ffff ffff ffff ffff ffff ffff ffff     ................
300038e4:	ffff ffff ffff ffff ffff ffff ffff ffff     ................
300038f4:	ffff ffff 19ef ffff ffff ffff ffff ffff     ................
30003904:	ffff ffff ffff ffff ffff ffff ffff ffff     ................
30003914:	ffff ffff ffff ffff 1211 ff0f 1231 1231     ............1.1.
30003924:	1210 1210 1210 1210 1211 1210 1210 1210     ................
30003934:	1211 1210 1210 1231 ffff 11af ffff ffff     ......1.........
30003944:	ffff ffff ffff ffff ffff ffff 1230 122e     ............0...
30003954:	1210 1211 11f0 11f0 1210 11f0 1210 1210     ................
30003964:	1210 1211 1210 1210 1231 1211 11ef 1210     ........1.......
30003974:	ffff ffff ffff ffff ffff ffff ffff ffff     ................
30003984:	ffff ffff ffff ffff 1210 02aa 1211 1231     ..............1.
30003994:	1210 1210 1210 1210 1210 1210 1210 1210     ................
300039a4:	1210 1210 1210 1210 1210 1210 1210 1210     ................
300039b4:	1210 1210 1252 1231 1231 1232 ffff 01ef     ....R.1.1.2.....
300039c4:	ffff ffff ffff ffff ffff ffff ffff ffff     ................
300039d4:	ffff ffff ffff ffff ffff ffff ffff ffff     ................
300039e4:	ffff ffff ffff ffff ffff ffff ffff ffff     ................
300039f4:	ffff ffff ffff ffff ffff ffff ffff ffff     ................
30003a04:	ffff ffff ffff ffff ffff ffff ffff ffff     ................
30003a14:	ffff ffff ffff ffff 1210 19ce 1210 1232     ..............2.
30003a24:	1210 1210 1210 1210 1231 1210 1210 1231     ........1.....1.
30003a34:	1210 1210 1210 1231 ffff 19f1 ffff ffff     ......1.........
30003a44:	ffff ffff ffff ffff ffff ffff ffff ffff     ................
30003a54:	ffff ffff ffff ffff ffff ffff 1210 198f     ................
30003a64:	1211 1231 1210 1210 1231 1211 11ef 1210     ..1.....1.......
30003a74:	ffff ffff ffff ffff ffff ffff ffff ffff     ................
30003a84:	ffff ffff ffff ffff 11f1 ffff 1231 1211     ............1...
30003a94:	1210 1210 1210 1210 1210 1210 1210 1210     ................
30003aa4:	1210 1210 1210 1210 1210 1210 1210 1210     ................
30003ab4:	1231 1231 1231 1231 1211 1231 ffff 07ff     1.1.1.1...1.....
30003ac4:	ffff ffff ffff ffff ffff ffff ffff ffff     ................
30003ad4:	ffff ffff ffff ffff ffff ffff ffff ffff     ................
30003ae4:	ffff ffff ffff ffff ffff ffff ffff ffff     ................
30003af4:	ffff ffff ffff ffff ffff ffff ffff ffff     ................
30003b04:	ffff ffff ffff ffff ffff ffff ffff ffff     ................
30003b14:	ffff ffff ffff ffff 1211 1210 1210 1231     ..............1.
30003b24:	1210 1210 1210 1210 1210 1210 1210 1210     ................
30003b34:	1210 1210 1210 1231 ffff 1271 ffff ffff     ......1...q.....
30003b44:	ffff ffff ffff ffff ffff ffff ffff ffff     ................
30003b54:	ffff ffff ffff ffff ffff ffff 1210 ff0f     ................
30003b64:	1211 1231 1210 1210 1231 1211 11ef 1210     ..1.....1.......
30003b74:	ffff ffff ffff ffff ffff ffff ffff ffff     ................
30003b84:	ffff ffff ffff ffff ff0a ffff 1232 1210     ............2...
30003b94:	1210 1231 1210 1210 1210 1210 1210 1210     ..1.............
30003ba4:	1210 1210 1210 1210 1211 1210 1231 1231     ............1.1.
30003bb4:	1232 1231 0a10 1231 ffff ffff ffff ffff     2.1...1.........
30003bc4:	ffff ffff ffff ffff ffff ffff ffff ffff     ................
30003bd4:	ffff ffff ffff ffff ffff ffff ffff ffff     ................
30003be4:	ffff ffff ffff ffff ffff ffff ffff ffff     ................
30003bf4:	ffff ffff ffff ffff ffff ffff ffff ffff     ................
30003c04:	ffff ffff ffff ffff ffff ffff ffff ffff     ................
30003c14:	ffff ffff 1171 ffff 1231 1210 1210 1210     ....q...1.......
30003c24:	1210 1210 1210 1210 1210 1210 1210 1210     ................
30003c34:	1231 1210 1231 1231 ffff ffff ffff ffff     1...1.1.........
30003c44:	ffff ffff ffff ffff ffff ffff ffff ffff     ................
30003c54:	ffff ffff ffff ffff ffff ffff 1210 018c     ................
30003c64:	1211 1231 1210 1210 1231 1211 11ef 1210     ..1.....1.......
30003c74:	ffff ffff ffff ffff ffff ffff ffff ffff     ................
30003c84:	ffff ffff ffff ffff ffff ffff 1231 09f0     ............1...
30003c94:	1231 1252 1210 1210 1210 1210 1210 1210     1.R.............
30003ca4:	1210 1210 1211 1210 1231 1231 1211 1231     ........1.1...1.
30003cb4:	1231 1211 ffff 1230 ffff ffff ffff ffff     1.....0.........
30003cc4:	ffff ffff ffff ffff ffff ffff ffff ffff     ................
30003cd4:	ffff ffff ffff ffff ffff ffff ffff ffff     ................
30003ce4:	ffff ffff ffff ffff ffff ffff ffff ffff     ................
30003cf4:	ffff ffff ffff ffff ffff ffff ffff ffff     ................
30003d04:	ffff ffff ffff ffff ffff ffff ffff ffff     ................
30003d14:	ffff ffff 1210 ffff 1231 1231 1210 1210     ........1.1.....
30003d24:	1210 1210 1210 1210 1210 1210 1210 1210     ................
30003d34:	1231 1210 2233 1210 ffff ffff ffff ffff     1...3"..........
30003d44:	ffff ffff ffff ffff ffff ffff ffff ffff     ................
30003d54:	ffff ffff ffff ffff ffff ffff 1210 018c     ................
30003d64:	1211 1231 1210 1210 1231 1211 11ef 1210     ..1.....1.......
30003d74:	ffff ffff ffff ffff ffff ffff ffff ffff     ................
30003d84:	ffff ffff ffff ffff ffff ffff 1210 ffff     ................
30003d94:	1231 1231 1210 1231 1210 1210 1210 1210     1.1...1.........
30003da4:	1211 1210 1231 1231 1211 1231 1230 1210     ....1.1...1.0...
30003db4:	018c 11ef ffff ffff ffff ffff ffff ffff     ................
30003dc4:	ffff ffff ffff ffff ffff ffff ffff ffff     ................
30003dd4:	ffff ffff ffff ffff ffff ffff ffff ffff     ................
30003de4:	ffff ffff ffff ffff ffff ffff ffff ffff     ................
30003df4:	ffff ffff ffff ffff ffff ffff ffff ffff     ................
30003e04:	ffff ffff ffff ffff ffff ffff ffff ffff     ................
30003e14:	ffff ffff 1230 018c 1211 1231 1210 1210     ....0.....1.....
30003e24:	1210 1210 1210 1210 1210 1210 1210 1210     ................
30003e34:	1211 1231 ffff 11f0 ffff ffff ffff ffff     ..1.............
30003e44:	ffff ffff ffff ffff ffff ffff ffff ffff     ................
30003e54:	ffff ffff ffff ffff ffff ffff 1210 018c     ................
30003e64:	1211 1231 1210 1210 1231 1211 11ef 1210     ..1.....1.......
30003e74:	ffff ffff ffff ffff ffff ffff ffff ffff     ................
30003e84:	ffff ffff ffff ffff ffff ffff ffff ffff     ................
30003e94:	1211 11ef 1231 1231 1211 1211 1231 1231     ....1.1.....1.1.
30003ea4:	1231 1231 1211 1211 1211 0a31 ffff 11d1     1.1.......1.....
30003eb4:	ffff ffff ffff ffff ffff ffff ffff ffff     ................
30003ec4:	ffff ffff ffff ffff ffff ffff ffff ffff     ................
30003ed4:	ffff ffff ffff ffff ffff ffff ffff ffff     ................
30003ee4:	ffff ffff ffff ffff ffff ffff ffff ffff     ................
30003ef4:	ffff ffff ffff ffff ffff ffff ffff ffff     ................
30003f04:	ffff ffff ffff ffff ffff ffff ffff ffff     ................
30003f14:	ffff ffff 1210 09f0 1210 1231 1210 1210     ..........1.....
30003f24:	1210 1210 1210 1210 1210 1210 1211 1210     ................
30003f34:	1211 1232 ffff 01ef ffff ffff ffff ffff     ..2.............
30003f44:	ffff ffff ffff ffff ffff ffff ffff ffff     ................
30003f54:	ffff ffff ffff ffff ffff ffff 1210 018c     ................
30003f64:	1211 1231 1210 1210 1231 1211 11ef 1210     ..1.....1.......
30003f74:	ffff ffff ffff ffff ffff ffff ffff ffff     ................
30003f84:	ffff ffff ffff ffff ffff ffff ffff ffff     ................
30003f94:	11cf ffff 1231 1211 1232 1252 1210 1231     ....1...2.R...1.
30003fa4:	1231 1211 11f1 1231 ffff 02af ffff ffff     1.....1.........
30003fb4:	ffff ffff ffff ffff ffff ffff ffff ffff     ................
30003fc4:	ffff ffff ffff ffff ffff ffff ffff ffff     ................
30003fd4:	ffff ffff ffff ffff ffff ffff ffff ffff     ................
30003fe4:	ffff ffff ffff ffff ffff ffff ffff ffff     ................
30003ff4:	ffff ffff ffff ffff ffff ffff ffff ffff     ................
30004004:	ffff ffff ffff ffff ffff ffff ffff ffff     ................
30004014:	ffff ffff 1210 1251 1210 1231 1210 1210     ......Q...1.....
30004024:	1210 1210 1210 1210 1210 1210 1210 1210     ................
30004034:	1211 1231 1230 0a31 ffff ffff ffff ffff     ..1.0.1.........
30004044:	ffff ffff ffff ffff ffff ffff ffff ffff     ................
30004054:	ffff ffff ffff ffff ffff ffff 1210 018c     ................
30004064:	1211 1231 1210 1210 1231 1211 11ef 1210     ..1.....1.......
30004074:	ffff ffff ffff ffff ffff ffff ffff ffff     ................
30004084:	ffff ffff ffff ffff ffff ffff ffff ffff     ................
30004094:	ffff ffff 1211 1230 1231 1231 1210 1231     ......0.1.1...1.
300040a4:	11f1 0a31 ffff ffff ffff ffff ffff ffff     ..1.............
300040b4:	ffff ffff ffff ffff ffff ffff ffff ffff     ................
300040c4:	ffff ffff ffff ffff ffff ffff ffff ffff     ................
300040d4:	ffff ffff ffff ffff ffff ffff ffff ffff     ................
300040e4:	ffff ffff ffff ffff ffff ffff ffff ffff     ................
300040f4:	ffff ffff ffff ffff ffff ffff ffff ffff     ................
30004104:	ffff ffff ffff ffff ffff ffff ffff ffff     ................
30004114:	ffff ffff 1231 1250 1210 1231 1210 1210     ....1.P...1.....
30004124:	1210 1210 1210 1210 1210 1210 1211 1210     ................
30004134:	1210 1231 1210 1231 ffff 01ef ffff ffff     ..1...1.........
30004144:	ffff ffff ffff ffff ffff ffff ffff ffff     ................
30004154:	ffff ffff ffff ffff ffff ffff 1210 ffff     ................
30004164:	1231 1231 1210 1210 1231 1211 11ef 1210     1.1.....1.......
30004174:	ffff ffff ffff ffff ffff ffff ffff ffff     ................
30004184:	ffff ffff ffff ffff ffff ffff ffff ffff     ................
30004194:	ffff ffff 012d ffff 11f0 0a31 ffff 02b5     ....-.....1.....
300041a4:	ffff ffff ffff ffff ffff ffff ffff ffff     ................
300041b4:	ffff ffff ffff ffff ffff ffff ffff ffff     ................
300041c4:	ffff ffff ffff ffff ffff ffff ffff ffff     ................
300041d4:	ffff ffff ffff ffff ffff ffff ffff ffff     ................
300041e4:	ffff ffff ffff ffff ffff ffff ffff ffff     ................
300041f4:	ffff ffff ffff ffff ffff ffff ffff ffff     ................
30004204:	ffff ffff ffff ffff ffff ffff ffff ffff     ................
30004214:	ffff ffff 1210 1210 1210 1231 1210 1210     ..........1.....
30004224:	1210 1210 1210 1210 1210 1210 1232 1232     ............2.2.
30004234:	1210 1211 0a10 1232 ffff ff1f ffff ffff     ......2.........
30004244:	ffff ffff ffff ffff ffff ffff ffff ffff     ................
30004254:	ffff ffff ffff ffff ffff ffff 1210 ffff     ................
30004264:	1231 1231 1210 1210 1231 1211 11ef 1210     1.1.....1.......
30004274:	ffff ffff ffff ffff ffff ffff ffff ffff     ................
30004284:	ffff ffff ffff ffff ffff ffff ffff ffff     ................
30004294:	ffff ffff ffff ffff ffff ffff ffff ffff     ................
300042a4:	ffff ffff ffff ffff ffff ffff ffff ffff     ................
300042b4:	ffff ffff ffff ffff ffff ffff ffff ffff     ................
300042c4:	ffff ffff ffff ffff ffff ffff ffff ffff     ................
300042d4:	ffff ffff ffff ffff ffff ffff ffff ffff     ................
300042e4:	ffff ffff ffff ffff ffff ffff ffff ffff     ................
300042f4:	ffff ffff ffff ffff ffff ffff ffff ffff     ................
30004304:	ffff ffff ffff ffff ffff ffff ffff ffff     ................
30004314:	ffff ffff 1210 02af 1211 1231 1210 1210     ..........1.....
30004324:	1210 1210 1210 1210 1211 1211 1211 1231     ..............1.
30004334:	ffff 1210 ffff ffff ffff ffff ffff ffff     ................
30004344:	ffff ffff ffff ffff ffff ffff ffff ffff     ................
30004354:	ffff ffff ffff ffff ffff ffff 1210 ffff     ................
30004364:	1231 1231 1210 1210 1231 1211 11ef 1210     1.1.....1.......
30004374:	ffff ffff ffff ffff ffff ffff ffff ffff     ................
30004384:	ffff ffff ffff ffff ffff ffff ffff ffff     ................
30004394:	ffff ffff ffff ffff ffff ffff ffff ffff     ................
300043a4:	ffff ffff ffff ffff ffff ffff ffff ffff     ................
300043b4:	ffff ffff ffff ffff ffff ffff ffff ffff     ................
300043c4:	ffff ffff ffff ffff ffff ffff ffff ffff     ................
300043d4:	ffff ffff ffff ffff ffff ffff ffff ffff     ................
300043e4:	ffff ffff ffff ffff ffff ffff ffff ffff     ................
300043f4:	ffff ffff ffff ffff ffff ffff ffff ffff     ................
30004404:	ffff ffff ffff ffff ffff ffff ffff ffff     ................
30004414:	ffff ffff 1231 01e7 1211 1232 1210 1210     ....1.....2.....
30004424:	1210 1210 1210 1210 1211 1231 ffff 1210     ..........1.....
30004434:	ffff ffff ffff ffff ffff ffff ffff ffff     ................
30004444:	ffff ffff ffff ffff ffff ffff ffff ffff     ................
30004454:	ffff ffff ffff ffff ffff ffff 1210 ffff     ................
30004464:	1231 1231 1210 1210 1231 1211 11ef 1210     1.1.....1.......
30004474:	ffff ffff ffff ffff ffff ffff ffff ffff     ................
30004484:	ffff ffff ffff ffff ffff ffff ffff ffff     ................
30004494:	ffff ffff ffff ffff ffff ffff ffff ffff     ................
300044a4:	ffff ffff ffff ffff ffff ffff ffff ffff     ................
300044b4:	ffff ffff ffff ffff ffff ffff ffff ffff     ................
300044c4:	ffff ffff ffff ffff ffff ffff ffff ffff     ................
300044d4:	ffff ffff ffff ffff ffff ffff ffff ffff     ................
300044e4:	ffff ffff ffff ffff ffff ffff ffff ffff     ................
300044f4:	ffff ffff ffff ffff ffff ffff ffff ffff     ................
30004504:	ffff ffff ffff ffff ffff ffff ffff ffff     ................
30004514:	ffff ffff 1231 ffff 1231 1231 1210 1210     ....1...1.1.....
30004524:	1210 1210 1210 1210 1211 1231 ffff 0193     ..........1.....
30004534:	ffff ffff ffff ffff ffff ffff ffff ffff     ................
30004544:	ffff ffff ffff ffff ffff ffff ffff ffff     ................
30004554:	ffff ffff ffff ffff ffff ffff 1210 ffff     ................
30004564:	1231 1231 1210 1210 1231 1211 11ef 1210     1.1.....1.......
30004574:	ffff ffff ffff ffff ffff ffff ffff ffff     ................
30004584:	ffff ffff ffff ffff ffff ffff ffff ffff     ................
30004594:	ffff ffff ffff ffff ffff ffff ffff ffff     ................
300045a4:	ffff ffff ffff ffff ffff ffff ffff ffff     ................
300045b4:	ffff ffff ffff ffff ffff ffff ffff ffff     ................
300045c4:	ffff ffff ffff ffff ffff ffff ffff ffff     ................
300045d4:	ffff ffff ffff ffff ffff ffff ffff ffff     ................
300045e4:	ffff ffff ffff ffff ffff ffff ffff ffff     ................
300045f4:	ffff ffff ffff ffff ffff ffff ffff ffff     ................
30004604:	ffff ffff ffff ffff ffff ffff ffff ffff     ................
30004614:	ffff ffff 78ff ffff 1231 1210 1210 1211     .....x..1.......
30004624:	1210 1210 1211 1210 1231 1231 01ef 018c     ........1.1.....
30004634:	ffff 02aa ffff ffff ffff ffff ffff ffff     ................
30004644:	ffff ffff ffff ffff ffff ffff ffff ffff     ................
30004654:	ffff ffff ffff ffff ffff ffff 1210 ffff     ................
30004664:	1231 1231 1210 1210 1231 1211 11ef 1210     1.1.....1.......
30004674:	ffff ffff ffff ffff ffff ffff ffff ffff     ................
30004684:	ffff ffff ffff ffff ffff ffff ffff ffff     ................
30004694:	ffff ffff ffff ffff ffff ffff ffff ffff     ................
300046a4:	ffff ffff ffff ffff ffff ffff ffff ffff     ................
300046b4:	ffff ffff ffff ffff ffff ffff ffff ffff     ................
300046c4:	ffff ffff ffff ffff ffff ffff ffff ffff     ................
300046d4:	ffff ffff ffff ffff ffff ffff ffff ffff     ................
300046e4:	ffff ffff ffff ffff ffff ffff ffff ffff     ................
300046f4:	ffff ffff ffff ffff ffff ffff ffff ffff     ................
30004704:	ffff ffff ffff ffff ffff ffff ffff ffff     ................
30004714:	ffff ffff 09f0 11ef 1231 1210 1210 1211     ........1.......
30004724:	1210 1210 1211 1210 1211 1231 1210 1210     ..........1.....
30004734:	1211 1211 ffff 11f0 ffff ffff ffff ffff     ................
30004744:	ffff ffff ffff ffff ffff ffff ffff ffff     ................
30004754:	ffff ffff ffff ffff ffff ffff 1210 ffff     ................
30004764:	1231 1231 1210 1210 1231 1211 11ef 1210     1.1.....1.......
30004774:	ffff ffff ffff ffff ffff ffff ffff ffff     ................
30004784:	ffff ffff ffff ffff ffff ffff ffff ffff     ................
30004794:	ffff ffff ffff ffff ffff ffff ffff ffff     ................
300047a4:	ffff ffff ffff ffff ffff ffff ffff ffff     ................
300047b4:	ffff ffff ffff ffff ffff ffff ffff ffff     ................
300047c4:	ffff ffff ffff ffff ffff ffff ffff ffff     ................
300047d4:	ffff ffff ffff ffff ffff ffff ffff ffff     ................
300047e4:	ffff ffff ffff ffff ffff ffff ffff ffff     ................
300047f4:	ffff ffff ffff ffff ffff ffff ffff ffff     ................
30004804:	ffff ffff ffff ffff ffff ffff ffff ffff     ................
30004814:	0a11 ff0f 1231 1231 1211 1210 1210 1210     ....1.1.........
30004824:	1210 1210 1210 1210 1231 1210 1231 1231     ........1...1.1.
30004834:	1211 1231 11f1 1211 09ef 19ef ffff 1231     ..1...........1.
30004844:	ffff ffff ffff ffff ffff ffff ffff ffff     ................
30004854:	ffff ffff ffff ffff ffff ffff 1211 ffff     ................
30004864:	1231 1231 1210 1210 1252 1211 224d 1211     1.1.....R...M"..
30004874:	ffff ffff ffff ffff ffff ffff ffff ffff     ................
30004884:	ffff ffff ffff ffff ffff ffff ffff ffff     ................
30004894:	ffff ffff ffff ffff ffff ffff ffff ffff     ................
300048a4:	ffff ffff ffff ffff ffff ffff ffff ffff     ................
300048b4:	ffff ffff ffff ffff ffff ffff ffff ffff     ................
300048c4:	ffff ffff ffff ffff ffff ffff ffff ffff     ................
300048d4:	ffff ffff ffff ffff ffff ffff ffff ffff     ................
300048e4:	ffff ffff ffff ffff ffff ffff ffff ffff     ................
300048f4:	ffff ffff ffff ffff ffff ffff ffff ffff     ................
30004904:	ffff ffff ffff ffff ffff ffff ffff ffff     ................
30004914:	1211 19ef 1232 1252 1210 1210 1210 1210     ....2.R.........
30004924:	1210 1210 1210 1210 1211 1210 1211 1211     ................
30004934:	1231 1211 1211 1231 1231 1210 01ed 1210     1.....1.1.......
30004944:	ffff ffff ffff ffff ffff ffff ffff ffff     ................
30004954:	ffff ffff ffff ffff ffff ffff 1231 ffff     ............1...
30004964:	1231 1252 1210 1210 1252 1211 19ef 1211     1.R.....R.......
30004974:	ff1f 122e ffff ffff ffff ffff ffff ffff     ................
30004984:	ffff ffff ffff ffff ffff ffff ffff ffff     ................
30004994:	ffff ffff ffff ffff ffff ffff ffff ffff     ................
300049a4:	ffff ffff ffff ffff ffff ffff ffff ffff     ................
300049b4:	ffff ffff ffff ffff ffff ffff ffff ffff     ................
300049c4:	ffff ffff ffff ffff ffff ffff ffff ffff     ................
300049d4:	ffff ffff ffff ffff ffff ffff ffff ffff     ................
300049e4:	ffff ffff ffff ffff ffff ffff ffff ffff     ................
300049f4:	ffff ffff ffff ffff ffff ffff ffff ffff     ................
30004a04:	ffff ffff ffff ffff ffff ffff ffff ffff     ................
30004a14:	1211 024d 1231 1232 1210 1210 1210 1210     ..M.1.2.........
30004a24:	1210 1210 1210 1210 1210 1210 1210 1210     ................
30004a34:	1210 1210 1231 1211 1252 1231 0a0f 1210     ....1...R.1.....
30004a44:	ffff ffff ffff ffff ffff ffff ffff ffff     ................
30004a54:	ffff ffff ffff ffff 2252 ff0a 1252 ffff     ........R"..R...
30004a64:	1210 1211 1231 1231 1231 1211 1210 1231     ....1.1.1.....1.
30004a74:	1231 1231 ffff ffff ffff ffff ffff ffff     1.1.............
30004a84:	ffff ffff ffff ffff ffff ffff ffff ffff     ................
30004a94:	ffff ffff ffff ffff ffff ffff ffff ffff     ................
30004aa4:	ffff ffff ffff ffff ffff ffff ffff ffff     ................
30004ab4:	ffff ffff ffff ffff ffff ffff ffff ffff     ................
30004ac4:	ffff ffff ffff ffff ffff ffff ffff ffff     ................
30004ad4:	ffff ffff ffff ffff ffff ffff ffff ffff     ................
30004ae4:	ffff ffff ffff ffff ffff ffff ffff ffff     ................
30004af4:	ffff ffff ffff ffff ffff ffff ffff ffff     ................
30004b04:	ffff ffff ffff ffff ffff ffff ffff ffff     ................
30004b14:	1211 014f 1211 1231 1210 1210 1210 1210     ..O...1.........
30004b24:	1210 1210 1210 1210 1211 1211 1210 1210     ................
30004b34:	1210 1210 1231 1210 1252 1232 1211 1231     ....1...R.2...1.
30004b44:	ffff ffff ffff ffff ffff ffff ffff ffff     ................
30004b54:	ffff ffff ffff ffff 1210 11f0 ffff 122e     ................
30004b64:	1210 096f 1231 1231 09d1 1210 1210 0a4f     ..o.1.1.......O.
30004b74:	1231 1252 ffff ffff ffff ffff ffff ffff     1.R.............
30004b84:	ffff ffff ffff ffff ffff ffff ffff ffff     ................
30004b94:	ffff ffff ffff ffff ffff ffff ffff ffff     ................
30004ba4:	ffff ffff ffff ffff ffff ffff ffff ffff     ................
30004bb4:	ffff ffff ffff ffff ffff ffff ffff ffff     ................
30004bc4:	ffff ffff ffff ffff ffff ffff ffff ffff     ................
30004bd4:	ffff ffff ffff ffff ffff ffff ffff ffff     ................
30004be4:	ffff ffff ffff ffff ffff ffff ffff ffff     ................
30004bf4:	ffff ffff ffff ffff ffff ffff ffff ffff     ................
30004c04:	ffff ffff ffff ffff ffff ffff ffff ffff     ................
30004c14:	1210 1251 1210 1231 1211 1210 1231 1231     ..Q...1.....1.1.
30004c24:	1231 1231 1232 1231 1232 1232 1231 1232     1.1.2.1.2.2.1.2.
30004c34:	1231 1211 1231 1232 1211 1210 1210 1211     1...1.2.........
30004c44:	ffff ffff ffff ffff ffff ffff ffff ffff     ................
30004c54:	ffff ffff ffff ffff 1210 09ef ffff 1231     ..............1.
30004c64:	1210 3193 1232 1231 ffff 1210 1210 0a2f     ...12.1......./.
30004c74:	1211 1231 ffff ffff ffff ffff ffff ffff     ..1.............
30004c84:	ffff ffff ffff ffff ffff ffff ffff ffff     ................
30004c94:	ffff ffff ffff ffff ffff ffff ffff ffff     ................
30004ca4:	ffff ffff ffff ffff ffff ffff ffff ffff     ................
30004cb4:	ffff ffff ffff ffff ffff ffff ffff ffff     ................
30004cc4:	ffff ffff ffff ffff ffff ffff ffff ffff     ................
30004cd4:	ffff ffff ffff ffff ffff ffff ffff ffff     ................
30004ce4:	ffff ffff ffff ffff ffff ffff ffff ffff     ................
30004cf4:	ffff ffff ffff ffff ffff ffff ffff ffff     ................
30004d04:	ffff ffff ffff ffff ffff ffff ffff ffff     ................
30004d14:	1210 1231 1231 1252 1231 1252 1210 1210     ..1.1.R.1.R.....
30004d24:	1211 1210 1231 1211 1231 1211 1211 1231     ....1...1.....1.
30004d34:	1231 1211 1231 1231 1211 1210 11ef 1210     1...1.1.........
30004d44:	ffff ffff ffff ffff ffff ffff ffff ffff     ................
30004d54:	ffff ffff ffff ffff 1210 09f0 ffff 1231     ..............1.
30004d64:	1210 198f 1231 1231 19ef 1210 1210 09ef     ....1.1.........
30004d74:	1211 1231 ffff ffff ffff ffff ffff ffff     ..1.............
30004d84:	ffff ffff ffff ffff ffff ffff ffff ffff     ................
30004d94:	ffff ffff ffff ffff ffff ffff ffff ffff     ................
30004da4:	ffff ffff ffff ffff ffff ffff ffff ffff     ................
30004db4:	ffff ffff ffff ffff ffff ffff ffff ffff     ................
30004dc4:	ffff ffff ffff ffff ffff ffff ffff ffff     ................
30004dd4:	ffff ffff ffff ffff ffff ffff ffff ffff     ................
30004de4:	ffff ffff ffff ffff ffff ffff ffff ffff     ................
30004df4:	ffff ffff ffff ffff ffff ffff ffff ffff     ................
30004e04:	ffff ffff ffff ffff ffff ffff ffff ffff     ................
30004e14:	1211 3193 1231 1231 1210 1231 1210 0a10     ...11.1...1.....
30004e24:	11f0 09f0 0a0f 120f 09ef 09ef 1230 0a0f     ............0...
30004e34:	1210 1231 01ef 1210 ffff ffff ffff ffff     ..1.............
30004e44:	ffff ffff ffff ffff ffff ffff ffff ffff     ................
30004e54:	ffff ffff ffff ffff 1210 09f0 ffff 1231     ..............1.
30004e64:	1210 198f 1231 1231 19ef 1210 1210 0a10     ....1.1.........
30004e74:	1211 1231 ffff ffff ffff ffff ffff ffff     ..1.............
30004e84:	ffff ffff ffff ffff ffff ffff ffff ffff     ................
30004e94:	ffff ffff ffff ffff ffff ffff ffff ffff     ................
30004ea4:	ffff ffff ffff ffff ffff ffff ffff ffff     ................
30004eb4:	ffff ffff ffff ffff ffff ffff ffff ffff     ................
30004ec4:	ffff ffff ffff ffff ffff ffff ffff ffff     ................
30004ed4:	ffff ffff ffff ffff ffff ffff ffff ffff     ................
30004ee4:	ffff ffff ffff ffff ffff ffff ffff ffff     ................
30004ef4:	ffff ffff ffff ffff ffff ffff ffff ffff     ................
30004f04:	ffff ffff ffff ffff ffff ffff ffff ffff     ................
30004f14:	ffff ffff 1231 1210 018c 1210 ffff ffff     ....1...........
30004f24:	ffff ffff ffff ffff ffff ffff ffff ffff     ................
30004f34:	ffff ffff ffff ffff ffff ffff ffff ffff     ................
30004f44:	ffff ffff ffff ffff ffff ffff ffff ffff     ................
30004f54:	ffff ffff ffff ffff 1210 11d0 ffff 1252     ..............R.
30004f64:	1210 198f 1231 1231 19ef 1210 1210 0a10     ....1.1.........
30004f74:	1211 1231 ffff ffff ffff ffff ffff ffff     ..1.............
30004f84:	ffff ffff ffff ffff ffff ffff ffff ffff     ................
30004f94:	ffff ffff ffff ffff ffff ffff ffff ffff     ................
30004fa4:	ffff ffff ffff ffff ffff ffff ffff ffff     ................
30004fb4:	ffff ffff ffff ffff ffff ffff ffff ffff     ................
30004fc4:	ffff ffff ffff ffff ffff ffff ffff ffff     ................
30004fd4:	ffff ffff ffff ffff ffff ffff ffff ffff     ................
30004fe4:	ffff ffff ffff ffff ffff ffff ffff ffff     ................
30004ff4:	ffff ffff ffff ffff ffff ffff ffff ffff     ................
30005004:	ffff ffff ffff ffff ffff ffff ffff ffff     ................
30005014:	ffff ffff ffff ffff ffff ffff ffff ffff     ................
30005024:	ffff ffff ffff ffff ffff ffff ffff ffff     ................
30005034:	ffff ffff ffff ffff ffff ffff ffff ffff     ................
30005044:	ffff ffff ffff ffff ffff ffff ffff ffff     ................
30005054:	ffff ffff ffff ffff 1210 09f1 ffff 1252     ..............R.
30005064:	1210 198f 1231 1231 19ef 1210 1210 0a10     ....1.1.........
30005074:	1211 1231 ffff ffff ffff ffff ffff ffff     ..1.............
30005084:	ffff ffff ffff ffff ffff ffff ffff ffff     ................
30005094:	ffff ffff ffff ffff ffff ffff ffff ffff     ................
300050a4:	ffff ffff ffff ffff ffff ffff ffff ffff     ................
300050b4:	ffff ffff ffff ffff ffff ffff ffff ffff     ................
300050c4:	ffff ffff ffff ffff ffff ffff ffff ffff     ................
300050d4:	ffff ffff ffff ffff ffff ffff ffff ffff     ................
300050e4:	ffff ffff ffff ffff ffff ffff ffff ffff     ................
300050f4:	ffff ffff ffff ffff ffff ffff ffff ffff     ................
30005104:	ffff ffff 1231 0a10 ffff 0a10 ffff ffff     ....1...........
30005114:	ffff ffff ffff ffff ffff ffff ffff ffff     ................
30005124:	ffff ffff ffff ffff ffff ff0a ffff ffff     ................
30005134:	ffff ffff ffff ffff ffff ffff ffff ffff     ................
30005144:	ffff ffff ffff ffff ffff ffff ffff ffff     ................
30005154:	ffff ffff ffff ffff 1210 11f0 ffff 09ef     ................
30005164:	1210 198f 1231 1231 19ef 1210 1210 0a10     ....1.1.........
30005174:	1211 1231 ffff ffff ffff ffff ffff ffff     ..1.............
30005184:	ffff ffff ffff ffff ffff ffff ffff ffff     ................
30005194:	ffff ffff ffff ffff ffff ffff ffff ffff     ................
300051a4:	ffff ffff ffff ffff ffff ffff ffff ffff     ................
300051b4:	ffff ffff ffff ffff ffff ffff ffff ffff     ................
300051c4:	ffff ffff ffff ffff ffff ffff ffff ffff     ................
300051d4:	ffff ffff ffff ffff ffff ffff ffff ffff     ................
300051e4:	ffff ffff ffff ffff ffff ffff ffff ffff     ................
300051f4:	ffff ffff ffff ffff ffff ffff ffff ffff     ................
30005204:	018e ffff 1252 1210 09ef 1231 ffff ffff     ....R.....1.....
30005214:	ffff ffff ffff ffff ffff ffff ffff ffff     ................
30005224:	ffff ffff 0a10 ffff 09f0 1210 ffff ffff     ................
30005234:	ffff ffff ffff ffff ffff ffff ffff ffff     ................
30005244:	ffff ffff ffff ffff ffff ffff ffff ffff     ................
30005254:	ffff ffff ffff ffff 1210 11f0 ffff 09f0     ................
30005264:	1210 198f 1231 1231 19ef 1210 1210 0a10     ....1.1.........
30005274:	1211 1231 ffff ffff ffff ffff ffff ffff     ..1.............
30005284:	ffff ffff ffff ffff ffff ffff ffff ffff     ................
30005294:	ffff ffff ffff ffff ffff ffff ffff ffff     ................
300052a4:	ffff ffff ffff ffff ffff ffff ffff ffff     ................
300052b4:	ffff ffff ffff ffff ffff ffff ffff ffff     ................
300052c4:	ffff ffff ffff ffff ffff ffff ffff ffff     ................
300052d4:	ffff ffff ffff ffff ffff ffff ffff ffff     ................
300052e4:	ffff ffff ffff ffff ffff ffff ffff ffff     ................
300052f4:	ffff ffff ffff ffff ffff ffff ffff ffff     ................
30005304:	1210 ffff 1252 1211 1231 1252 ffff 09cf     ....R...1.R.....
30005314:	ffff ffff ffff ffff ffff ffff ffff ffff     ................
30005324:	ffff ffff 1210 ffff 1231 1232 ffff ffff     ........1.2.....
30005334:	ffff ffff ffff ffff ffff ffff ffff ffff     ................
30005344:	ffff ffff ffff ffff ffff ffff ffff ffff     ................
30005354:	ffff ffff ffff ffff 1210 1210 ffff 09f0     ................
30005364:	1210 198f 1231 1231 19ef 1210 1210 0a10     ....1.1.........
30005374:	1211 1231 ffff ffff ffff ffff ffff ffff     ..1.............
30005384:	ffff ffff ffff ffff ffff ffff ffff ffff     ................
30005394:	ffff ffff ffff ffff ffff ffff ffff ffff     ................
300053a4:	ffff ffff ffff ffff ffff ffff ffff ffff     ................
300053b4:	ffff ffff ffff ffff ffff ffff ffff ffff     ................
300053c4:	ffff ffff ffff ffff ffff ffff ffff ffff     ................
300053d4:	ffff ffff ffff ffff ffff ffff ffff ffff     ................
300053e4:	ffff ffff ffff ffff ffff ffff ffff ffff     ................
300053f4:	ffff ffff ffff ffff ffff ffff ffff ffff     ................
30005404:	1210 ffff 1231 1231 1231 1231 02af 1210     ....1.1.1.1.....
30005414:	ffff ffff ffff ffff ffff ffff ffff ffff     ................
30005424:	ffff ffff 1211 0a10 1211 1252 ffff ffff     ..........R.....
30005434:	ffff ffff ffff ffff ffff ffff ffff ffff     ................
30005444:	ffff ffff ffff ffff ffff ffff ffff ffff     ................
30005454:	ffff ffff ffff ffff 1210 1210 ffff 09f0     ................
30005464:	1210 198f 1231 1231 19ef 1210 1210 0a10     ....1.1.........
30005474:	1211 1231 ffff ffff ffff ffff ffff ffff     ..1.............
30005484:	ffff ffff ffff ffff ffff ffff ffff ffff     ................
30005494:	ffff ffff ffff ffff ffff ffff ffff ffff     ................
300054a4:	ffff ffff ffff ffff ffff ffff ffff ffff     ................
300054b4:	ffff ffff ffff ffff ffff ffff ffff ffff     ................
300054c4:	ffff ffff ffff ffff ffff ffff ffff ffff     ................
300054d4:	ffff ffff ffff ffff ffff ffff ffff ffff     ................
300054e4:	ffff ffff ffff ffff ffff ffff ffff ffff     ................
300054f4:	ffff ffff ffff ffff ffff ffff ffff ffff     ................
30005504:	1210 19ce 1211 1231 1231 1210 1210 1231     ......1.1.....1.
30005514:	ffff ffff ffff ffff ffff ffff ffff ffff     ................
30005524:	ff0f ffff 1231 1210 1210 1232 ffff 224d     ....1.....2...M"
30005534:	ffff ffff ffff ffff ffff ffff ffff ffff     ................
30005544:	ffff ffff ffff ffff ffff ffff ffff ffff     ................
30005554:	ffff ffff ffff ffff 1210 1210 ffff 09f0     ................
30005564:	1210 198f 1231 1231 19ef 1210 1210 0a10     ....1.1.........
30005574:	1211 1231 ffff ffff ffff ffff ffff ffff     ..1.............
30005584:	ffff ffff ffff ffff ffff ffff ffff ffff     ................
30005594:	ffff ffff ffff ffff ffff ffff ffff ffff     ................
300055a4:	ffff ffff ffff ffff ffff ffff ffff ffff     ................
300055b4:	ffff ffff ffff ffff ffff ffff ffff ffff     ................
300055c4:	ffff ffff ffff ffff ffff ffff ffff ffff     ................
300055d4:	ffff ffff ffff ffff ffff ffff ffff ffff     ................
300055e4:	ffff ffff ffff ffff ffff ffff ffff ffff     ................
300055f4:	ffff ffff ffff ffff ffff ffff ffff ffff     ................
30005604:	1210 09f1 1210 1231 1211 1210 1210 1232     ......1.......2.
30005614:	ffff 19d1 ffff ffff ffff ffff ffff ffff     ................
30005624:	11f0 ffff 1231 1231 1211 1231 014f 1211     ....1.1...1.O...
30005634:	ff0f 01ef 014f 01ef 01ef 024d ffff ffff     ....O.....M.....
30005644:	ffff ffff ffff ffff ffff ffff ffff ffff     ................
30005654:	ffff ffff ffff ffff 1210 1210 ffff 09f0     ................
30005664:	1210 198f 1231 1231 19ef 1210 1210 0a10     ....1.1.........
30005674:	1211 1231 ffff ffff ffff ffff ffff ffff     ..1.............
30005684:	ffff ffff ffff ffff ffff ffff ffff ffff     ................
30005694:	ffff ffff ffff ffff ffff ffff ffff ffff     ................
300056a4:	ffff ffff ffff ffff ffff ffff ffff ffff     ................
300056b4:	ffff ffff ffff ffff ffff ffff ffff ffff     ................
300056c4:	ffff ffff ffff ffff ffff ffff ffff ffff     ................
300056d4:	ffff ffff ffff ffff ffff ffff ffff ffff     ................
300056e4:	ffff ffff ffff ffff ffff ffff ffff ffff     ................
300056f4:	ffff ffff ffff ffff ffff ffff ffff ffff     ................
30005704:	1210 09f1 1210 1231 1210 1210 1210 1231     ......1.......1.
30005714:	ffff 11f1 ffff ffff ffff ffff ffff ffff     ................
30005724:	1211 11f1 1210 1231 1231 1210 1210 1211     ......1.1.......
30005734:	1210 1210 1211 1211 1231 1210 03e0 0a11     ........1.......
30005744:	ffff ffff ffff ffff ffff ffff ffff ffff     ................
30005754:	ffff ffff ffff ffff 1210 1210 ffff 09f0     ................
30005764:	1210 198f 1231 1231 19ef 1210 1210 0a10     ....1.1.........
30005774:	1211 1231 ffff ffff ffff ffff ffff ffff     ..1.............
30005784:	ffff ffff ffff ffff ffff ffff ffff ffff     ................
30005794:	ffff ffff ffff ffff ffff ffff ffff ffff     ................
300057a4:	ffff ffff ffff ffff ffff ffff ffff ffff     ................
300057b4:	ffff ffff ffff ffff ffff ffff ffff ffff     ................
300057c4:	ffff ffff ffff ffff ffff ffff ffff ffff     ................
300057d4:	ffff ffff ffff ffff ffff ffff ffff ffff     ................
300057e4:	ffff ffff ffff ffff ffff ffff ffff ffff     ................
300057f4:	ffff ffff ffff ffff ffff ffff ffff ffff     ................
30005804:	1210 09f0 1210 1231 1210 1210 1231 1211     ......1.....1...
30005814:	ffff 1210 ffff ffff ffff ffff 1211 1252     ..............R.
30005824:	1231 1211 1210 1231 1210 1210 1231 1231     1.....1.....1.1.
30005834:	1231 1232 1231 1232 1252 1231 1210 1231     1.2.1.2.R.1...1.
30005844:	ffff ff0c ffff ffff ffff ffff ffff ffff     ................
30005854:	ffff ffff ffff ffff 1210 11f0 ffff 11f0     ................
30005864:	1210 198f 1231 1231 19ef 1210 1210 0a10     ....1.1.........
30005874:	1211 1231 ffff ffff ffff ffff ffff ffff     ..1.............
30005884:	ffff ffff ffff ffff ffff ffff ffff ffff     ................
30005894:	ffff ffff ffff ffff ffff ffff ffff ffff     ................
300058a4:	ffff ffff ffff ffff ffff ffff ffff ffff     ................
300058b4:	ffff ffff ffff ffff ffff ffff ffff ffff     ................
300058c4:	ffff ffff ffff ffff ffff ffff ffff ffff     ................
300058d4:	ffff ffff ffff ffff ffff ffff ffff ffff     ................
300058e4:	ffff ffff ffff ffff ffff ffff ffff ffff     ................
300058f4:	ffff ffff ffff ffff ffff ffff ffff ffff     ................
30005904:	1210 11d1 1211 1231 1210 1210 1231 1211     ......1.....1...
30005914:	11f0 1211 1211 122f 1210 11f0 1232 1210     ....../.....2...
30005924:	1231 1231 1210 1210 1210 1210 1231 1211     1.1.........1...
30005934:	1231 1231 1231 1231 1231 1231 1232 1252     1.1.1.1.1.1.2.R.
30005944:	ffff 11f1 ffff ffff ffff ffff ffff ffff     ................
30005954:	ffff ffff ffff ffff 1210 1210 ffff 0a10     ................
30005964:	1210 198f 1231 1231 19ef 1210 1210 0a10     ....1.1.........
30005974:	1211 1231 ffff ffff ffff ffff ffff ffff     ..1.............
30005984:	ffff ffff ffff ffff ffff ffff ffff ffff     ................
30005994:	ffff ffff ffff ffff ffff ffff ffff ffff     ................
300059a4:	ffff ffff ffff ffff ffff ffff ffff ffff     ................
300059b4:	ffff ffff ffff ffff ffff ffff ffff ffff     ................
300059c4:	ffff ffff ffff ffff ffff ffff ffff ffff     ................
300059d4:	ffff ffff ffff ffff ffff ffff ffff ffff     ................
300059e4:	ffff ffff ffff ffff ffff ffff ffff ffff     ................
300059f4:	ffff ffff ffff ffff ffff ffff ffff ffff     ................
30005a04:	1210 318c 1211 1231 1210 1210 1210 1210     ...1..1.........
30005a14:	1211 1211 1232 1210 1231 1231 1232 1231     ....2...1.1.2.1.
30005a24:	1210 1231 1210 1210 1210 1210 1210 1210     ..1.............
30005a34:	1210 1210 1210 1210 1231 1210 1231 1252     ........1...1.R.
30005a44:	ffff 1211 ffff ffff ffff ffff ffff ffff     ................
30005a54:	ffff ffff ffff ffff 1210 11f0 ffff 0a10     ................
30005a64:	1210 198f 1231 1231 19ef 1210 1210 0a10     ....1.1.........
30005a74:	1211 1231 ffff ffff ffff ffff ffff ffff     ..1.............
30005a84:	ffff ffff ffff ffff ffff ffff ffff ffff     ................
30005a94:	ffff ffff ffff ffff ffff ffff ffff ffff     ................
30005aa4:	ffff ffff ffff ffff ffff ffff ffff ffff     ................
30005ab4:	ffff ffff ffff ffff ffff ffff ffff ffff     ................
30005ac4:	ffff ffff ffff ffff ffff ffff ffff ffff     ................
30005ad4:	ffff ffff ffff ffff ffff ffff ffff ffff     ................
30005ae4:	ffff ffff ffff ffff ffff ffff ffff ffff     ................
30005af4:	ffff ffff ffff ffff ffff ffff ffff ffff     ................
30005b04:	1210 09f0 1210 1231 1210 1210 1210 1210     ......1.........
30005b14:	1232 1231 1252 1252 1231 1232 1210 1211     2.1.R.R.1.2.....
30005b24:	1210 1210 1210 1210 1210 1210 1210 1210     ................
30005b34:	1210 1210 1232 1211 1231 1252 11f0 1231     ....2...1.R...1.
30005b44:	ffff ff0a ffff ffff ffff ffff ffff ffff     ................
30005b54:	ffff ffff ffff ffff 1210 11f0 ffff 0a10     ................
30005b64:	1210 198f 1231 1231 19ef 1210 1210 0a10     ....1.1.........
30005b74:	1211 1231 ffff ffff ffff ffff ffff ffff     ..1.............
30005b84:	ffff ffff ffff ffff ffff ffff ffff ffff     ................
30005b94:	ffff ffff ffff ffff ffff ffff ffff ffff     ................
30005ba4:	ffff ffff ffff ffff ffff ffff ffff ffff     ................
30005bb4:	ffff ffff ffff ffff ffff ffff ffff ffff     ................
30005bc4:	ffff ffff ffff ffff ffff ffff ffff ffff     ................
30005bd4:	ffff ffff ffff ffff ffff ffff ffff ffff     ................
30005be4:	ffff ffff ffff ffff ffff ffff ffff ffff     ................
30005bf4:	ffff ffff ffff ffff 11cf ffff 1211 1211     ................
30005c04:	1211 1231 1210 1210 1210 1210 1210 1210     ..1.............
30005c14:	1210 1210 1210 1210 1210 1210 1210 1210     ................
30005c24:	1210 1210 1210 1210 1232 1231 1252 1252     ........2.1.R.R.
30005c34:	1252 1232 1231 1231 1210 1231 ffff 11ef     R.2.1.1...1.....
30005c44:	ffff ffff ffff ffff ffff ffff ffff ffff     ................
30005c54:	ffff ffff ffff ffff 1210 11f0 ffff 0a10     ................
30005c64:	1210 198f 1231 1231 19ef 1210 1210 0a10     ....1.1.........
30005c74:	1211 1231 ffff ffff ffff ffff ffff ffff     ..1.............
30005c84:	ffff ffff ffff ffff ffff ffff ffff ffff     ................
30005c94:	ffff ffff ffff ffff ffff ffff ffff ffff     ................
30005ca4:	ffff ffff ffff ffff ffff ffff ffff ffff     ................
30005cb4:	ffff ffff ffff ffff ffff ffff ffff ffff     ................
30005cc4:	ffff ffff ffff ffff ffff ffff ffff ffff     ................
30005cd4:	ffff ffff ffff ffff ffff ffff ffff ffff     ................
30005ce4:	ffff ffff ffff ffff ffff ffff ffff ffff     ................
30005cf4:	ffff ffff 1210 0a0f 1231 1230 1231 1231     ........1.0.1.1.
30005d04:	1211 1252 1210 1210 1210 1210 1210 1210     ..R.............
30005d14:	1210 1210 1210 1210 1210 1210 1210 1210     ................
30005d24:	1211 1210 1232 1231 1231 1231 1231 1231     ....2.1.1.1.1.1.
30005d34:	1211 1211 1211 1211 ffff 0a31 ffff ffff     ..........1.....
30005d44:	ffff ffff ffff ffff ffff ffff ffff ffff     ................
30005d54:	ffff ffff ffff ffff 1210 11f0 ffff 0a10     ................
30005d64:	1210 198f 1231 1231 19ef 1210 1210 0a10     ....1.1.........
30005d74:	1211 1231 ffff ffff ffff ffff ffff ffff     ..1.............
30005d84:	ffff ffff ffff ffff ffff ffff ffff ffff     ................
30005d94:	ffff ffff ffff ffff ffff ffff ffff ffff     ................
30005da4:	ffff ffff ffff ffff ffff ffff ffff ffff     ................
30005db4:	ffff ffff ffff ffff ffff ffff ffff ffff     ................
30005dc4:	ffff ffff ffff ffff ffff ffff ffff ffff     ................
30005dd4:	ffff ffff ffff ffff ffff ffff ffff ffff     ................
30005de4:	ffff ffff ffff ffff ffff ffff ffff ffff     ................
30005df4:	1231 11ef 1231 1231 1252 1231 1211 1231     1...1.1.R.1...1.
30005e04:	1210 1210 1210 1210 1210 1210 1210 1210     ................
30005e14:	1210 1210 1210 1210 1210 1210 1210 1210     ................
30005e24:	1231 1211 1231 1231 1210 1210 1230 1211     1...1.1.....0...
30005e34:	0a52 0a31 ffff 2aaf ffff ffff ffff ffff     R.1....*........
30005e44:	ffff ffff ffff ffff ffff ffff ffff ffff     ................
30005e54:	ffff ffff ffff ffff 1210 11f0 ffff 0a10     ................
30005e64:	1210 198f 1231 1231 19ef 1210 1210 0a10     ....1.1.........
30005e74:	1211 1231 ffff ffff ffff ffff ffff ffff     ..1.............
30005e84:	ffff ffff ffff ffff ffff ffff ffff ffff     ................
30005e94:	ffff ffff ffff ffff ffff ffff ffff ffff     ................
30005ea4:	ffff ffff ffff ffff ffff ffff ffff ffff     ................
30005eb4:	ffff ffff ffff ffff ffff ffff ffff ffff     ................
30005ec4:	ffff ffff ffff ffff ffff ffff ffff ffff     ................
30005ed4:	ffff ffff ffff ffff ffff ffff ffff ffff     ................
30005ee4:	ffff ffff ffff ffff ffff ffff 1210 11ef     ................
30005ef4:	1231 1231 1231 1231 1210 1211 1210 1210     1.1.1.1.........
30005f04:	1210 1210 1210 1210 1210 1210 1210 1210     ................
30005f14:	1210 1210 1210 1210 1210 1210 1231 1210     ............1...
30005f24:	1211 1231 1230 1210 ffff ffff ffff ffff     ..1.0...........
30005f34:	ffff ffff ffff ffff ffff ffff ffff ffff     ................
30005f44:	ffff ffff ffff ffff ffff ffff ffff ffff     ................
30005f54:	ffff ffff ffff ffff 1210 11f0 ffff 0a10     ................
30005f64:	1210 198f 1231 1231 19ef 1210 1210 0a10     ....1.1.........
30005f74:	1211 1231 ffff ffff ffff ffff ffff ffff     ..1.............
30005f84:	ffff ffff ffff ffff ffff ffff ffff ffff     ................
30005f94:	ffff ffff ffff ffff ffff ffff ffff ffff     ................
30005fa4:	ffff ffff ffff ffff ffff ffff ffff ffff     ................
30005fb4:	ffff ffff ffff ffff ffff ffff ffff ffff     ................
30005fc4:	ffff ffff ffff ffff 09f0 11af 0a2f 09f0     ............/...
30005fd4:	ffff 1231 ffff ffff ffff ffff ffff ffff     ..1.............
30005fe4:	ffff ffff ffff ffff ffff ffff 1211 1210     ................
30005ff4:	1231 1253 1210 1211 1210 1210 1210 1210     1.S.............
30006004:	1210 1210 1210 1210 1210 1210 1210 1210     ................
30006014:	1231 1211 1210 1231 1210 1210 1232 1231     1.....1.....2.1.
30006024:	1210 1211 ffff ffff ffff ffff ffff ffff     ................
30006034:	ffff ffff ffff ffff ffff ffff ffff ffff     ................
30006044:	ffff ffff ffff ffff ffff ffff ffff ffff     ................
30006054:	ffff ffff ffff ffff 1210 11f0 ffff 0a10     ................
30006064:	1210 198f 1231 1231 19ef 1210 1210 0a10     ....1.1.........
30006074:	1211 1231 ffff ffff ffff ffff ffff ffff     ..1.............
30006084:	ffff ffff ffff ffff ffff ffff ffff ffff     ................
30006094:	ffff ffff ffff ffff ffff ffff ffff ffff     ................
300060a4:	ffff ffff ffff ffff ffff ffff ffff ffff     ................
300060b4:	ffff ffff ffff ffff ffff ffff ffff ffff     ................
300060c4:	11f2 018c 1231 09f0 1211 1231 1231 1210     ....1.....1.1...
300060d4:	1210 1231 ffff 012d ffff ffff ffff ffff     ..1...-.........
300060e4:	ffff ffff ffff ffff ffff ffff 1211 01af     ................
300060f4:	1231 1231 1211 1231 1210 1210 1210 1210     1.1...1.........
30006104:	1211 1211 1210 1210 1210 1210 1211 1210     ................
30006114:	1231 1231 1210 1231 1231 1210 1231 1232     1.1...1.1...1.2.
30006124:	ffff 1210 ffff ffff ffff ffff ffff ffff     ................
30006134:	ffff ffff ffff ffff ffff ffff ffff ffff     ................
30006144:	ffff ffff ffff ffff ffff ffff ffff ffff     ................
30006154:	ffff ffff ffff ffff 1210 11f0 ffff 0a10     ................
30006164:	1210 198f 1231 1231 19ef 1210 1210 0a10     ....1.1.........
30006174:	1211 1231 ffff ffff ffff ffff ffff ffff     ..1.............
30006184:	ffff ffff ffff ffff ffff ffff ffff ffff     ................
30006194:	ffff ffff ffff ffff ffff ffff ffff ffff     ................
300061a4:	ffff ffff ffff ffff ffff ffff ffff ffff     ................
300061b4:	ff0f ffff 02b5 02b5 024d 01ef 11f1 120f     ........M.......
300061c4:	1211 1211 1231 1230 1231 1232 1231 1231     ....1.0.1.2.1.1.
300061d4:	1231 1252 01ce 1210 ffff ffff ffff ffff     1.R.............
300061e4:	ffff ffff ffff ffff ffff ffff 11af ffff     ................
300061f4:	1231 1231 1232 1231 1231 1231 1231 1231     1.1.2.1.1.1.1.1.
30006204:	1231 1231 1210 1231 1210 1210 1232 1231     1.1...1.....2.1.
30006214:	1211 1210 1210 1211 1231 1232 0a10 1231     ........1.2...1.
30006224:	ffff 02aa ffff ffff ffff ffff ffff ffff     ................
30006234:	ffff ffff ffff ffff ffff ffff ffff ffff     ................
30006244:	ffff ffff ffff ffff ffff ffff ffff ffff     ................
30006254:	ffff ffff ffff ffff 1210 11f0 ffff 0a10     ................
30006264:	1210 198f 1231 1231 19ef 1210 1210 0a10     ....1.1.........
30006274:	1211 1231 ffff ffff ffff ffff ffff ffff     ..1.............
30006284:	ffff ffff ffff ffff ffff ffff ffff ffff     ................
30006294:	ffff ffff ffff ffff ffff ffff ffff ffff     ................
300062a4:	ffff ffff ffff ffff ffff ffff 1211 ffff     ................
300062b4:	1210 1231 0a10 1231 1210 1210 1211 1210     ..1...1.........
300062c4:	1231 1231 1231 1231 1231 1231 1231 1231     1.1.1.1.1.1.1.1.
300062d4:	1231 1231 1211 1231 ffff 1211 ffff ffff     1.1...1.........
300062e4:	ffff ffff ffff ffff ffff ffff ffff ffff     ................
300062f4:	1210 01ef 1231 1231 1210 1211 1210 1210     ....1.1.........
30006304:	1210 1210 1231 1211 1232 1231 1231 1231     ....1...2.1.1.1.
30006314:	1231 0a10 1211 09f0 1211 1232 ffff 09f1     1.........2.....
30006324:	ffff ffff ffff ffff ffff ffff ffff ffff     ................
30006334:	ffff ffff ffff ffff ffff ffff ffff ffff     ................
30006344:	ffff ffff ffff ffff ffff ffff ffff ffff     ................
30006354:	ffff ffff ffff ffff 1210 11f0 ffff 0a10     ................
30006364:	1210 198f 1231 1231 01ef 1210 1210 0a10     ....1.1.........
30006374:	1211 1231 ffff ffff ffff ffff ffff ffff     ..1.............
30006384:	ffff ffff ffff ffff 0a0f 02aa ffff 12f1     ................
30006394:	ffff ffff ffff ffff ffff ffff ffff ffff     ................
300063a4:	ffff ffff 1254 ffff 1210 1230 1211 1210     ....T.....0.....
300063b4:	1231 1252 1231 1231 1231 1231 1231 1231     1.R.1.1.1.1.1.1.
300063c4:	1231 1231 1210 1211 1210 1210 1210 1210     1.1.............
300063d4:	1211 1210 1252 1231 ff0a 1211 ffff ffff     ....R.1.........
300063e4:	ffff ffff ffff ffff ffff ffff ffff ffff     ................
300063f4:	ffff ffff 0a31 014f 1230 09f1 1210 1231     ....1.O.0.....1.
30006404:	1210 1210 1211 1210 1231 1231 09d0 1231     ........1.1...1.
30006414:	02b5 ffff 1232 1210 0a10 1211 ffff ffff     ....2...........
30006424:	ffff ffff ffff ffff ffff ffff ffff ffff     ................
30006434:	ffff ffff ffff ffff ffff ffff ffff ffff     ................
30006444:	ffff ffff ffff ffff ffff ffff ffff ffff     ................
30006454:	ffff ffff ffff ffff 1210 11f0 ffff 0a10     ................
30006464:	1210 198f 1231 1231 0252 1210 1210 0a10     ....1.1.R.......
30006474:	1211 1231 ffff ffff ffff ffff ffff ffff     ..1.............
30006484:	ffff ffff 03ef ffff 1232 1211 1210 1231     ........2.....1.
30006494:	0a10 1210 11f0 11f0 09f0 1211 1210 124f     ..............O.
300064a4:	1210 1210 1210 1210 1231 1231 1231 1231     ........1.1.1.1.
300064b4:	1231 1232 1231 1231 1231 1231 1210 1211     1.2.1.1.1.1.....
300064c4:	1210 1210 1210 1210 1210 1210 1210 1210     ................
300064d4:	1210 1210 1232 1210 1210 1231 ffff ffff     ....2.....1.....
300064e4:	ffff ffff ffff ffff ffff ffff ffff ffff     ................
300064f4:	ffff ffff ffff ffff ffff ffff ffff ffff     ................
30006504:	ffff ffff 1210 ffff 0a11 1231 ffff 02b5     ..........1.....
30006514:	1a12 ffff 1211 1210 ffff 116e ffff ffff     ..........n.....
30006524:	ffff ffff ffff ffff ffff ffff ffff ffff     ................
30006534:	ffff ffff ffff ffff ffff ffff ffff ffff     ................
30006544:	ffff ffff ffff ffff ffff ffff ffff ffff     ................
30006554:	ffff ffff ffff ffff 1210 11f0 ffff 0a10     ................
30006564:	1210 1a50 1232 1231 01ef 1211 1210 11f1     ..P.2.1.........
30006574:	1211 1231 ffff ffff ffff ffff ffff ffff     ..1.............
30006584:	ffff ffff 2252 ffff 1253 1211 1231 1232     ....R"..S...1.2.
30006594:	1231 1231 1231 1231 1231 1231 1231 1211     1.1.1.1.1.1.1...
300065a4:	1231 1231 1231 1231 1252 1232 1211 1231     1.1.1.1.R.2...1.
300065b4:	1210 1210 1210 1210 1210 1210 1210 1210     ................
300065c4:	1210 1210 1210 1210 1210 1210 1210 1210     ................
300065d4:	1210 1210 1210 1210 1211 1232 ffff 11f0     ..........2.....
300065e4:	ffff ffff ffff ffff ffff ffff ffff ffff     ................
300065f4:	ffff ffff ffff ffff ffff ffff ffff ffff     ................
30006604:	ffff ffff ffff ffff ffff ffff ffff ffff     ................
30006614:	2ab5 ffff ffff 11f1 ffff ffff ffff ffff     .*..............
30006624:	ffff ffff ffff ffff ffff ffff ffff ffff     ................
30006634:	ffff ffff ffff ffff ffff ffff ffff ffff     ................
30006644:	ffff ffff ffff ffff ffff ffff ffff ffff     ................
30006654:	ffff ffff ffff ffff 1210 11f0 ffff 0a10     ................
30006664:	1210 11f1 1231 1231 ff0a 1211 1210 11f1     ....1.1.........
30006674:	1211 1231 ffff ffff ffff ffff ffff ffff     ..1.............
30006684:	ffff ffff 224d ffff 1252 1210 1231 1211     ....M"..R...1...
30006694:	1232 1232 1252 1252 1252 1252 1252 1232     2.2.R.R.R.R.R.2.
300066a4:	1231 1232 1210 1231 1210 1210 1210 1210     1.2...1.........
300066b4:	1210 1210 1210 1210 1210 1210 1210 1210     ................
300066c4:	1210 1210 1210 1210 1210 1210 1210 1210     ................
300066d4:	1210 1210 1210 1210 1231 1231 02aa 1210     ........1.1.....
300066e4:	ffff ffff ffff ffff ffff ffff ffff ffff     ................
300066f4:	ffff ffff ffff ffff ffff ffff ffff ffff     ................
30006704:	ffff ffff ffff ffff ffff ffff ffff ffff     ................
30006714:	ffff ffff ffff ffff ffff ffff ffff ffff     ................
30006724:	ffff ffff ffff ffff ffff ffff ffff ffff     ................
30006734:	ffff ffff ffff ffff ffff ffff ffff ffff     ................
30006744:	ffff ffff ffff ffff ffff ffff ffff ffff     ................
30006754:	ffff ffff ffff ffff 1210 11f0 ffff 0a10     ................
30006764:	1210 11f1 1231 1231 ff0a 1211 1210 11f1     ....1.1.........
30006774:	1211 1231 ffff ffff ffff ffff ffff ffff     ..1.............
30006784:	ffff ffff ff0a ffff 1231 1210 1210 1232     ........1.....2.
30006794:	1210 1210 1210 1210 1210 1210 1210 1210     ................
300067a4:	1210 1210 1210 1210 1210 1210 1210 1210     ................
300067b4:	1210 1210 1210 1210 1210 1210 1210 1210     ................
300067c4:	1210 1210 1210 1210 1210 1210 1210 1210     ................
300067d4:	1210 1210 1210 1210 1231 1210 11ef 1211     ........1.......
300067e4:	ffff ffff ffff ffff ffff ffff ffff ffff     ................
300067f4:	ffff ffff ffff ffff ffff ffff ffff ffff     ................
30006804:	ffff ffff ffff ffff ffff ffff ffff ffff     ................
30006814:	ffff ffff ffff ffff ffff ffff ffff ffff     ................
30006824:	ffff ffff ffff ffff ffff ffff ffff ffff     ................
30006834:	ffff ffff ffff ffff ffff ffff ffff ffff     ................
30006844:	ffff ffff ffff ffff ffff ffff ffff ffff     ................
30006854:	ffff ffff ffff ffff 1210 11f0 ffff 0a10     ................
30006864:	1210 11ef 1231 1231 02aa 1211 1210 11f1     ....1.1.........
30006874:	1211 1231 ffff ffff ffff ffff ffff ffff     ..1.............
30006884:	ffff ffff ffff ffff 1210 19ce 1231 1232     ............1.2.
30006894:	1210 1210 1210 1210 1210 1210 1210 1210     ................
300068a4:	1210 1210 1210 1210 1210 1210 1210 1210     ................
300068b4:	1210 1210 1210 1210 1210 1210 1210 1210     ................
300068c4:	1210 1210 1210 1210 1210 1210 1210 1210     ................
300068d4:	1231 1231 1231 1231 1252 1252 11d0 1210     1.1.1.1.R.R.....
300068e4:	ffff ffff ffff ffff ffff ffff ffff ffff     ................
300068f4:	ffff ffff ffff ffff ffff ffff ffff ffff     ................
30006904:	ffff ffff ffff ffff ffff ffff ffff ffff     ................
30006914:	ffff ffff ffff ffff ffff ffff ffff ffff     ................
30006924:	ffff ffff ffff ffff ffff ffff ffff ffff     ................
30006934:	ffff ffff ffff ffff ffff ffff ffff ffff     ................
30006944:	ffff ffff ffff ffff ffff ffff ffff ffff     ................
30006954:	ffff ffff ffff ffff 1210 11f0 ffff 0a10     ................
30006964:	1210 11ef 1231 1231 02aa 1211 1210 11f1     ....1.1.........
30006974:	1211 1231 ffff ffff ffff ffff ffff ffff     ..1.............
30006984:	ffff ffff ffff ffff 09f0 ffff 1231 1211     ............1...
30006994:	1210 1231 1210 1210 1210 1210 1210 1210     ..1.............
300069a4:	1210 1210 1210 1210 1210 1210 1210 1210     ................
300069b4:	1210 1210 1210 1210 1210 1210 1210 1210     ................
300069c4:	1210 1210 1231 1210 1231 1231 1231 1231     ....1...1.1.1.1.
300069d4:	1231 1231 1231 1232 1232 1252 0132 0a10     1.1.1.2.2.R.2...
300069e4:	ffff ffff ffff ffff ffff ffff ffff ffff     ................
300069f4:	ffff ffff ffff ffff ffff ffff ffff ffff     ................
30006a04:	ffff ffff ffff ffff ffff ffff ffff ffff     ................
30006a14:	ffff ffff ffff ffff ffff ffff ffff ffff     ................
30006a24:	ffff ffff ffff ffff ffff ffff ffff ffff     ................
30006a34:	ffff ffff f0ff ffff f8ff f8ff f8ff f8ff     ................
30006a44:	f8ff f8ff ffff ffff ffff ffff ffff ffff     ................
30006a54:	ffff ffff ffff ffff 1210 11f0 ffff 0a10     ................
30006a64:	1210 11ef 1231 1231 02aa 1211 1210 11f1     ....1.1.........
30006a74:	1211 1231 ffff ffff ffff ffff ffff ffff     ..1.............
30006a84:	ffff ffff ffff ffff ffff ffff 1211 ff0f     ................
30006a94:	1231 1231 1210 1210 1210 1210 1210 1210     1.1.............
30006aa4:	1210 1210 1210 1210 1210 1210 1210 1210     ................
30006ab4:	1210 1210 1210 1210 1210 1210 1210 1210     ................
30006ac4:	1210 1210 1231 1231 1231 1231 1231 1232     ....1.1.1.1.1.2.
30006ad4:	1210 1210 1210 1211 1231 1231 ffff ffff     ........1.1.....
30006ae4:	ffff ffff ffff ffff ffff ffff ffff ffff     ................
30006af4:	ffff ffff ffff ffff ffff ffff ffff ffff     ................
30006b04:	ffff ffff f8ff ffff f8ff f8ff ffff ffff     ................
30006b14:	ffff ffff f8ff f8ff ffff f0ff ffff ffff     ................
30006b24:	ffff ffff ffff ffff ffff ffff ffff ffff     ................
30006b34:	f8ff ffff f8ff f8ff f8ff f8ff f8ff f8ff     ................
30006b44:	f8ff f8ff f8ff f8ff ffff f0ff ffff ffff     ................
30006b54:	ffff ffff ffff ffff 1210 11f0 ffff 0a10     ................
30006b64:	1210 11ef 1231 1231 02aa 1211 1210 11f1     ....1.1.........
30006b74:	1211 1231 ffff ffff ffff ffff ffff ffff     ..1.............
30006b84:	ffff ffff ffff ffff ffff ffff 19f1 ffff     ................
30006b94:	1232 1210 1210 1211 1210 1210 1210 1210     2...............
30006ba4:	1210 1210 1210 1210 1210 1210 1210 1210     ................
30006bb4:	1210 1210 1210 1210 1210 1210 1210 1210     ................
30006bc4:	1231 1211 1210 1231 1210 1210 1231 1231     1.....1.....1.1.
30006bd4:	ff0f 02af ffff ff1f ffff ffff ffff ffff     ................
30006be4:	ffff ffff ffff ffff ffff ffff ffff ffff     ................
30006bf4:	ffff ffff ffff ffff ffff ffff ffff ffff     ................
30006c04:	ffff ffff f8ff f8ff f8ff f8ff ffff ffff     ................
30006c14:	ffff ffff f8ff f8ff f8ff f8ff f8ff f8ff     ................
30006c24:	ffff f8ff ffff ffff ffff ffff f8ff ffff     ................
30006c34:	f8ff f8ff f8ff f8ff f8ff f8ff f8ff f8ff     ................
30006c44:	f8ff f8ff f8ff f8ff f8ff f8ff ffff f8ff     ................
30006c54:	ffff ffff ffff ffff 1210 11f0 ffff 0a10     ................
30006c64:	1210 11ef 1231 1231 02aa 1211 1210 11f1     ....1.1.........
30006c74:	1211 1231 ffff ffff ffff ffff ffff ffff     ..1.............
30006c84:	ffff ffff ffff ffff ffff ffff ffff ffff     ................
30006c94:	1211 1231 1210 1231 1210 1210 1210 1210     ..1...1.........
30006ca4:	1210 1210 1210 1210 1210 1210 1210 1210     ................
30006cb4:	1210 1210 1210 1210 1210 1210 1231 1210     ............1...
30006cc4:	1231 1231 09f0 1211 1a6f 11ef ffff 014f     1.1.....o.....O.
30006cd4:	ffff ffff ffff ffff ffff ffff ffff ffff     ................
30006ce4:	ffff ffff ffff ffff ffff ffff ffff ffff     ................
30006cf4:	ffff ffff ffff ffff ffff ffff ffff ffff     ................
30006d04:	f0ff ffff f8ff f8ff f8ff f8ff ffff ffff     ................
30006d14:	ffff ffff f8ff f8ff f8ff f8ff f8ff f8ff     ................
30006d24:	f8ff f8ff f8ff f8ff f8ff f8ff f8ff f8ff     ................
30006d34:	f8ff f8ff f8ff f8ff f8ff f8ff f8ff f8ff     ................
30006d44:	f8ff f8ff f8ff f8ff f8ff f8ff f8ff f8ff     ................
30006d54:	ffff ffff ffff ffff 1210 11f0 ffff 0a10     ................
30006d64:	1210 11ef 1231 1231 02aa 1211 1210 11f1     ....1.1.........
30006d74:	1211 1231 ffff ffff ffff ffff ffff ffff     ..1.............
30006d84:	ffff ffff ffff ffff ffff ffff ffff ffff     ................
30006d94:	1210 ffff 1231 1231 1210 1210 1210 1210     ....1.1.........
30006da4:	1210 1210 1210 1210 1210 1210 1210 1210     ................
30006db4:	1210 1210 1210 1210 1210 1210 1231 1231     ............1.1.
30006dc4:	1211 1231 ffff 19d1 ffff ffff ffff ffff     ..1.............
30006dd4:	ffff ffff ffff ffff ffff ffff ffff ffff     ................
30006de4:	ffff ffff ffff ffff ffff ffff ffff ffff     ................
30006df4:	ffff ffff ffff ffff ffff ffff ffff ffff     ................
30006e04:	f8ff f8ff f8ff f8ff f8ff f8ff ffff ffff     ................
30006e14:	ffff ffff f8ff f8ff f8ff f8ff f8ff f8ff     ................
30006e24:	f8ff f8ff f8ff f8ff f8ff f8ff f8ff f8ff     ................
30006e34:	f8ff f8ff f8ff f8ff f8ff f8ff f8ff f8ff     ................
30006e44:	f8ff f8ff f8ff f8ff f8ff f8ff f8ff f8ff     ................
30006e54:	ffff ffff ffff ffff 1210 11f0 ffff 0a10     ................
30006e64:	1210 11ef 1231 1231 02aa 1211 1210 11f1     ....1.1.........
30006e74:	1211 1231 ffff ffff ffff ffff ffff ffff     ..1.............
30006e84:	ffff ffff ffff ffff ffff ffff ffff ffff     ................
30006e94:	198f ffff 1232 1231 1210 1231 1210 1210     ....2.1...1.....
30006ea4:	1210 1210 1210 1210 1210 1210 1210 1210     ................
30006eb4:	1210 1210 1210 1210 1252 1231 1231 1211     ........R.1.1...
30006ec4:	ffff 11d0 ffff ffff ffff ffff ffff ffff     ................
30006ed4:	ffff ffff ffff ffff ffff ffff ffff ffff     ................
30006ee4:	ffff ffff ffff ffff ffff ffff ffff ffff     ................
30006ef4:	ffff ffff ffff ffff ffff ffff f8ff ffff     ................
30006f04:	f8ff f8ff f8ff f8ff ffff ffff ffff ffff     ................
30006f14:	ffff ffff f8ff ffff f8ff f8ff f8ff f8ff     ................
30006f24:	f8ff f8ff f8ff f8ff f8ff f8ff f8ff f8ff     ................
30006f34:	f8ff f8ff f8ff f8ff f8ff f8ff f8ff f8ff     ................
30006f44:	f8ff f8ff f8ff f8ff f8ff f8ff f8ff f8ff     ................
30006f54:	ffff f8ff ffff ffff 1210 11f0 ffff 0a10     ................
30006f64:	1210 11ef 1231 1231 02aa 1211 1210 11f1     ....1.1.........
30006f74:	1211 1231 ffff ffff ffff ffff ffff ffff     ..1.............
30006f84:	ffff ffff ffff ffff ffff ffff ffff ffff     ................
30006f94:	ffff ffff 1211 122f 1210 1232 1210 1210     ....../...2.....
30006fa4:	1210 1210 1210 1210 1210 1210 1231 1231     ............1.1.
30006fb4:	1210 1210 1231 1210 1231 1231 11ef 1210     ....1...1.1.....
30006fc4:	ffff ffff ffff ffff ffff ffff ffff ffff     ................
30006fd4:	ffff ffff ffff ffff ffff ffff ffff ffff     ................
30006fe4:	ffff ffff ffff ffff ffff ffff ffff ffff     ................
30006ff4:	ffff ffff ffff ffff ffff ffff f8ff ffff     ................
30007004:	f8ff f8ff f8ff f8ff ffff ffff ffff ffff     ................
30007014:	ffff ffff ffff ffff f8ff f8ff f8ff f8ff     ................
30007024:	f8ff f8ff f8ff f8ff f8ff f8ff f8ff f8ff     ................
30007034:	f8ff f8ff f8ff f8ff f8ff f8ff f8ff f8ff     ................
30007044:	f8ff f8ff f8ff f8ff f8ff f8ff f8ff f8ff     ................
30007054:	ffff f8ff ffff ffff 1210 11f0 ffff 0a10     ................
30007064:	1210 11ef 1231 1231 02aa 1211 1210 11f1     ....1.1.........
30007074:	1211 1231 ffff ffff ffff ffff ffff ffff     ..1.............
30007084:	ffff ffff ffff ffff ffff ffff ffff ffff     ................
30007094:	ffff ffff 1210 ffff 1252 1231 1210 1211     ........R.1.....
300070a4:	1210 1210 1231 1211 1232 1252 1210 1211     ....1...2.R.....
300070b4:	1210 1210 1231 1231 1210 1211 ffff ffff     ....1.1.........
300070c4:	ffff ffff ffff ffff ffff ffff ffff ffff     ................
300070d4:	ffff ffff ffff ffff ffff ffff ffff ffff     ................
300070e4:	ffff ffff ffff ffff ffff ffff ffff ffff     ................
300070f4:	ffff ffff ffff ffff ffff ffff f8ff f8ff     ................
30007104:	f8ff f8ff f8ff f8ff ffff ffff ffff ffff     ................
30007114:	ffff ffff ffff ffff f8ff ffff f8ff f8ff     ................
30007124:	f8ff f8ff f8ff f8ff f8ff f8ff f8ff f8ff     ................
30007134:	f8ff f8ff f8ff f8ff f8ff f8ff f8ff f8ff     ................
30007144:	f8ff f8ff f8ff f8ff f8ff f8ff f8ff f8ff     ................
30007154:	ffff f8ff ffff ffff 1210 11f0 ffff 0a10     ................
30007164:	1210 11ef 1231 1231 02aa 1211 1210 11f1     ....1.1.........
30007174:	1211 1231 ffff ffff ffff ffff ffff ffff     ..1.............
30007184:	ffff ffff ffff ffff ffff ffff ffff ffff     ................
30007194:	ffff ffff ffff ffff 1231 1210 1231 1252     ........1...1.R.
300071a4:	1252 1231 1231 1231 1210 1231 1210 1210     R.1.1.1...1.....
300071b4:	1232 1210 1211 1231 ffff 11f0 ffff ffff     2.....1.........
300071c4:	ffff ffff ffff ffff ffff ffff ffff ffff     ................
300071d4:	ffff ffff ffff ffff ffff ffff ffff ffff     ................
300071e4:	ffff ffff ffff ffff ffff ffff ffff ffff     ................
300071f4:	ffff ffff ffff ffff f8ff ffff f8ff f8ff     ................
30007204:	f8ff f8ff f8ff f8ff ffff ffff ffff ffff     ................
30007214:	ffff ffff ffff ffff f8ff ffff f8ff f8ff     ................
30007224:	f8ff f8ff f8ff f8ff f8ff f8ff f8ff f8ff     ................
30007234:	f8ff f8ff f8ff f8ff f8ff f8ff f8ff f8ff     ................
30007244:	f8ff f8ff f8ff f8ff f8ff f8ff f8ff f8ff     ................
30007254:	ffff ffff ffff ffff 1210 11f0 ffff 0a10     ................
30007264:	1210 11ef 1231 1231 02aa 1211 1210 11f1     ....1.1.........
30007274:	1211 1231 ffff ffff ffff ffff ffff ffff     ..1.............
30007284:	ffff ffff ffff ffff ffff ffff ffff ffff     ................
30007294:	ffff ffff ffff ffff 1211 19ce 1231 1231     ............1.1.
300072a4:	1232 1231 1210 1231 018c 1210 1231 ffff     2.1...1.....1...
300072b4:	1231 1252 114d 1210 ffff ffff ffff ffff     1.R.M...........
300072c4:	ffff ffff ffff ffff ffff ffff ffff ffff     ................
300072d4:	ffff ffff ffff ffff ffff ffff ffff ffff     ................
300072e4:	ffff ffff ffff ffff ffff ffff ffff ffff     ................
300072f4:	ffff ffff ffff ffff f8ff ffff f8ff f8ff     ................
30007304:	f8ff f8ff ffff f8ff ffff ffff ffff ffff     ................
30007314:	ffff ffff ffff ffff ffff ffff f8ff f8ff     ................
30007324:	f8ff f8ff f8ff f8ff f8ff f8ff f8ff f8ff     ................
30007334:	f8ff f8ff f8ff f8ff f8ff f8ff f8ff f8ff     ................
30007344:	f8ff f8ff f8ff f8ff f8ff f8ff ffff ffff     ................
30007354:	ffff ffff ffff ffff 1210 11f0 ffff 0a10     ................
30007364:	1210 11ef 1231 1231 02aa 1211 1210 11f1     ....1.1.........
30007374:	1211 1231 ffff ffff ffff ffff ffff ffff     ..1.............
30007384:	ffff ffff ffff ffff ffff ffff ffff ffff     ................
30007394:	ffff ffff ffff ffff ffff ffff 1231 1210     ............1...
300073a4:	1211 1210 ffff 01ef ffff ffff 1231 1210     ............1...
300073b4:	1210 1253 ffff 294a ffff ffff ffff ffff     ..S...J)........
300073c4:	ffff ffff ffff ffff ffff ffff ffff ffff     ................
300073d4:	ffff ffff ffff ffff ffff ffff ffff ffff     ................
300073e4:	ffff ffff ffff ffff ffff ffff ffff ffff     ................
300073f4:	ffff ffff ffff ffff f8ff ffff f8ff f8ff     ................
30007404:	f8ff f8ff ffff f8ff ffff ffff ffff ffff     ................
30007414:	ffff ffff ffff ffff ffff ffff ffff ffff     ................
30007424:	f8ff f8ff f8ff f8ff f8ff f8ff f8ff f8ff     ................
30007434:	f8ff f8ff f8ff f8ff f8ff f8ff ffff f8ff     ................
30007444:	ffff ffff ffff ffff ffff ffff ffff ffff     ................
30007454:	ffff ffff ffff ffff 1210 11f0 ffff 0a10     ................
30007464:	1210 11ef 1231 1231 02aa 1211 1210 11f1     ....1.1.........
30007474:	1211 1231 ffff ffff ffff ffff ffff ffff     ..1.............
30007484:	ffff ffff ffff ffff ffff ffff ffff ffff     ................
30007494:	ffff ffff ffff ffff ffff ffff ffff ffff     ................
300074a4:	ffff ffff ffff ffff 1210 ffff 1231 1210     ............1...
300074b4:	ffff 1211 ffff ffff ffff ffff ffff ffff     ................
300074c4:	ffff ffff ffff ffff ffff ffff ffff ffff     ................
300074d4:	ffff ffff ffff ffff ffff ffff ffff ffff     ................
300074e4:	ffff ffff ffff ffff ffff ffff ffff ffff     ................
300074f4:	ffff ffff ffff ffff f8ff f8ff f8ff f8ff     ................
30007504:	f8ff f8ff ffff f8ff ffff ffff ffff ffff     ................
30007514:	ffff ffff ffff ffff ffff ffff ffff ffff     ................
30007524:	f8ff f8ff f8ff f8ff f8ff f8ff f8ff f8ff     ................
30007534:	f8ff f8ff f8ff f8ff ffff f8ff ffff ffff     ................
30007544:	ffff ffff ffff ffff ffff ffff ffff ffff     ................
30007554:	ffff ffff ffff ffff 1210 11f0 ffff 0a10     ................
30007564:	1210 11ef 1231 1231 02aa 1211 1210 11f1     ....1.1.........
30007574:	1211 1231 ffff ffff ffff ffff ffff ffff     ..1.............
30007584:	ffff ffff ffff ffff ffff ffff ffff ffff     ................
30007594:	ffff ffff ffff ffff ffff ffff ffff ffff     ................
300075a4:	ffff ffff ff0f ffff 1210 11f0 1171 1210     ............q...
300075b4:	ffff ffff ffff ffff ffff ffff ffff ffff     ................
300075c4:	ffff ffff ffff ffff ffff ffff ffff ffff     ................
300075d4:	ffff ffff ffff ffff ffff ffff ffff ffff     ................
300075e4:	ffff ffff ffff ffff ffff ffff ffff ffff     ................
300075f4:	ffff ffff ffff ffff f8ff f8ff f8ff f8ff     ................
30007604:	f8ff f8ff ffff f8ff f8ff ffff f8ff f8ff     ................
30007614:	f8ff f8ff ffff ffff ffff ffff ffff ffff     ................
30007624:	f0ff ffff f8ff f8ff f8ff f8ff f8ff f8ff     ................
30007634:	f8ff f8ff f0ff f8ff f8ff f8ff ffff ffff     ................
30007644:	ffff ffff ffff ffff ffff ffff ffff ffff     ................
30007654:	ffff ffff ffff ffff 1210 11f0 ffff 0a10     ................
30007664:	1210 11ef 1231 1231 02aa 1211 1210 11f1     ....1.1.........
30007674:	1211 1231 ffff ffff ffff ffff ffff ffff     ..1.............
30007684:	ffff ffff ffff ffff ffff ffff ffff ffff     ................
30007694:	ffff ffff ffff ffff ffff ffff ffff ffff     ................
300076a4:	ffff ffff 09f0 ffff 1211 1210 ffff 212d     ..............-!
300076b4:	ffff ffff ffff ffff ffff ffff ffff ffff     ................
300076c4:	ffff ffff ffff ffff ffff ffff ffff ffff     ................
300076d4:	ffff ffff ffff ffff ffff ffff ffff ffff     ................
300076e4:	ffff ffff ffff ffff ffff ffff ffff ffff     ................
300076f4:	ffff ffff f8ff ffff f8ff f8ff f8ff f8ff     ................
30007704:	f8ff f8ff ffff f8ff f8ff f8ff f8ff f8ff     ................
30007714:	f8ff f8ff f8ff f8ff ffff f8ff ffff ffff     ................
30007724:	ffff ffff f8ff f8ff f8ff f8ff f8ff f8ff     ................
30007734:	f8ff f8ff f8ff f8ff f8ff f8ff f8ff f8ff     ................
30007744:	ffff ffff ffff ffff ffff ffff ffff ffff     ................
30007754:	ffff ffff ffff ffff 1210 11f0 ffff 0a10     ................
30007764:	1210 11ef 1231 1231 02aa 1211 1210 11f1     ....1.1.........
30007774:	1211 1231 ffff ffff ffff ffff ffff ffff     ..1.............
30007784:	ffff ffff ffff ffff ffff ffff ffff ffff     ................
30007794:	ffff ffff ffff ffff ffff ffff ffff ffff     ................
300077a4:	ffff ffff 1210 ff0f 0252 1210 ffff ffff     ........R.......
300077b4:	ffff ffff ffff ffff ffff ffff ffff ffff     ................
300077c4:	ffff ffff ffff ffff ffff ffff ffff ffff     ................
300077d4:	ffff ffff ffff ffff ffff ffff ffff ffff     ................
300077e4:	ffff ffff ffff ffff ffff ffff ffff ffff     ................
300077f4:	ffff ffff f8ff ffff f8ff f8ff f8ff f8ff     ................
30007804:	f8ff f8ff ffff f8ff f8ff f8ff f8ff f8ff     ................
30007814:	f8ff f8ff f8ff f8ff f8ff f8ff f8ff f8ff     ................
30007824:	f8ff f8ff f8ff f8ff f8ff f8ff f8ff f8ff     ................
30007834:	f8ff f8ff f8ff f8ff f8ff f8ff f8ff f8ff     ................
30007844:	ffff f8ff ffff ffff ffff ffff ffff ffff     ................
30007854:	ffff ffff ffff ffff 1210 11f0 ffff 0a10     ................
30007864:	1210 11ef 1231 1231 02aa 1211 1210 11f1     ....1.1.........
30007874:	1211 1231 ffff ffff ffff ffff ffff ffff     ..1.............
30007884:	ffff ffff ffff ffff ffff ffff ffff ffff     ................
30007894:	ffff ffff ffff ffff ffff ffff ffff ffff     ................
300078a4:	ffff ffff 02b5 ffff ffff 02aa ffff ffff     ................
300078b4:	ffff ffff ffff ffff ffff ffff ffff ffff     ................
300078c4:	ffff ffff ffff ffff ffff ffff ffff ffff     ................
300078d4:	ffff ffff ffff ffff ffff ffff ffff ffff     ................
300078e4:	ffff ffff ffff ffff ffff ffff ffff ffff     ................
300078f4:	ffff ffff f8ff f8ff f8ff f8ff f8ff f8ff     ................
30007904:	f8ff f8ff ffff f8ff f8ff f8ff f8ff f8ff     ................
30007914:	f8ff f8ff f8ff f8ff f8ff f8ff f8ff f8ff     ................
30007924:	f8ff f8ff f8ff f8ff f8ff f8ff f8ff f8ff     ................
30007934:	f8ff f8ff f8ff f8ff f8ff f8ff f8ff f8ff     ................
30007944:	f8ff f8ff ffff ffff ffff ffff ffff ffff     ................
30007954:	ffff ffff ffff ffff 1210 11f0 ffff 0a10     ................
30007964:	1210 11ef 1231 1231 02aa 1211 1210 11f1     ....1.1.........
30007974:	1211 1231 ffff ffff ffff ffff ffff ffff     ..1.............
30007984:	ffff ffff ffff ffff ffff ffff ffff ffff     ................
30007994:	ffff ffff ffff ffff ffff ffff ffff ffff     ................
300079a4:	ffff ffff ffff ffff ffff ffff ffff ffff     ................
300079b4:	ffff ffff ffff ffff ffff ffff ffff ffff     ................
300079c4:	ffff ffff ffff ffff ffff ffff ffff ffff     ................
300079d4:	ffff ffff ffff ffff ffff ffff ffff ffff     ................
300079e4:	ffff ffff ffff ffff ffff ffff ffff ffff     ................
300079f4:	ffff ffff f8ff f8ff f8ff f8ff f8ff f8ff     ................
30007a04:	f8ff f8ff ffff f8ff f8ff ffff f8ff f8ff     ................
30007a14:	f8ff f8ff f8ff f8ff f8ff f8ff f8ff f8ff     ................
30007a24:	f8ff f8ff f8ff f8ff f8ff f8ff f8ff f8ff     ................
30007a34:	f8ff f8ff f8ff f8ff f8ff f8ff f8ff f8ff     ................
30007a44:	f8ff f8ff ffff ffff ffff ffff ffff ffff     ................
30007a54:	ffff ffff ffff ffff 1210 11f0 ffff 0a10     ................
30007a64:	1210 11ef 1231 1231 02aa 1211 1210 11f1     ....1.1.........
30007a74:	1211 1231 ffff ffff ffff ffff ffff ffff     ..1.............
30007a84:	ffff ffff ffff ffff ffff ffff ffff ffff     ................
30007a94:	ffff ffff ffff ffff ffff ffff ffff ffff     ................
30007aa4:	ffff ffff ffff ffff ffff ffff ffff ffff     ................
30007ab4:	ffff ffff ffff ffff ffff ffff ffff ffff     ................
30007ac4:	ffff ffff ffff ffff ffff ffff ffff ffff     ................
30007ad4:	ffff ffff ffff ffff ffff ffff ffff ffff     ................
30007ae4:	ffff ffff ffff ffff ffff ffff ffff ffff     ................
30007af4:	f8ff ffff f8ff f8ff f8ff f8ff f8ff f8ff     ................
30007b04:	f8ff f8ff ffff f8ff ffff ffff f8ff f8ff     ................
30007b14:	f8ff f8ff f8ff f8ff f8ff f8ff f8ff f8ff     ................
30007b24:	f8ff f8ff f8ff f8ff f8ff f8ff f8ff f8ff     ................
30007b34:	f8ff f8ff f8ff f8ff f8ff f8ff f8ff f8ff     ................
30007b44:	f8ff f8ff ffff ffff ffff ffff ffff ffff     ................
30007b54:	ffff ffff ffff ffff 1210 11f0 ffff 0a10     ................
30007b64:	1210 11ef 1231 1231 02aa 1211 1210 11f1     ....1.1.........
30007b74:	1211 1231 ffff ffff ffff ffff ffff ffff     ..1.............
30007b84:	ffff ffff ffff ffff ffff ffff ffff ffff     ................
30007b94:	ffff ffff ffff ffff ffff ffff ffff ffff     ................
30007ba4:	ffff ffff ffff ffff ffff ffff ffff ffff     ................
30007bb4:	ffff ffff ffff ffff ffff ffff ffff ffff     ................
30007bc4:	ffff ffff ffff ffff ffff ffff ffff ffff     ................
30007bd4:	ffff ffff ffff ffff ffff ffff ffff ffff     ................
30007be4:	ffff ffff ffff ffff ffff ffff ffff ffff     ................
30007bf4:	f8ff f8ff f8ff f8ff f8ff f8ff f8ff f8ff     ................
30007c04:	f8ff f8ff ffff f8ff ffff ffff f8ff ffff     ................
30007c14:	f8ff f8ff f8ff f8ff f8ff f8ff f8ff f8ff     ................
30007c24:	f8ff f8ff f8ff f8ff f8ff f8ff f8ff f8ff     ................
30007c34:	f8ff f8ff f8ff f8ff f8ff f8ff f8ff f8ff     ................
30007c44:	f8ff f8ff ffff ffff ffff ffff ffff ffff     ................
30007c54:	ffff ffff ffff ffff 1210 11f0 ffff 0a10     ................
30007c64:	1210 11ef 1231 1231 02aa 1211 1210 11f1     ....1.1.........
30007c74:	1211 1231 ffff ffff ffff ffff ffff ffff     ..1.............
30007c84:	ffff ffff ffff ffff ffff ffff ffff ffff     ................
30007c94:	ffff ffff ffff ffff ffff ffff ffff ffff     ................
30007ca4:	ffff ffff ffff ffff ffff ffff ffff ffff     ................
30007cb4:	ffff ffff ffff ffff ffff ffff ffff ffff     ................
30007cc4:	ffff ffff ffff ffff ffff ffff ffff ffff     ................
30007cd4:	ffff ffff ffff ffff ffff ffff ffff ffff     ................
30007ce4:	ffff ffff ffff ffff ffff ffff f8ff ffff     ................
30007cf4:	f8ff f8ff f8ff f8ff f8ff f8ff f8ff f8ff     ................
30007d04:	f8ff f8ff ffff ffff ffff ffff ffff ffff     ................
30007d14:	f8ff f8ff f8ff f8ff f8ff f8ff f8ff f8ff     ................
30007d24:	f8ff f8ff f8ff f8ff f8ff f8ff f8ff f8ff     ................
30007d34:	f8ff f8ff f8ff f8ff f8ff f8ff f8ff f8ff     ................
30007d44:	ffff ffff ffff ffff ffff ffff ffff ffff     ................
30007d54:	ffff ffff ffff ffff 1210 11f0 ffff 0a10     ................
30007d64:	1210 11ef 1231 1231 02aa 1211 1210 11f1     ....1.1.........
30007d74:	1211 1231 ffff ffff ffff ffff ffff ffff     ..1.............
30007d84:	ffff ffff ffff ffff ffff ffff ffff ffff     ................
30007d94:	ffff ffff ffff ffff ffff ffff ffff ffff     ................
30007da4:	ffff ffff ffff ffff ffff ffff ffff ffff     ................
30007db4:	ffff ffff ffff ffff ffff ffff ffff ffff     ................
30007dc4:	ffff ffff ffff ffff ffff ffff ffff ffff     ................
30007dd4:	ffff ffff ffff ffff ffff ffff ffff ffff     ................
30007de4:	ffff ffff ffff ffff ffff ffff c8ff ffff     ................
30007df4:	f8ff f8ff f8ff f8ff f8ff f8ff f8ff f8ff     ................
30007e04:	f8ff f8ff ffff ffff ffff ffff ffff ffff     ................
30007e14:	ffff ffff f8ff f8ff f8ff f8ff f8ff f8ff     ................
30007e24:	f8ff f8ff f8ff f8ff f8ff f8ff f8ff f8ff     ................
30007e34:	f8ff f8ff f8ff f8ff f8ff f8ff ffff ffff     ................
30007e44:	ffff ffff ffff ffff ffff ffff ffff ffff     ................
30007e54:	ffff ffff ffff ffff 1210 11f0 ffff 0a10     ................
30007e64:	1210 11ef 1231 1231 02aa 1211 1210 11f1     ....1.1.........
30007e74:	1211 1231 ffff ffff ffff ffff ffff ffff     ..1.............
30007e84:	ffff ffff ffff ffff ffff ffff ffff ffff     ................
30007e94:	ffff ffff ffff ffff ffff ffff ffff ffff     ................
30007ea4:	ffff ffff ffff ffff ffff ffff ffff ffff     ................
30007eb4:	ffff ffff ffff ffff ffff ffff ffff ffff     ................
30007ec4:	ffff ffff ffff ffff ffff ffff ffff ffff     ................
30007ed4:	ffff ffff ffff ffff ffff ffff ffff ffff     ................
30007ee4:	ffff ffff ffff ffff ffff ffff c8ff ffff     ................
30007ef4:	f8ff f8ff f8ff f8ff f8ff f8ff f8ff f8ff     ................
30007f04:	f8ff f8ff ffff ffff ffff ffff ffff ffff     ................
30007f14:	ffff ffff ffff ffff f8ff f8ff f8ff f8ff     ................
30007f24:	f8ff f8ff f8ff f8ff f8ff f8ff f8ff f8ff     ................
30007f34:	f8ff f8ff ffff f8ff ffff ffff ffff ffff     ................
30007f44:	ffff ffff ffff ffff ffff ffff ffff ffff     ................
30007f54:	ffff ffff ffff ffff 1210 11f0 ffff 0a10     ................
30007f64:	1210 11ef 1231 1231 02aa 1211 1210 11f1     ....1.1.........
30007f74:	1211 1231 ffff ffff ffff ffff ffff ffff     ..1.............
30007f84:	ffff ffff ffff ffff ffff ffff ffff ffff     ................
30007f94:	ffff ffff ffff ffff ffff ffff ffff ffff     ................
30007fa4:	ffff ffff ffff ffff ffff ffff ffff ffff     ................
30007fb4:	ffff ffff ffff ffff ffff ffff ffff ffff     ................
30007fc4:	ffff ffff ffff ffff ffff ffff ffff ffff     ................
30007fd4:	ffff ffff ffff ffff ffff ffff ffff ffff     ................
30007fe4:	ffff ffff ffff ffff ffff ffff f8ff ffff     ................
30007ff4:	f8ff f8ff f8ff f8ff f8ff f8ff f8ff f8ff     ................
30008004:	f8ff f8ff ffff ffff ffff ffff ffff ffff     ................
30008014:	ffff ffff ffff ffff ffff ffff f8ff ffff     ................
30008024:	f8ff f8ff f8ff f8ff f8ff f8ff ffff f8ff     ................
30008034:	ffff ffff ffff ffff ffff ffff ffff ffff     ................
30008044:	ffff ffff ffff ffff ffff ffff ffff ffff     ................
30008054:	ffff ffff ffff ffff 1210 11f0 ffff 0a10     ................
30008064:	1210 11ef 1231 1231 02aa 1211 1210 11f1     ....1.1.........
30008074:	1211 1231 ffff ffff ffff ffff ffff ffff     ..1.............
30008084:	ffff ffff ffff ffff ffff ffff ffff ffff     ................
30008094:	ffff ffff ffff ffff ffff ffff ffff ffff     ................
300080a4:	ffff ffff ffff ffff ffff ffff ffff ffff     ................
300080b4:	ffff ffff ffff ffff ffff ffff ffff ffff     ................
300080c4:	ffff ffff ffff ffff ffff ffff ffff ffff     ................
300080d4:	ffff ffff ffff ffff ffff ffff ffff ffff     ................
300080e4:	ffff ffff ffff ffff ffff ffff ffff ffff     ................
300080f4:	f8ff f8ff f8ff f8ff f8ff f8ff f8ff f8ff     ................
30008104:	f8ff f8ff ffff ffff ffff ffff ffff ffff     ................
30008114:	ffff ffff ffff ffff ffff ffff ffff ffff     ................
30008124:	ffff ffff ffff ffff ffff ffff ffff ffff     ................
30008134:	ffff ffff ffff ffff ffff ffff ffff ffff     ................
30008144:	ffff ffff ffff ffff ffff ffff ffff ffff     ................
30008154:	ffff ffff ffff ffff 1210 11f0 ffff 0a10     ................
30008164:	1210 11ef 1231 1231 02aa 1211 1210 11f1     ....1.1.........
30008174:	1211 1231 ffff ffff ffff ffff ffff ffff     ..1.............
30008184:	ffff ffff ffff ffff ffff ffff ffff ffff     ................
30008194:	ffff ffff ffff ffff ffff ffff ffff ffff     ................
300081a4:	ffff ffff ffff ffff ffff ffff ffff ffff     ................
300081b4:	03ef ffff 1211 1231 ffff 1231 0a30 09f1     ......1...1.0...
300081c4:	1252 0a11 ffff ffff ffff ffff ffff ffff     R...............
300081d4:	ffff ffff ffff ffff ffff ffff ffff ffff     ................
300081e4:	ffff ffff ffff ffff ffff ffff ffff ffff     ................
300081f4:	f8ff f8ff f8ff f8ff f8ff f8ff f8ff f8ff     ................
30008204:	f8ff f8ff ffff ffff ffff ffff ffff ffff     ................
30008214:	ffff ffff ffff ffff ffff ffff ffff ffff     ................
30008224:	ffff ffff ffff ffff ffff ffff ffff ffff     ................
30008234:	ffff ffff ffff ffff ffff ffff ffff ffff     ................
30008244:	ffff ffff ffff ffff ffff ffff ffff ffff     ................
30008254:	ffff ffff ffff ffff 1210 11f0 ffff 0a10     ................
30008264:	1210 11ef 1231 1231 02aa 1211 1210 11f1     ....1.1.........
30008274:	1211 1231 ffff ffff ffff ffff ffff ffff     ..1.............
30008284:	ffff ffff ffff ffff ffff ffff ffff ffff     ................
30008294:	ffff ffff ffff ffff ffff ffff ffff ffff     ................
300082a4:	ffff ffff ffff ffff ffff ffff ffff ffff     ................
300082b4:	0a10 ffff 1232 1231 01eb 0a31 1231 1211     ....2.1...1.1...
300082c4:	1231 1231 ffff 01ef ffff ffff ffff ffff     1.1.............
300082d4:	ffff ffff ffff ffff ffff ffff ffff ffff     ................
300082e4:	ffff ffff ffff ffff ffff ffff ffff ffff     ................
300082f4:	f8ff f8ff f8ff f8ff f8ff f8ff f8ff f8ff     ................
30008304:	f8ff f8ff ffff ffff ffff ffff ffff ffff     ................
30008314:	ffff ffff ffff ffff ffff ffff ffff ffff     ................
30008324:	ffff ffff ffff ffff ffff ffff ffff ffff     ................
30008334:	ffff ffff ffff ffff ffff ffff ffff ffff     ................
30008344:	ffff ffff ffff ffff ffff ffff ffff ffff     ................
30008354:	ffff ffff ffff ffff 1210 11f0 ffff 0a10     ................
30008364:	1210 11ef 1231 1231 02aa 1211 1210 11f1     ....1.1.........
30008374:	1211 1231 ffff ffff ffff ffff ffff ffff     ..1.............
30008384:	ffff ffff ffff ffff ffff ffff ffff ffff     ................
30008394:	ffff ffff ffff ffff ffff ffff ffff ffff     ................
300083a4:	ffff ffff ffff ffff ffff ffff ffff ffff     ................
300083b4:	11f0 ffff 1253 1231 11ce 1231 1252 1210     ....S.1...1.R...
300083c4:	1210 1253 ffff 198f ffff ffff ffff ffff     ..S.............
300083d4:	ffff ffff ffff ffff ffff ffff ffff ffff     ................
300083e4:	ffff ffff ffff ffff ffff ffff ffff ffff     ................
300083f4:	f8ff ffff f8ff f8ff f8ff f8ff f8ff f8ff     ................
30008404:	f8ff f8ff ffff ffff ffff ffff ffff ffff     ................
30008414:	ffff ffff ffff ffff ffff ffff ffff ffff     ................
30008424:	ffff ffff ffff ffff ffff ffff ffff ffff     ................
30008434:	ffff ffff ffff ffff ffff ffff ffff ffff     ................
30008444:	ffff ffff ffff ffff ffff ffff ffff ffff     ................
30008454:	ffff ffff ffff ffff 1210 11f0 ffff 0a10     ................
30008464:	1210 11ef 1231 1231 02aa 1211 1210 11f1     ....1.1.........
30008474:	1211 1231 ffff ffff ffff ffff ffff ffff     ..1.............
30008484:	ffff ffff ffff ffff ffff ffff ffff ffff     ................
30008494:	ffff ffff ffff ffff ffff ffff ffff ffff     ................
300084a4:	ffff ffff ffff ffff ffff ffff ffff ffff     ................
300084b4:	1211 ffff 1252 1210 122e 1231 1252 1210     ....R.....1.R...
300084c4:	1210 1252 ffff 19d1 ffff ffff ffff ffff     ..R.............
300084d4:	ffff ffff ffff ffff ffff ffff ffff ffff     ................
300084e4:	ffff ffff ffff ffff ffff ffff ffff ffff     ................
300084f4:	f8ff ffff f8ff f8ff f8ff f8ff f8ff f8ff     ................
30008504:	ffff f8ff ffff ffff ffff ffff ffff ffff     ................
30008514:	ffff ffff ffff ffff ffff ffff ffff ffff     ................
30008524:	ffff ffff ffff ffff ffff ffff ffff ffff     ................
30008534:	ffff ffff ffff ffff ffff ffff ffff ffff     ................
30008544:	ffff ffff ffff ffff ffff ffff ffff ffff     ................
30008554:	ffff ffff ffff ffff 1210 11f0 ffff 0a10     ................
30008564:	1210 11ef 1231 1231 02aa 1211 1210 11f1     ....1.1.........
30008574:	1211 1231 ffff ffff ffff ffff ffff ffff     ..1.............
30008584:	ffff ffff ffff ffff ffff ffff ffff ffff     ................
30008594:	ffff ffff ffff ffff ffff ffff ffff ffff     ................
300085a4:	ffff ffff ffff ffff ffff ffff ffff ffff     ................
300085b4:	1210 ffff 1232 1210 122e 1231 1232 1210     ....2.....1.2...
300085c4:	1210 1232 ffff 19d1 ffff ffff ffff ffff     ..2.............
300085d4:	ffff ffff ffff ffff ffff ffff ffff ffff     ................
300085e4:	ffff ffff ffff ffff ffff ffff ffff ffff     ................
300085f4:	ffff ffff f8ff f8ff f8ff f8ff f8ff f8ff     ................
30008604:	ffff f8ff ffff ffff ffff ffff ffff ffff     ................
30008614:	ffff ffff ffff ffff ffff ffff ffff ffff     ................
30008624:	ffff ffff ffff ffff ffff ffff ffff ffff     ................
30008634:	ffff ffff ffff ffff ffff ffff ffff ffff     ................
30008644:	ffff ffff ffff ffff ffff ffff ffff ffff     ................
30008654:	ffff ffff ffff ffff 1210 11f0 ffff 0a10     ................
30008664:	1210 11ef 1231 1231 02aa 1211 1210 11f1     ....1.1.........
30008674:	1211 1231 ffff ffff ffff ffff ffff ffff     ..1.............
30008684:	ffff ffff ffff ffff ffff ffff ffff ffff     ................
30008694:	ffff ffff ffff ffff ffff ffff ffff ffff     ................
300086a4:	ffff ffff ffff ffff ffff ffff ffff ffff     ................
300086b4:	1210 ffff 1232 1210 122e 1231 1232 1210     ....2.....1.2...
300086c4:	1210 1232 ffff 19d1 ffff ffff ffff ffff     ..2.............
300086d4:	ffff ffff ffff ffff ffff ffff ffff ffff     ................
300086e4:	ffff ffff ffff ffff ffff ffff ffff ffff     ................
300086f4:	ffff ffff f8ff ffff f8ff f8ff f8ff f8ff     ................
30008704:	ffff ffff ffff ffff ffff ffff ffff ffff     ................
30008714:	ffff ffff ffff ffff ffff ffff ffff ffff     ................
30008724:	ffff ffff ffff ffff ffff ffff ffff ffff     ................
30008734:	ffff ffff ffff ffff ffff ffff ffff ffff     ................
30008744:	ffff ffff ffff ffff ffff ffff ffff ffff     ................
30008754:	ffff ffff ffff ffff 1210 11f0 ffff 0a10     ................
30008764:	1210 11ef 1231 1231 02aa 1211 1210 11f1     ....1.1.........
30008774:	1211 1231 ffff ffff ffff ffff ffff ffff     ..1.............
30008784:	ffff ffff ffff ffff ffff ffff ffff ffff     ................
30008794:	ffff ffff ffff ffff ffff ffff ffff ffff     ................
300087a4:	ffff ffff ffff ffff ffff ffff ffff ffff     ................
300087b4:	1210 ffff 1232 1210 122e 1231 1232 1210     ....2.....1.2...
300087c4:	1210 1232 ffff 19ce ffff ffff ffff ffff     ..2.............
300087d4:	ffff ffff ffff ffff ffff ffff ffff ffff     ................
300087e4:	ffff ffff ffff ffff ffff ffff ffff ffff     ................
300087f4:	ffff ffff ffff ffff ffff ffff ffff ffff     ................
30008804:	ffff ffff ffff ffff ffff ffff ffff ffff     ................
30008814:	ffff ffff ffff ffff ffff ffff ffff ffff     ................
30008824:	ffff ffff ffff ffff ffff ffff ffff ffff     ................
30008834:	ffff ffff ffff ffff ffff ffff ffff ffff     ................
30008844:	ffff ffff ffff ffff ffff ffff ffff ffff     ................
30008854:	ffff ffff ffff ffff 1210 11f0 ffff 0a10     ................
30008864:	1210 11ef 1231 1231 02aa 1211 1210 11f1     ....1.1.........
30008874:	1211 1231 ffff ffff ffff ffff ffff ffff     ..1.............
30008884:	ffff ffff ffff ffff ffff ffff ffff ffff     ................
30008894:	ffff ffff ffff ffff ffff ffff ffff ffff     ................
300088a4:	ffff ffff ffff ffff ffff ffff ffff ffff     ................
300088b4:	1210 ffff 1232 1210 122e 1231 1232 1210     ....2.....1.2...
300088c4:	1210 1232 ffff ffff ffff ffff ffff ffff     ..2.............
300088d4:	ffff ffff ffff ffff ffff ffff ffff ffff     ................
300088e4:	ffff ffff ffff ffff ffff ffff ffff ffff     ................
300088f4:	ffff ffff ffff ffff ffff ffff ffff ffff     ................
30008904:	ffff ffff ffff ffff ffff ffff ffff ffff     ................
30008914:	ffff ffff ffff ffff ffff ffff ffff ffff     ................
30008924:	ffff ffff ffff ffff ffff ffff ffff ffff     ................
30008934:	ffff ffff ffff ffff ffff ffff ffff ffff     ................
30008944:	ffff ffff ffff ffff ffff ffff ffff ffff     ................
30008954:	ffff ffff ffff ffff 1210 1210 ffff 0a71     ..............q.
30008964:	1210 01ef 1231 1231 02aa 1211 1210 11f1     ....1.1.........
30008974:	1211 1231 ffff ffff ffff ffff ffff ffff     ..1.............
30008984:	ffff ffff ffff ffff ffff ffff ffff ffff     ................
30008994:	ffff ffff ffff ffff ffff ffff ffff ffff     ................
300089a4:	ffff ffff ffff ffff ffff ffff ffff ffff     ................
300089b4:	1210 ffff 1232 1210 122e 1231 1231 1210     ....2.....1.1...
300089c4:	1210 1231 1210 1210 0a10 11f0 1210 11f0     ..1.............
300089d4:	1210 1210 1210 1210 1210 1210 0a10 1210     ................
300089e4:	1210 1210 1210 1210 1210 1210 1210 1210     ................
300089f4:	1210 1210 1210 1210 1210 1210 1210 1210     ................
30008a04:	1210 1210 1210 1210 1210 1210 1210 1210     ................
30008a14:	1210 1210 1210 1210 1210 1210 1210 1210     ................
30008a24:	1210 1210 1210 1210 09f0 1210 120f 1210     ................
30008a34:	1210 0a10 1210 1210 1210 1210 1210 1210     ................
30008a44:	1210 1210 1210 1210 1210 1210 1210 1210     ................
30008a54:	1210 1210 1210 1210 1210 11f0 1210 1210     ................
30008a64:	1210 1210 1231 1231 02aa 1211 1210 11f1     ....1.1.........
30008a74:	1211 1231 ffff ffff ffff ffff ffff ffff     ..1.............
30008a84:	ffff ffff ffff ffff ffff ffff ffff ffff     ................
30008a94:	ffff ffff ffff ffff ffff ffff ffff ffff     ................
30008aa4:	ffff ffff ffff ffff ffff ffff ffff ffff     ................
30008ab4:	1210 ffff 1232 1210 122e 1231 1231 1210     ....2.....1.1...
30008ac4:	1211 1211 1231 1231 1211 1231 1231 1211     ....1.1...1.1...
30008ad4:	1231 1231 1231 1231 1231 1231 1231 1231     1.1.1.1.1.1.1.1.
30008ae4:	1231 1231 1231 1231 1231 1231 1231 1231     1.1.1.1.1.1.1.1.
30008af4:	1231 1231 1231 1231 1231 1231 1231 1231     1.1.1.1.1.1.1.1.
30008b04:	1231 1231 1231 1231 1231 1231 1231 1231     1.1.1.1.1.1.1.1.
30008b14:	1231 1231 1231 1231 1231 1231 1231 1231     1.1.1.1.1.1.1.1.
30008b24:	1231 1231 1231 1231 1231 1231 1231 1231     1.1.1.1.1.1.1.1.
30008b34:	1231 1231 1231 1231 1231 1231 1231 1231     1.1.1.1.1.1.1.1.
30008b44:	1231 1231 1231 1231 1231 1231 1231 1231     1.1.1.1.1.1.1.1.
30008b54:	1231 1231 1231 1231 1210 1211 1231 1231     1.1.1.1.....1.1.
30008b64:	1210 1231 1231 1211 02aa 1211 1210 11f1     ..1.1...........
30008b74:	1211 1231 ffff ffff ffff ffff ffff ffff     ..1.............
30008b84:	ffff ffff ffff ffff ffff ffff ffff ffff     ................
30008b94:	ffff ffff ffff ffff ffff ffff ffff ffff     ................
30008ba4:	ffff ffff ffff ffff ffff ffff ffff ffff     ................
30008bb4:	1210 ffff 1232 1210 122e 1231 1231 1210     ....2.....1.1...
30008bc4:	1231 1210 1273 1253 1252 1273 1252 1252     1...s.S.R.s.R.R.
30008bd4:	1252 1252 1252 1252 1252 1252 1253 1252     R.R.R.R.R.R.S.R.
30008be4:	1273 1273 1273 1273 1273 1273 1273 1273     s.s.s.s.s.s.s.s.
30008bf4:	1273 1273 1273 1273 1273 1273 1273 1273     s.s.s.s.s.s.s.s.
30008c04:	1273 1273 1273 1273 1273 1273 1273 1273     s.s.s.s.s.s.s.s.
30008c14:	1273 1273 1273 1273 1273 1273 1273 1273     s.s.s.s.s.s.s.s.
30008c24:	1273 1273 1273 1273 1273 1273 1273 1273     s.s.s.s.s.s.s.s.
30008c34:	1252 1253 1252 1252 1252 1252 1252 1252     R.S.R.R.R.R.R.R.
30008c44:	1252 1252 1252 1252 1252 1252 1252 1252     R.R.R.R.R.R.R.R.
30008c54:	1252 1252 1252 1252 1231 1252 1273 1253     R.R.R.R.1.R.s.S.
30008c64:	1211 1252 1232 1211 02aa 1211 1210 11f1     ..R.2...........
30008c74:	1211 1231 ffff ffff ffff ffff ffff ffff     ..1.............
30008c84:	ffff ffff ffff ffff ffff ffff ffff ffff     ................
30008c94:	ffff ffff ffff ffff ffff ffff ffff ffff     ................
30008ca4:	ffff ffff ffff ffff ffff ffff ffff ffff     ................
30008cb4:	1210 ffff 1232 1210 122e 1231 1231 1210     ....2.....1.1...
30008cc4:	1210 1231 1210 1210 1231 1210 1210 1210     ..1.....1.......
30008cd4:	1210 1210 1210 1210 1210 1210 1210 1210     ................
30008ce4:	1210 1210 1210 1210 1210 1210 1210 1210     ................
30008cf4:	1210 1210 1210 1210 1210 1210 1210 1210     ................
30008d04:	1210 1210 1210 1210 1210 1210 1210 1210     ................
30008d14:	1210 1210 1210 1210 1210 1210 1210 1210     ................
30008d24:	1210 1210 1210 1210 1210 1210 1210 1210     ................
30008d34:	1210 1210 1210 1210 1210 1210 1210 1210     ................
30008d44:	1210 1210 1210 1210 1210 1210 1210 1210     ................
30008d54:	1210 1210 1210 1210 1210 1210 1210 1210     ................
30008d64:	1210 1210 1232 1231 02aa 1211 1210 11f1     ....2.1.........
30008d74:	1211 1231 ffff ffff ffff ffff ffff ffff     ..1.............
30008d84:	ffff ffff ffff ffff ffff ffff ffff ffff     ................
30008d94:	ffff ffff ffff ffff ffff ffff ffff ffff     ................
30008da4:	ffff ffff ffff ffff ffff ffff ffff ffff     ................
30008db4:	1210 ffff 1232 1210 122e 1231 1232 1210     ....2.....1.2...
30008dc4:	1210 1231 332c 1a10 11f0 1271 1231 09f0     ..1.,3....q.1...
30008dd4:	1a6f 1ab1 1a6f 1a6f 1a6f 1a6f 1a6f 1a6f     o...o.o.o.o.o.o.
30008de4:	1a6f 1a6f 1a6f 1a6f 1a6f 1a6f 1a6f 1a6f     o.o.o.o.o.o.o.o.
30008df4:	1a6f 1a6f 1a6f 1a6f 1a6f 1a6f 1a6f 1a6f     o.o.o.o.o.o.o.o.
30008e04:	1a6f 1a6f 1a6f 1a6f 1a6f 1a6f 1a6f 1a6f     o.o.o.o.o.o.o.o.
30008e14:	1a6f 1a6f 1a6f 1a6f 1a6f 1a6f 1a6f 1a6f     o.o.o.o.o.o.o.o.
30008e24:	1a6f 1a6f 1a6f 1a6f 1a6f 1a6f 1a6f 1a6f     o.o.o.o.o.o.o.o.
30008e34:	1a6f 1a6f 1a6f 1a6f 1a6f 1a6f 1a6f 1a6f     o.o.o.o.o.o.o.o.
30008e44:	1a6f 1a6f 1a6f 1a6f 1a6f 1a6f 1a6f 1a6f     o.o.o.o.o.o.o.o.
30008e54:	1a6f 1a6f 1aae 1aae 1210 11f0 07e0 0a10     o.o.............
30008e64:	1210 09f0 1231 1231 02aa 1211 1210 11f1     ....1.1.........
30008e74:	1211 1231 ffff ffff ffff ffff ffff ffff     ..1.............
30008e84:	ffff ffff ffff ffff ffff ffff ffff ffff     ................
30008e94:	ffff ffff ffff ffff ffff ffff ffff ffff     ................
30008ea4:	ffff ffff ffff ffff ffff ffff ffff ffff     ................
30008eb4:	1210 ffff 1232 1210 122e 1231 1232 1210     ....2.....1.2...
30008ec4:	1210 1231 1230 0a10 1231 1231 1210 1210     ..1.0...1.1.....
30008ed4:	1231 1231 1231 1231 1231 1231 1231 1231     1.1.1.1.1.1.1.1.
30008ee4:	1231 1231 1231 1231 1231 1231 1231 1231     1.1.1.1.1.1.1.1.
30008ef4:	1231 1231 1231 1231 1231 1231 1231 1231     1.1.1.1.1.1.1.1.
30008f04:	1231 1231 1231 1231 1231 1231 1231 1231     1.1.1.1.1.1.1.1.
30008f14:	1231 1231 1231 1231 1231 1231 1231 1231     1.1.1.1.1.1.1.1.
30008f24:	1231 1231 1231 1231 1231 1231 1231 1231     1.1.1.1.1.1.1.1.
30008f34:	1231 1231 1231 1231 1231 1231 1231 1231     1.1.1.1.1.1.1.1.
30008f44:	1231 1231 1231 1231 1231 1231 1231 1231     1.1.1.1.1.1.1.1.
30008f54:	1231 1231 1230 1230 1210 1210 0a10 0a10     1.1.0.0.........
30008f64:	1210 1210 1231 1231 02aa 1211 1210 11f1     ....1.1.........
30008f74:	1211 1231 ffff ffff ffff ffff ffff ffff     ..1.............
30008f84:	ffff ffff ffff ffff ffff ffff ffff ffff     ................
30008f94:	ffff ffff ffff ffff ffff ffff ffff ffff     ................
30008fa4:	ffff ffff ffff ffff ffff ffff ffff ffff     ................
30008fb4:	1210 ffff 1232 1210 122e 1231 1231 1210     ....2.....1.1...
30008fc4:	1210 1211 1211 1210 1231 1211 1210 1211     ........1.......
30008fd4:	1210 1210 1210 1210 1210 1210 1210 1210     ................
30008fe4:	1210 1210 1210 1210 1210 1210 1210 1210     ................
30008ff4:	1210 1210 1210 1210 1210 1210 1210 1210     ................
30009004:	1210 1210 1210 1210 1210 1210 1210 1210     ................
30009014:	1210 1210 1210 1210 1210 1210 1210 1210     ................
30009024:	1210 1210 1210 1210 1210 1210 1210 1210     ................
30009034:	1210 1210 1210 1210 1210 1210 1210 1210     ................
30009044:	1210 1210 1210 1210 1210 1210 1210 1210     ................
30009054:	1210 1210 1210 1210 1210 1210 1211 1210     ................
30009064:	1210 1211 1232 1211 02aa 1211 1210 11f1     ....2...........
30009074:	1211 1231 ffff ffff ffff ffff ffff ffff     ..1.............
30009084:	ffff ffff ffff ffff ffff ffff ffff ffff     ................
30009094:	ffff ffff ffff ffff ffff ffff ffff ffff     ................
300090a4:	ffff ffff ffff ffff ffff ffff ffff ffff     ................
300090b4:	1210 ffff 1252 1210 122e 1231 1232 1210     ....R.....1.2...
300090c4:	1231 1231 1231 1231 1231 1231 1231 1231     1.1.1.1.1.1.1.1.
300090d4:	1231 1231 1231 1231 1231 1231 1231 1231     1.1.1.1.1.1.1.1.
300090e4:	1231 1231 1231 1231 1231 1231 1231 1231     1.1.1.1.1.1.1.1.
300090f4:	1231 1231 1231 1231 1231 1231 1231 1231     1.1.1.1.1.1.1.1.
30009104:	1231 1231 1231 1231 1231 1231 1231 1231     1.1.1.1.1.1.1.1.
30009114:	1231 1231 1231 1231 1231 1231 1231 1231     1.1.1.1.1.1.1.1.
30009124:	1231 1231 1231 1231 1231 1231 1231 1231     1.1.1.1.1.1.1.1.
30009134:	1231 1231 1231 1231 1231 1231 1231 1231     1.1.1.1.1.1.1.1.
30009144:	1231 1231 1231 1231 1231 1231 1231 1231     1.1.1.1.1.1.1.1.
30009154:	1231 1231 1231 1231 1211 1231 1231 1231     1.1.1.1...1.1.1.
30009164:	1211 1231 1232 1231 02aa 1210 1210 11d1     ..1.2.1.........
30009174:	11f0 1231 ffff ffff ffff ffff ffff ffff     ..1.............
30009184:	ffff ffff ffff ffff ffff ffff ffff ffff     ................
30009194:	ffff ffff ffff ffff ffff ffff ffff ffff     ................
300091a4:	ffff ffff ffff ffff ffff ffff ffff ffff     ................
300091b4:	11f0 ffff 1253 1231 116e 1211 1253 1210     ....S.1.n...S...
300091c4:	1232 1252 1252 1252 1232 1252 1252 1252     2.R.R.R.2.R.R.R.
300091d4:	1252 1252 1252 1252 1252 1252 1252 1252     R.R.R.R.R.R.R.R.
300091e4:	1252 1252 1252 1252 1252 1252 1252 1252     R.R.R.R.R.R.R.R.
300091f4:	1252 1252 1252 1252 1252 1252 1252 1252     R.R.R.R.R.R.R.R.
30009204:	1252 1252 1252 1252 1252 1252 1252 1252     R.R.R.R.R.R.R.R.
30009214:	1252 1252 1252 1252 1252 1252 1252 1252     R.R.R.R.R.R.R.R.
30009224:	1252 1252 1252 1252 1252 1252 1252 1252     R.R.R.R.R.R.R.R.
30009234:	1252 1252 1252 1252 1252 1252 1252 1252     R.R.R.R.R.R.R.R.
30009244:	1252 1252 1252 1252 1252 1252 1252 1252     R.R.R.R.R.R.R.R.
30009254:	1252 1252 1252 1252 1232 1252 1252 1252     R.R.R.R.2.R.R.R.
30009264:	1232 1252 1253 1252 02aa 0a11 1210 11b2     2.R.S.R.........
30009274:	1211 1252 ffff ffff ffff ffff ffff ffff     ..R.............
30009284:	ffff ffff ffff ffff ffff ffff ffff ffff     ................
30009294:	ffff ffff ffff ffff ffff ffff ffff ffff     ................
300092a4:	ffff ffff ffff ffff ffff ffff ffff ffff     ................
300092b4:	09cf ffff 1231 1211 ff07 1211 1252 1211     ....1.......R...
300092c4:	1231 1231 1231 1231 1231 1231 1231 1231     1.1.1.1.1.1.1.1.
300092d4:	1231 1231 1231 1231 1231 1231 1231 1231     1.1.1.1.1.1.1.1.
300092e4:	1231 1231 1231 1231 1231 1231 1231 1231     1.1.1.1.1.1.1.1.
300092f4:	1231 1231 1231 1231 1231 1231 1231 1231     1.1.1.1.1.1.1.1.
30009304:	1231 1231 1231 1231 1231 1231 1231 1231     1.1.1.1.1.1.1.1.
30009314:	1231 1231 1231 1231 1231 1231 1231 1231     1.1.1.1.1.1.1.1.
30009324:	1231 1231 1231 1231 1231 1231 1231 1231     1.1.1.1.1.1.1.1.
30009334:	1231 1231 1231 1231 1231 1231 1231 1231     1.1.1.1.1.1.1.1.
30009344:	1231 1231 1231 1231 1231 1231 1231 1231     1.1.1.1.1.1.1.1.
30009354:	1231 1231 1231 1231 1231 1231 1231 1231     1.1.1.1.1.1.1.1.
30009364:	1231 1231 1252 1231 ffff 1211 1211 19d1     1.1.R.1.........
30009374:	1231 1252 ffff ffff ffff ffff ffff ffff     1.R.............
30009384:	ffff ffff ffff ffff ffff ffff ffff ffff     ................
30009394:	ffff ffff ffff ffff ffff ffff ffff ffff     ................
300093a4:	ffff ffff ffff ffff ffff ffff ffff ffff     ................
300093b4:	ffff ffff 09ef 1231 ffff ffff 1a10 01ef     ......1.........
300093c4:	0a10 09ef 0a10 0a10 0a10 0a10 0a10 0a10     ................
300093d4:	0a10 0a10 0a10 0a10 0a10 0a10 0a10 0a10     ................
300093e4:	0a10 0a10 0a10 0a10 0a10 0a10 0a10 0a10     ................
300093f4:	0a10 0a10 0a10 0a10 0a10 0a10 0a10 0a10     ................
30009404:	0a10 0a10 0a10 0a10 0a10 0a10 0a10 0a10     ................
30009414:	0a10 0a10 0a10 0a10 0a10 0a10 0a10 0a10     ................
30009424:	0a10 0a10 0a10 0a10 0a10 0a10 0a10 0a10     ................
30009434:	0a10 0a10 0a10 0a10 0a10 0a10 0a10 0a10     ................
30009444:	0a10 0a10 0a10 0a10 0a10 0a10 0a10 0a10     ................
30009454:	0a10 0a10 0a10 0a10 0a10 0a10 0a10 0a10     ................
30009464:	0a10 0a10 1a0f 09ef ffff 2955 01f3 ffff     ..........U)....
30009474:	ff0f 0a2f ffff ffff ffff ffff ffff ffff     ../.............
30009484:	ffff ffff ffff ffff ffff ffff ffff ffff     ................
30009494:	ffff ffff ffff ffff ffff ffff ffff ffff     ................
300094a4:	ffff ffff ffff ffff ffff ffff ffff ffff     ................
300094b4:	ffff ffff ffff ffff ffff ffff ffff ffff     ................
300094c4:	ffff ffff ffff ffff ffff ffff ffff ffff     ................
300094d4:	ffff ffff ffff ffff ffff ffff ffff ffff     ................
300094e4:	ffff ffff ffff ffff ffff ffff ffff ffff     ................
300094f4:	ffff ffff ffff ffff ffff ffff ffff ffff     ................
30009504:	ffff ffff ffff ffff ffff ffff ffff ffff     ................
30009514:	ffff ffff ffff ffff ffff ffff ffff ffff     ................
30009524:	ffff ffff ffff ffff ffff ffff ffff ffff     ................
30009534:	ffff ffff ffff ffff ffff ffff ffff ffff     ................
30009544:	ffff ffff ffff ffff ffff ffff ffff ffff     ................
30009554:	ffff ffff ffff ffff ffff ffff ffff ffff     ................
30009564:	ffff ffff ffff ffff ffff ffff ffff ffff     ................
30009574:	ffff ffff ffff ffff ffff ffff ffff ffff     ................
30009584:	ffff ffff ffff ffff ffff ffff ffff ffff     ................
30009594:	ffff ffff ffff ffff ffff ffff ffff ffff     ................
300095a4:	ffff ffff ffff ffff ffff ffff ffff ffff     ................
300095b4:	ffff ffff ffff ffff ffff ffff ffff ffff     ................
300095c4:	ffff ffff ffff ffff ffff ffff ffff ffff     ................
300095d4:	ffff ffff ffff ffff ffff ffff ffff ffff     ................
300095e4:	ffff ffff ffff ffff ffff ffff ffff ffff     ................
300095f4:	ffff ffff ffff ffff ffff ffff ffff ffff     ................
30009604:	ffff ffff ffff ffff ffff ffff ffff ffff     ................
30009614:	ffff ffff ffff ffff ffff ffff ffff ffff     ................
30009624:	ffff ffff ffff ffff ffff ffff ffff ffff     ................
30009634:	ffff ffff ffff ffff ffff ffff ffff ffff     ................
30009644:	ffff ffff ffff ffff ffff ffff ffff ffff     ................
30009654:	ffff ffff ffff ffff ffff ffff ffff ffff     ................
30009664:	ffff ffff ffff ffff ffff ffff ffff ffff     ................
30009674:	ffff ffff ffff ffff ffff ffff ffff ffff     ................
30009684:	ffff ffff ffff ffff ffff ffff ffff ffff     ................
30009694:	ffff ffff ffff ffff ffff ffff ffff ffff     ................
300096a4:	ffff ffff ffff ffff ffff ffff ffff ffff     ................
300096b4:	014f ffff 1210 1210 ffff 19d1 1231 1231     O...........1.1.
300096c4:	1210 1231 1210 1210 1210 1210 1210 1210     ..1.............
300096d4:	1210 1210 1210 1210 1210 1210 1210 1210     ................
300096e4:	0a10 1210 0a10 0a10 0a10 0a10 0a10 0a10     ................
300096f4:	1210 1210 1210 1211 1210 1210 1210 1210     ................
30009704:	1210 1210 1210 1210 1210 1210 1210 1210     ................
30009714:	1210 1210 1210 1210 1210 1210 1210 1210     ................
30009724:	1210 1210 1210 1210 1210 1210 1210 1210     ................
30009734:	1210 1210 1210 1210 1210 1210 1210 1210     ................
30009744:	1210 1210 1210 1210 1210 1210 1210 1210     ................
30009754:	1210 1210 1210 1210 1210 1210 1210 1210     ................
30009764:	1211 1210 026f 1211 ffff ffff 1210 014f     ....o.........O.
30009774:	11ef 1231 ffff ffff ffff ffff ffff ffff     ..1.............
30009784:	ffff ffff ffff ffff ffff ffff ffff ffff     ................
30009794:	ffff ffff ffff ffff ffff ffff ffff ffff     ................
300097a4:	ffff ffff ffff ffff ffff ffff ffff ffff     ................
300097b4:	11ef ffff 1210 1210 ffff 19f2 1210 11b1     ................
300097c4:	1210 1210 1210 1210 1210 1210 1210 1210     ................
300097d4:	1210 1210 1210 1210 1210 1210 1210 1210     ................
300097e4:	1210 1210 1210 1210 1210 1210 1210 1210     ................
300097f4:	1210 1210 1210 1210 1210 1210 1210 1210     ................
30009804:	1210 1210 1210 1210 1210 1210 1210 1210     ................
30009814:	1210 1210 1210 1210 1210 1210 1210 1210     ................
30009824:	1210 1210 1210 1210 1210 1210 1210 1210     ................
30009834:	1210 1210 1210 1210 1210 1210 1210 1210     ................
30009844:	1210 1210 1210 1210 1210 1210 1210 1210     ................
30009854:	1210 1210 1210 1210 1210 1210 1210 1210     ................
30009864:	1211 1210 0a0f 1211 ffff ffff 1210 1171     ..............q.
30009874:	19f1 1231 ffff ffff ffff ffff ffff ffff     ..1.............
30009884:	ffff ffff ffff ffff ffff ffff ffff ffff     ................
30009894:	ffff ffff ffff ffff ffff ffff ffff ffff     ................
300098a4:	ffff ffff ffff ffff ffff ffff ffff ffff     ................
300098b4:	03ef ffff 09f0 11ef ffff 02aa 124f 02b5     ............O...
300098c4:	1231 1233 1231 1231 1231 1231 1231 1231     1.3.1.1.1.1.1.1.
300098d4:	1231 1231 1231 1231 1231 1231 1231 1231     1.1.1.1.1.1.1.1.
300098e4:	1211 11ef 11f0 11d0 11f0 11f0 1211 11f0     ................
300098f4:	09f0 1231 1231 1231 1231 1231 1231 1231     ..1.1.1.1.1.1.1.
30009904:	1231 1231 1231 1231 1231 1231 1231 1231     1.1.1.1.1.1.1.1.
30009914:	1231 1231 1231 1231 1231 1231 1231 1231     1.1.1.1.1.1.1.1.
30009924:	1231 1231 1231 1231 1231 1231 1231 1231     1.1.1.1.1.1.1.1.
30009934:	1231 1231 1231 1231 1231 1231 1231 1231     1.1.1.1.1.1.1.1.
30009944:	1231 1231 1231 1231 1231 1231 1231 1231     1.1.1.1.1.1.1.1.
30009954:	1231 1231 1231 1231 1231 1231 1231 1231     1.1.1.1.1.1.1.1.
30009964:	09f1 1231 01ef 0a31 ffff ffff 09ef ff0f     ..1...1.........
30009974:	ff1f 026e ffff ffff ffff ffff ffff ffff     ..n.............
30009984:	ffff ffff ffff ffff ffff ffff ffff ffff     ................
30009994:	ffff ffff ffff ffff ffff ffff ffff ffff     ................
300099a4:	ffff ffff ffff ffff ffff ffff ffff ffff     ................
300099b4:	ffff ffff ffff ffff ffff ffff ffff ffff     ................
300099c4:	ffff ffff ffff ffff ffff ffff ffff ffff     ................
300099d4:	ffff ffff ffff ffff ffff ffff ffff ffff     ................
300099e4:	ffff ffff ffff ffff ffff ffff ffff ffff     ................
300099f4:	ffff ffff ffff ffff ffff ffff ffff ffff     ................
30009a04:	ffff ffff ffff ffff ffff ffff ffff ffff     ................
30009a14:	ffff ffff ffff ffff ffff ffff ffff ffff     ................
30009a24:	ffff ffff ffff ffff ffff ffff ffff ffff     ................
30009a34:	ffff ffff ffff ffff ffff ffff ffff ffff     ................
30009a44:	ffff ffff ffff ffff ffff ffff ffff ffff     ................
30009a54:	ffff ffff ffff ffff ffff ffff ffff ffff     ................
30009a64:	ffff ffff ffff ffff ffff ffff ffff ffff     ................
30009a74:	ffff ffff ffff ffff ffff ffff ffff ffff     ................
30009a84:	ffff ffff ffff ffff ffff ffff ffff ffff     ................
30009a94:	ffff ffff ffff ffff ffff ffff ffff ffff     ................
30009aa4:	ffff ffff ffff ffff ffff ffff ffff ffff     ................
30009ab4:	ffff ffff ffff ffff ffff ffff ffff ffff     ................
30009ac4:	ffff ffff ffff ffff ffff ffff ffff ffff     ................
30009ad4:	ffff ffff ffff ffff ffff ffff ffff ffff     ................
30009ae4:	ffff ffff ffff ffff ffff ffff ffff ffff     ................
30009af4:	ffff ffff ffff ffff ffff ffff ffff ffff     ................
30009b04:	ffff ffff ffff ffff ffff ffff ffff ffff     ................
30009b14:	ffff ffff ffff ffff ffff ffff ffff ffff     ................
30009b24:	ffff ffff ffff ffff ffff ffff ffff ffff     ................
30009b34:	ffff ffff ffff ffff ffff ffff ffff ffff     ................
30009b44:	ffff ffff ffff ffff ffff ffff ffff ffff     ................
30009b54:	ffff ffff ffff ffff ffff ffff ffff ffff     ................
30009b64:	ffff ffff ffff ffff ffff ffff ffff ffff     ................
30009b74:	ffff ffff ffff ffff ffff ffff ffff ffff     ................
30009b84:	ffff ffff ffff ffff ffff ffff ffff ffff     ................
30009b94:	ffff ffff ffff ffff ffff ffff ffff ffff     ................
30009ba4:	ffff ffff ffff ffff ffff ffff ffff ffff     ................
30009bb4:	ffff ffff ffff ffff ffff ffff ffff ffff     ................
30009bc4:	ffff ffff ffff ffff ffff ffff ffff ffff     ................
30009bd4:	ffff ffff ffff ffff ffff ffff ffff ffff     ................
30009be4:	ffff ffff ffff ffff ffff ffff ffff ffff     ................
30009bf4:	ffff ffff ffff ffff ffff ffff ffff ffff     ................
30009c04:	ffff ffff ffff ffff ffff ffff ffff ffff     ................
30009c14:	ffff ffff ffff ffff ffff ffff ffff ffff     ................
30009c24:	ffff ffff ffff ffff ffff ffff ffff ffff     ................
30009c34:	ffff ffff ffff ffff ffff ffff ffff ffff     ................
30009c44:	ffff ffff ffff ffff ffff ffff ffff ffff     ................
30009c54:	ffff ffff ffff ffff ffff ffff ffff ffff     ................
30009c64:	ffff ffff ffff ffff ffff ffff ffff ffff     ................
30009c74:	ffff ffff ffff ffff ffff ffff ffff ffff     ................
30009c84:	ffff ffff ffff ffff ffff ffff ffff ffff     ................
30009c94:	ffff ffff ffff ffff ffff ffff ffff ffff     ................
30009ca4:	ffff ffff ffff ffff ffff ffff ffff ffff     ................
30009cb4:	ffff ffff ffff ffff ffff ffff ffff ffff     ................
30009cc4:	ffff ffff ffff ffff ffff ffff ffff ffff     ................
30009cd4:	ffff ffff ffff ffff ffff ffff ffff ffff     ................
30009ce4:	ffff ffff ffff ffff ffff ffff ffff ffff     ................
30009cf4:	ffff ffff ffff ffff ffff ffff ffff ffff     ................
30009d04:	ffff ffff ffff ffff ffff ffff ffff ffff     ................
30009d14:	ffff ffff ffff ffff ffff ffff ffff ffff     ................
30009d24:	ffff ffff ffff ffff ffff ffff ffff ffff     ................
30009d34:	ffff ffff ffff ffff ffff ffff ffff ffff     ................
30009d44:	ffff ffff ffff ffff ffff ffff ffff ffff     ................
30009d54:	ffff ffff ffff ffff ffff ffff ffff ffff     ................
30009d64:	ffff ffff ffff ffff ffff ffff ffff ffff     ................
30009d74:	ffff ffff ffff ffff ffff ffff ffff ffff     ................
30009d84:	ffff ffff ffff ffff ffff ffff ffff ffff     ................
30009d94:	ffff ffff ffff ffff ffff ffff ffff ffff     ................
30009da4:	ffff ffff ffff ffff ffff ffff ffff ffff     ................
30009db4:	ffff ffff ffff ffff ffff ffff ffff ffff     ................
30009dc4:	ffff ffff ffff ffff ffff ffff ffff ffff     ................
30009dd4:	ffff ffff ffff ffff ffff ffff ffff ffff     ................
30009de4:	ffff ffff ffff ffff ffff ffff ffff ffff     ................
30009df4:	ffff ffff ffff ffff ffff ffff ffff ffff     ................
30009e04:	ffff ffff ffff ffff ffff ffff ffff ffff     ................
30009e14:	ffff ffff ffff ffff ffff ffff ffff ffff     ................
30009e24:	ffff ffff ffff ffff ffff ffff ffff ffff     ................
30009e34:	ffff ffff ffff ffff ffff ffff ffff ffff     ................
30009e44:	ffff ffff ffff ffff ffff ffff ffff ffff     ................
30009e54:	ffff ffff ffff ffff ffff ffff ffff ffff     ................
30009e64:	ffff ffff ffff ffff ffff ffff ffff ffff     ................
30009e74:	ffff ffff ffff ffff ffff ffff ffff ffff     ................
30009e84:	ffff ffff ffff ffff ffff ffff ffff ffff     ................
30009e94:	ffff ffff ffff ffff ffff ffff ffff ffff     ................
30009ea4:	ffff ffff ffff ffff ffff ffff ffff ffff     ................
30009eb4:	ffff ffff ffff ffff ffff ffff ffff ffff     ................
30009ec4:	ffff ffff ffff ffff ffff ffff ffff ffff     ................
30009ed4:	ffff ffff ffff ffff ffff ffff ffff ffff     ................
30009ee4:	ffff ffff ffff ffff ffff ffff ffff ffff     ................
30009ef4:	ffff ffff ffff ffff ffff ffff ffff ffff     ................
30009f04:	ffff ffff ffff ffff ffff ffff ffff ffff     ................
30009f14:	ffff ffff ffff ffff ffff ffff ffff ffff     ................
30009f24:	ffff ffff ffff ffff ffff ffff ffff ffff     ................
30009f34:	ffff ffff ffff ffff ffff ffff ffff ffff     ................
30009f44:	ffff ffff ffff ffff ffff ffff ffff ffff     ................
30009f54:	ffff ffff ffff ffff ffff ffff ffff ffff     ................
30009f64:	ffff ffff ffff ffff ffff ffff ffff ffff     ................
30009f74:	ffff ffff ffff ffff ffff ffff ffff ffff     ................
30009f84:	ffff ffff ffff ffff ffff ffff ffff ffff     ................
30009f94:	ffff ffff ffff ffff ffff ffff ffff ffff     ................
30009fa4:	ffff ffff ffff ffff ffff ffff ffff ffff     ................
30009fb4:	ffff ffff ffff ffff ffff ffff ffff ffff     ................
30009fc4:	ffff ffff ffff ffff ffff ffff ffff ffff     ................
30009fd4:	ffff ffff ffff ffff ffff ffff ffff ffff     ................
30009fe4:	ffff ffff ffff ffff ffff ffff ffff ffff     ................
30009ff4:	ffff ffff ffff ffff ffff ffff ffff ffff     ................
3000a004:	ffff ffff ffff ffff ffff ffff ffff ffff     ................
3000a014:	ffff ffff ffff ffff ffff ffff ffff ffff     ................
3000a024:	ffff ffff ffff ffff ffff ffff ffff ffff     ................
3000a034:	ffff ffff ffff ffff ffff ffff ffff ffff     ................
3000a044:	ffff ffff ffff ffff ffff ffff ffff ffff     ................
3000a054:	ffff ffff ffff ffff ffff ffff ffff ffff     ................
3000a064:	ffff ffff ffff ffff ffff ffff ffff ffff     ................
3000a074:	ffff ffff ffff ffff ffff ffff ffff ffff     ................
3000a084:	ffff ffff ffff ffff ffff ffff ffff ffff     ................
3000a094:	ffff ffff ffff ffff ffff ffff ffff ffff     ................
3000a0a4:	ffff ffff ffff ffff ffff ffff ffff ffff     ................
3000a0b4:	ffff ffff ffff ffff ffff ffff ffff ffff     ................
3000a0c4:	ffff ffff ffff ffff ffff ffff ffff ffff     ................
3000a0d4:	ffff ffff ffff ffff ffff ffff ffff ffff     ................
3000a0e4:	ffff ffff ffff ffff ffff ffff ffff ffff     ................
3000a0f4:	ffff ffff ffff ffff ffff ffff ffff ffff     ................
3000a104:	ffff ffff ffff ffff ffff ffff ffff ffff     ................
3000a114:	ffff ffff ffff ffff ffff ffff ffff ffff     ................
3000a124:	ffff ffff ffff ffff ffff ffff ffff ffff     ................
3000a134:	ffff ffff ffff ffff ffff ffff ffff ffff     ................
3000a144:	ffff ffff ffff ffff ffff ffff ffff ffff     ................
3000a154:	ffff ffff ffff ffff ffff ffff ffff ffff     ................
3000a164:	ffff ffff ffff ffff ffff ffff ffff ffff     ................
3000a174:	ffff ffff ffff ffff ffff ffff ffff ffff     ................
3000a184:	ffff ffff ffff ffff ffff ffff ffff ffff     ................
3000a194:	ffff ffff ffff ffff ffff ffff ffff ffff     ................
3000a1a4:	ffff ffff ffff ffff ffff ffff ffff ffff     ................
3000a1b4:	ffff ffff ffff ffff ffff ffff ffff ffff     ................
3000a1c4:	ffff ffff ffff ffff ffff ffff ffff ffff     ................
3000a1d4:	ffff ffff ffff ffff ffff ffff ffff ffff     ................
3000a1e4:	ffff ffff ffff ffff ffff ffff ffff ffff     ................
3000a1f4:	ffff ffff ffff ffff ffff ffff ffff ffff     ................
3000a204:	ffff ffff ffff ffff ffff ffff ffff ffff     ................
3000a214:	ffff ffff ffff ffff ffff ffff ffff ffff     ................
3000a224:	ffff ffff ffff ffff ffff ffff ffff ffff     ................
3000a234:	ffff ffff ffff ffff ffff ffff ffff ffff     ................
3000a244:	ffff ffff ffff ffff ffff ffff ffff ffff     ................
3000a254:	ffff ffff ffff ffff ffff ffff ffff ffff     ................
3000a264:	ffff ffff ffff ffff ffff ffff ffff ffff     ................
3000a274:	ffff ffff ffff ffff ffff ffff ffff ffff     ................
3000a284:	ffff ffff ffff ffff ffff ffff ffff ffff     ................
3000a294:	ffff ffff ffff ffff ffff ffff ffff ffff     ................
3000a2a4:	ffff ffff ffff ffff ffff ffff ffff ffff     ................
3000a2b4:	ffff ffff ffff ffff ffff ffff ffff ffff     ................
3000a2c4:	ffff ffff ffff ffff ffff ffff ffff ffff     ................
3000a2d4:	ffff ffff ffff ffff ffff ffff ffff ffff     ................
3000a2e4:	ffff ffff ffff ffff ffff ffff ffff ffff     ................
3000a2f4:	ffff ffff ffff ffff ffff ffff ffff ffff     ................
3000a304:	ffff ffff ffff ffff ffff ffff ffff ffff     ................
3000a314:	ffff ffff ffff ffff ffff ffff ffff ffff     ................
3000a324:	ffff ffff ffff ffff ffff ffff ffff ffff     ................
3000a334:	ffff ffff ffff ffff ffff ffff ffff ffff     ................
3000a344:	ffff ffff ffff ffff ffff ffff ffff ffff     ................
3000a354:	ffff ffff ffff ffff ffff ffff ffff ffff     ................
3000a364:	ffff ffff ffff ffff ffff ffff ffff ffff     ................
3000a374:	ffff ffff ffff ffff ffff ffff ffff ffff     ................
3000a384:	ffff ffff ffff ffff ffff ffff ffff ffff     ................
3000a394:	ffff ffff ffff ffff ffff ffff ffff ffff     ................
3000a3a4:	ffff ffff ffff ffff ffff ffff ffff ffff     ................
3000a3b4:	ffff ffff ffff ffff ffff ffff ffff ffff     ................
3000a3c4:	ffff ffff ffff ffff ffff ffff ffff ffff     ................
3000a3d4:	ffff ffff ffff ffff ffff ffff ffff ffff     ................
3000a3e4:	ffff ffff ffff ffff ffff ffff ffff ffff     ................
3000a3f4:	ffff ffff ffff ffff ffff ffff ffff ffff     ................
3000a404:	ffff ffff ffff ffff ffff ffff ffff ffff     ................
3000a414:	ffff ffff ffff ffff ffff ffff ffff ffff     ................
3000a424:	ffff ffff ffff ffff ffff ffff ffff ffff     ................
3000a434:	ffff ffff ffff ffff ffff ffff ffff ffff     ................
3000a444:	ffff ffff ffff ffff ffff ffff ffff ffff     ................
3000a454:	ffff ffff ffff ffff ffff ffff ffff ffff     ................
3000a464:	ffff ffff ffff ffff ffff ffff ffff ffff     ................
3000a474:	ffff ffff ffff ffff ffff ffff ffff ffff     ................
3000a484:	ffff ffff ffff ffff ffff ffff ffff ffff     ................
3000a494:	ffff ffff ffff ffff ffff ffff ffff ffff     ................
3000a4a4:	ffff ffff ffff ffff ffff ffff ffff ffff     ................
3000a4b4:	ffff ffff ffff ffff ffff ffff ffff ffff     ................
3000a4c4:	ffff ffff ffff ffff ffff ffff ffff ffff     ................
3000a4d4:	ffff ffff ffff ffff ffff ffff ffff ffff     ................
3000a4e4:	ffff ffff ffff ffff ffff ffff ffff ffff     ................
3000a4f4:	ffff ffff ffff ffff ffff ffff ffff ffff     ................
3000a504:	ffff ffff ffff ffff ffff ffff ffff ffff     ................
3000a514:	ffff ffff ffff ffff ffff ffff ffff ffff     ................
3000a524:	ffff ffff ffff ffff ffff ffff ffff ffff     ................
3000a534:	ffff ffff ffff ffff ffff ffff ffff ffff     ................
3000a544:	ffff ffff ffff ffff ffff ffff ffff ffff     ................
3000a554:	ffff ffff ffff ffff ffff ffff ffff ffff     ................
3000a564:	ffff ffff ffff ffff ffff ffff ffff ffff     ................
3000a574:	ffff ffff ffff ffff ffff ffff ffff ffff     ................
3000a584:	ffff ffff ffff ffff ffff ffff ffff ffff     ................
3000a594:	ffff ffff ffff ffff ffff ffff ffff ffff     ................
3000a5a4:	ffff ffff ffff ffff ffff ffff ffff ffff     ................
3000a5b4:	ffff ffff ffff ffff ffff ffff ffff ffff     ................
3000a5c4:	ffff ffff ffff ffff ffff ffff ffff ffff     ................
3000a5d4:	ffff ffff ffff ffff ffff ffff ffff ffff     ................
3000a5e4:	ffff ffff ffff ffff ffff ffff ffff ffff     ................
3000a5f4:	ffff ffff ffff ffff ffff ffff ffff ffff     ................
3000a604:	ffff ffff ffff ffff ffff ffff ffff ffff     ................
3000a614:	ffff ffff ffff ffff ffff ffff ffff ffff     ................
3000a624:	ffff ffff ffff ffff ffff ffff ffff ffff     ................
3000a634:	ffff ffff ffff ffff ffff ffff ffff ffff     ................
3000a644:	ffff ffff ffff ffff ffff ffff ffff ffff     ................
3000a654:	ffff ffff ffff ffff ffff ffff ffff ffff     ................
3000a664:	ffff ffff ffff ffff ffff ffff ffff ffff     ................
3000a674:	ffff ffff ffff ffff ffff ffff ffff ffff     ................
3000a684:	ffff ffff ffff ffff ffff ffff ffff ffff     ................
3000a694:	ffff ffff ffff ffff ffff ffff ffff ffff     ................
3000a6a4:	ffff ffff ffff ffff ffff ffff ffff ffff     ................
3000a6b4:	ffff ffff ffff ffff ffff ffff ffff ffff     ................
3000a6c4:	ffff ffff ffff ffff ffff ffff ffff ffff     ................
3000a6d4:	ffff ffff ffff ffff ffff ffff ffff ffff     ................
3000a6e4:	ffff ffff ffff ffff ffff ffff ffff ffff     ................
3000a6f4:	ffff ffff ffff ffff ffff ffff ffff ffff     ................
3000a704:	ffff ffff ffff ffff ffff ffff ffff ffff     ................
3000a714:	ffff ffff ffff ffff ffff ffff ffff ffff     ................
3000a724:	ffff ffff ffff ffff ffff ffff ffff ffff     ................
3000a734:	ffff ffff ffff ffff ffff ffff ffff ffff     ................
3000a744:	ffff ffff ffff ffff ffff ffff ffff ffff     ................
3000a754:	ffff ffff ffff ffff ffff ffff ffff ffff     ................
3000a764:	ffff ffff ffff ffff ffff ffff ffff ffff     ................
3000a774:	ffff ffff ffff ffff ffff ffff ffff ffff     ................
3000a784:	ffff ffff ffff ffff ffff ffff ffff ffff     ................
3000a794:	ffff ffff ffff ffff ffff ffff ffff ffff     ................
3000a7a4:	ffff ffff ffff ffff ffff ffff ffff ffff     ................
3000a7b4:	ffff ffff ffff ffff ffff ffff ffff ffff     ................
3000a7c4:	ffff ffff ffff ffff ffff ffff ffff ffff     ................
3000a7d4:	ffff ffff ffff ffff ffff ffff ffff ffff     ................
3000a7e4:	ffff ffff ffff ffff ffff ffff ffff ffff     ................
3000a7f4:	ffff ffff ffff ffff ffff ffff ffff ffff     ................
3000a804:	ffff ffff ffff ffff ffff ffff ffff ffff     ................
3000a814:	ffff ffff ffff ffff ffff ffff ffff ffff     ................
3000a824:	ffff ffff ffff ffff ffff ffff ffff ffff     ................
3000a834:	ffff ffff ffff ffff ffff ffff ffff ffff     ................
3000a844:	ffff ffff ffff ffff ffff ffff ffff ffff     ................
3000a854:	ffff ffff ffff ffff ffff ffff ffff ffff     ................
3000a864:	ffff ffff ffff ffff ffff ffff ffff ffff     ................
3000a874:	ffff ffff ffff ffff ffff ffff ffff ffff     ................
3000a884:	ffff ffff ffff ffff ffff ffff ffff ffff     ................
3000a894:	ffff ffff ffff ffff ffff ffff ffff ffff     ................
3000a8a4:	ffff ffff ffff ffff ffff ffff ffff ffff     ................
3000a8b4:	ffff ffff ffff ffff ffff ffff ffff ffff     ................
3000a8c4:	ffff ffff ffff ffff ffff ffff ffff ffff     ................
3000a8d4:	ffff ffff ffff ffff ffff ffff ffff ffff     ................
3000a8e4:	ffff ffff ffff ffff ffff ffff ffff ffff     ................
3000a8f4:	ffff ffff ffff ffff ffff ffff ffff ffff     ................
3000a904:	ffff ffff ffff ffff ffff ffff ffff ffff     ................
3000a914:	ffff ffff ffff ffff ffff ffff ffff ffff     ................
3000a924:	ffff ffff ffff ffff ffff ffff ffff ffff     ................
3000a934:	ffff ffff ffff ffff ffff ffff ffff ffff     ................
3000a944:	ffff ffff ffff ffff ffff ffff ffff ffff     ................
3000a954:	ffff ffff ffff ffff ffff ffff ffff ffff     ................
3000a964:	ffff ffff ffff ffff ffff ffff ffff ffff     ................
3000a974:	ffff ffff ffff ffff ffff ffff ffff ffff     ................
3000a984:	ffff ffff ffff ffff ffff ffff ffff ffff     ................
3000a994:	ffff ffff ffff ffff ffff ffff ffff ffff     ................
3000a9a4:	ffff ffff ffff ffff ffff ffff ffff ffff     ................
3000a9b4:	ffff ffff ffff ffff ffff ffff ffff ffff     ................
3000a9c4:	ffff ffff ffff ffff ffff ffff ffff ffff     ................
3000a9d4:	ffff ffff ffff ffff ffff ffff ffff ffff     ................
3000a9e4:	ffff ffff ffff ffff ffff ffff ffff ffff     ................
3000a9f4:	ffff ffff ffff ffff ffff ffff ffff ffff     ................
3000aa04:	ffff ffff ffff ffff ffff ffff ffff ffff     ................
3000aa14:	ffff ffff ffff ffff ffff ffff ffff ffff     ................
3000aa24:	ffff ffff ffff ffff ffff ffff ffff ffff     ................
3000aa34:	ffff ffff ffff ffff ffff ffff ffff ffff     ................
3000aa44:	ffff ffff ffff ffff ffff ffff ffff ffff     ................
3000aa54:	ffff ffff ffff ffff ffff ffff ffff ffff     ................
3000aa64:	ffff ffff ffff ffff ffff ffff ffff ffff     ................
3000aa74:	ffff ffff ffff ffff ffff ffff ffff ffff     ................
3000aa84:	ffff ffff ffff ffff ffff ffff ffff ffff     ................
3000aa94:	ffff ffff ffff ffff ffff ffff ffff ffff     ................
3000aaa4:	ffff ffff ffff ffff ffff ffff ffff ffff     ................
3000aab4:	ffff ffff ffff ffff ffff ffff ffff ffff     ................
3000aac4:	ffff ffff ffff ffff ffff ffff ffff ffff     ................
3000aad4:	ffff ffff ffff ffff ffff ffff ffff ffff     ................
3000aae4:	ffff ffff ffff ffff ffff ffff ffff ffff     ................
3000aaf4:	ffff ffff ffff ffff ffff ffff ffff ffff     ................
3000ab04:	ffff ffff ffff ffff ffff ffff ffff ffff     ................
3000ab14:	ffff ffff ffff ffff ffff ffff ffff ffff     ................
3000ab24:	ffff ffff ffff ffff ffff ffff ffff ffff     ................
3000ab34:	ffff ffff ffff ffff ffff ffff ffff ffff     ................
3000ab44:	ffff ffff ffff ffff ffff ffff ffff ffff     ................
3000ab54:	ffff ffff ffff ffff ffff ffff ffff ffff     ................
3000ab64:	ffff ffff ffff ffff ffff ffff ffff ffff     ................
3000ab74:	ffff ffff ffff ffff ffff ffff ffff ffff     ................
3000ab84:	ffff ffff ffff ffff ffff ffff ffff ffff     ................
3000ab94:	ffff ffff ffff ffff ffff ffff ffff ffff     ................
3000aba4:	ffff ffff ffff ffff ffff ffff ffff ffff     ................
3000abb4:	ffff ffff ffff ffff ffff ffff ffff ffff     ................
3000abc4:	ffff ffff ffff ffff ffff ffff ffff ffff     ................
3000abd4:	ffff ffff ffff ffff ffff ffff ffff ffff     ................
3000abe4:	ffff ffff ffff ffff ffff ffff ffff ffff     ................
3000abf4:	ffff ffff ffff ffff ffff ffff ffff ffff     ................
3000ac04:	ffff ffff ffff ffff ffff ffff ffff ffff     ................
3000ac14:	ffff ffff ffff ffff ffff ffff ffff ffff     ................
3000ac24:	ffff ffff ffff ffff ffff ffff ffff ffff     ................
3000ac34:	ffff ffff ffff ffff ffff ffff ffff ffff     ................
3000ac44:	ffff ffff ffff ffff ffff ffff ffff ffff     ................
3000ac54:	ffff ffff ffff ffff ffff ffff ffff ffff     ................
3000ac64:	ffff ffff ffff ffff ffff ffff ffff ffff     ................
3000ac74:	ffff ffff ffff ffff ffff ffff ffff ffff     ................
3000ac84:	ffff ffff ffff ffff ffff ffff ffff ffff     ................
3000ac94:	ffff ffff ffff ffff ffff ffff ffff ffff     ................
3000aca4:	ffff ffff ffff ffff ffff ffff ffff ffff     ................
3000acb4:	ffff ffff ffff ffff ffff ffff ffff ffff     ................
3000acc4:	ffff ffff ffff ffff ffff ffff ffff ffff     ................
3000acd4:	ffff ffff ffff ffff ffff ffff ffff ffff     ................
3000ace4:	ffff ffff ffff ffff ffff ffff ffff ffff     ................
3000acf4:	ffff ffff ffff ffff ffff ffff ffff ffff     ................
3000ad04:	ffff ffff ffff ffff ffff ffff ffff ffff     ................
3000ad14:	ffff ffff ffff ffff ffff ffff ffff ffff     ................
3000ad24:	ffff ffff ffff ffff ffff ffff ffff ffff     ................
3000ad34:	ffff ffff ffff ffff ffff ffff ffff ffff     ................
3000ad44:	ffff ffff ffff ffff ffff ffff ffff ffff     ................
3000ad54:	ffff ffff ffff ffff ffff ffff ffff ffff     ................
3000ad64:	ffff ffff ffff ffff ffff ffff ffff ffff     ................
3000ad74:	ffff ffff ffff ffff ffff ffff ffff ffff     ................
3000ad84:	ffff ffff ffff ffff ffff ffff ffff ffff     ................
3000ad94:	ffff ffff ffff ffff ffff ffff ffff ffff     ................
3000ada4:	ffff ffff ffff ffff ffff ffff ffff ffff     ................
3000adb4:	ffff ffff ffff ffff ffff ffff ffff ffff     ................
3000adc4:	ffff ffff ffff ffff ffff ffff ffff ffff     ................
3000add4:	ffff ffff ffff ffff ffff ffff ffff ffff     ................
3000ade4:	ffff ffff ffff ffff ffff ffff ffff ffff     ................
3000adf4:	ffff ffff ffff ffff ffff ffff ffff ffff     ................
3000ae04:	ffff ffff ffff ffff ffff ffff ffff ffff     ................
3000ae14:	ffff ffff ffff ffff ffff ffff ffff ffff     ................
3000ae24:	ffff ffff ffff ffff ffff ffff ffff ffff     ................
3000ae34:	ffff ffff ffff ffff ffff ffff ffff ffff     ................
3000ae44:	ffff ffff ffff ffff ffff ffff ffff ffff     ................
3000ae54:	ffff ffff ffff ffff ffff ffff ffff ffff     ................
3000ae64:	ffff ffff ffff ffff ffff ffff ffff ffff     ................
3000ae74:	ffff ffff ffff ffff ffff ffff ffff ffff     ................
3000ae84:	ffff ffff ffff ffff ffff ffff ffff ffff     ................
3000ae94:	ffff ffff ffff ffff ffff ffff ffff ffff     ................
3000aea4:	ffff ffff ffff ffff ffff ffff ffff ffff     ................
3000aeb4:	ffff ffff ffff ffff ffff ffff ffff ffff     ................
3000aec4:	ffff ffff ffff ffff ffff ffff ffff ffff     ................
3000aed4:	ffff ffff ffff ffff ffff ffff ffff ffff     ................
3000aee4:	ffff ffff ffff ffff ffff ffff ffff ffff     ................
3000aef4:	ffff ffff ffff ffff ffff ffff ffff ffff     ................
3000af04:	ffff ffff ffff ffff ffff ffff ffff ffff     ................
3000af14:	ffff ffff ffff ffff ffff ffff ffff ffff     ................
3000af24:	ffff ffff ffff ffff ffff ffff ffff ffff     ................
3000af34:	ffff ffff ffff ffff ffff ffff ffff ffff     ................
3000af44:	ffff ffff ffff ffff ffff ffff ffff ffff     ................
3000af54:	ffff ffff ffff ffff ffff ffff ffff ffff     ................
3000af64:	ffff ffff ffff ffff ffff ffff ffff ffff     ................
3000af74:	ffff ffff ffff ffff ffff ffff ffff ffff     ................
3000af84:	ffff ffff ffff ffff ffff ffff ffff ffff     ................
3000af94:	ffff ffff ffff ffff ffff ffff ffff ffff     ................
3000afa4:	ffff ffff ffff ffff ffff ffff ffff ffff     ................
3000afb4:	ffff ffff ffff ffff ffff ffff ffff ffff     ................
3000afc4:	ffff ffff ffff ffff ffff ffff ffff ffff     ................
3000afd4:	ffff ffff ffff ffff ffff ffff ffff ffff     ................
3000afe4:	ffff ffff ffff ffff ffff ffff ffff ffff     ................
3000aff4:	ffff ffff ffff ffff ffff ffff ffff ffff     ................
3000b004:	ffff ffff ffff ffff ffff ffff ffff ffff     ................
3000b014:	ffff ffff ffff ffff ffff ffff ffff ffff     ................
3000b024:	ffff ffff ffff ffff ffff ffff ffff ffff     ................
3000b034:	ffff ffff ffff ffff ffff ffff ffff ffff     ................
3000b044:	ffff ffff ffff ffff ffff ffff ffff ffff     ................
3000b054:	ffff ffff ffff ffff ffff ffff ffff ffff     ................
3000b064:	ffff ffff ffff ffff ffff ffff ffff ffff     ................
3000b074:	ffff ffff ffff ffff ffff ffff ffff ffff     ................
3000b084:	ffff ffff ffff ffff ffff ffff ffff ffff     ................
3000b094:	ffff ffff ffff ffff ffff ffff ffff ffff     ................
3000b0a4:	ffff ffff ffff ffff ffff ffff ffff ffff     ................
3000b0b4:	ffff ffff ffff ffff ffff ffff ffff ffff     ................
3000b0c4:	ffff ffff ffff ffff ffff ffff ffff ffff     ................
3000b0d4:	ffff ffff ffff ffff ffff ffff ffff ffff     ................
3000b0e4:	ffff ffff ffff ffff ffff ffff ffff ffff     ................
3000b0f4:	ffff ffff ffff ffff ffff ffff ffff ffff     ................
3000b104:	ffff ffff ffff ffff ffff ffff ffff ffff     ................
3000b114:	ffff ffff ffff ffff ffff ffff ffff ffff     ................
3000b124:	ffff ffff ffff ffff ffff ffff ffff ffff     ................
3000b134:	ffff ffff ffff ffff ffff ffff ffff ffff     ................
3000b144:	ffff ffff ffff ffff ffff ffff ffff ffff     ................
3000b154:	ffff ffff ffff ffff ffff ffff ffff ffff     ................
3000b164:	ffff ffff ffff ffff ffff ffff ffff ffff     ................
3000b174:	ffff ffff ffff ffff ffff ffff ffff ffff     ................
3000b184:	ffff ffff ffff ffff ffff ffff ffff ffff     ................
3000b194:	ffff ffff ffff ffff ffff ffff ffff ffff     ................
3000b1a4:	ffff ffff ffff ffff ffff ffff ffff ffff     ................
3000b1b4:	ffff ffff ffff ffff ffff ffff ffff ffff     ................
3000b1c4:	ffff ffff ffff ffff ffff ffff ffff ffff     ................
3000b1d4:	ffff ffff ffff ffff ffff ffff ffff ffff     ................
3000b1e4:	ffff ffff ffff ffff ffff ffff ffff ffff     ................
3000b1f4:	ffff ffff ffff ffff ffff ffff ffff ffff     ................
3000b204:	ffff ffff ffff ffff ffff ffff ffff ffff     ................
3000b214:	ffff ffff ffff ffff ffff ffff ffff ffff     ................
3000b224:	ffff ffff ffff ffff ffff ffff ffff ffff     ................
3000b234:	ffff ffff ffff ffff ffff ffff ffff ffff     ................
3000b244:	ffff ffff ffff ffff ffff ffff ffff ffff     ................
3000b254:	ffff ffff ffff ffff ffff ffff ffff ffff     ................
3000b264:	ffff ffff ffff ffff ffff ffff ffff ffff     ................
3000b274:	ffff ffff ffff ffff ffff ffff ffff ffff     ................
3000b284:	ffff ffff ffff ffff ffff ffff ffff ffff     ................
3000b294:	ffff ffff ffff ffff ffff ffff ffff ffff     ................
3000b2a4:	ffff ffff ffff ffff ffff ffff ffff ffff     ................
3000b2b4:	ffff ffff ffff ffff ffff ffff ffff ffff     ................
3000b2c4:	ffff ffff ffff ffff ffff ffff ffff ffff     ................
3000b2d4:	ffff ffff ffff ffff ffff ffff ffff ffff     ................
3000b2e4:	ffff ffff ffff ffff ffff ffff ffff ffff     ................
3000b2f4:	ffff ffff ffff ffff ffff ffff ffff ffff     ................
3000b304:	ffff ffff ffff ffff ffff ffff ffff ffff     ................
3000b314:	ffff ffff ffff ffff ffff ffff ffff ffff     ................
3000b324:	ffff ffff ffff ffff ffff ffff ffff ffff     ................
3000b334:	ffff ffff ffff ffff ffff ffff ffff ffff     ................
3000b344:	ffff ffff ffff ffff ffff ffff ffff ffff     ................
3000b354:	ffff ffff ffff ffff ffff ffff ffff ffff     ................
3000b364:	ffff ffff ffff ffff ffff ffff ffff ffff     ................
3000b374:	ffff ffff ffff ffff ffff ffff ffff ffff     ................
3000b384:	ffff ffff ffff ffff ffff ffff ffff ffff     ................
3000b394:	ffff ffff ffff ffff ffff ffff ffff ffff     ................
3000b3a4:	ffff ffff ffff ffff ffff ffff ffff ffff     ................
3000b3b4:	ffff ffff ffff ffff ffff ffff ffff ffff     ................
3000b3c4:	ffff ffff ffff ffff ffff ffff ffff ffff     ................
3000b3d4:	ffff ffff ffff ffff ffff ffff ffff ffff     ................
3000b3e4:	ffff ffff ffff ffff ffff ffff ffff ffff     ................
3000b3f4:	ffff ffff ffff ffff ffff ffff ffff ffff     ................
3000b404:	ffff ffff ffff ffff ffff ffff ffff ffff     ................
3000b414:	ffff ffff ffff ffff ffff ffff ffff ffff     ................
3000b424:	ffff ffff ffff ffff ffff ffff ffff ffff     ................
3000b434:	ffff ffff ffff ffff ffff ffff ffff ffff     ................
3000b444:	ffff ffff ffff ffff ffff ffff ffff ffff     ................
3000b454:	ffff ffff ffff ffff ffff ffff ffff ffff     ................
3000b464:	ffff ffff ffff ffff ffff ffff ffff ffff     ................
3000b474:	ffff ffff ffff ffff ffff ffff ffff ffff     ................
3000b484:	ffff ffff ffff ffff ffff ffff ffff ffff     ................
3000b494:	ffff ffff ffff ffff ffff ffff ffff ffff     ................
3000b4a4:	ffff ffff ffff ffff ffff ffff ffff ffff     ................
3000b4b4:	ffff ffff ffff ffff ffff ffff ffff ffff     ................
3000b4c4:	ffff ffff ffff ffff ffff ffff ffff ffff     ................
3000b4d4:	ffff ffff ffff ffff ffff ffff ffff ffff     ................
3000b4e4:	ffff ffff ffff ffff ffff ffff ffff ffff     ................
3000b4f4:	ffff ffff ffff ffff ffff ffff ffff ffff     ................
3000b504:	ffff ffff ffff ffff ffff ffff ffff ffff     ................
3000b514:	ffff ffff ffff ffff ffff ffff ffff ffff     ................
3000b524:	ffff ffff ffff ffff ffff ffff ffff ffff     ................
3000b534:	ffff ffff ffff ffff ffff ffff ffff ffff     ................
3000b544:	ffff ffff ffff ffff ffff ffff ffff ffff     ................
3000b554:	ffff ffff ffff ffff ffff ffff ffff ffff     ................
3000b564:	ffff ffff ffff ffff ffff ffff ffff ffff     ................
3000b574:	ffff ffff ffff ffff ffff ffff ffff ffff     ................
3000b584:	ffff ffff ffff ffff ffff ffff ffff ffff     ................
3000b594:	ffff ffff ffff ffff ffff ffff ffff ffff     ................
3000b5a4:	ffff ffff ffff ffff ffff ffff ffff ffff     ................
3000b5b4:	ffff ffff ffff ffff ffff ffff ffff ffff     ................
3000b5c4:	ffff ffff ffff ffff ffff ffff ffff ffff     ................
3000b5d4:	ffff ffff ffff ffff ffff ffff ffff ffff     ................
3000b5e4:	ffff ffff ffff ffff ffff ffff ffff ffff     ................
3000b5f4:	ffff ffff ffff ffff ffff ffff ffff ffff     ................
3000b604:	ffff ffff ffff ffff ffff ffff ffff ffff     ................
3000b614:	ffff ffff ffff ffff ffff ffff ffff ffff     ................
3000b624:	ffff ffff ffff ffff ffff ffff ffff ffff     ................
3000b634:	ffff ffff ffff ffff ffff ffff ffff ffff     ................
3000b644:	ffff ffff ffff ffff ffff ffff ffff ffff     ................
3000b654:	ffff ffff ffff ffff ffff ffff ffff ffff     ................
3000b664:	ffff ffff ffff ffff ffff ffff ffff ffff     ................
3000b674:	ffff ffff ffff ffff ffff ffff ffff ffff     ................
3000b684:	ffff ffff ffff ffff ffff ffff ffff ffff     ................
3000b694:	ffff ffff ffff ffff ffff ffff ffff ffff     ................
3000b6a4:	ffff ffff ffff ffff ffff ffff ffff ffff     ................
3000b6b4:	ffff ffff ffff ffff ffff ffff ffff ffff     ................
3000b6c4:	ffff ffff ffff ffff ffff ffff ffff ffff     ................
3000b6d4:	ffff ffff ffff ffff ffff ffff ffff ffff     ................
3000b6e4:	ffff ffff ffff ffff ffff ffff ffff ffff     ................
3000b6f4:	ffff ffff ffff ffff ffff ffff ffff ffff     ................
3000b704:	ffff ffff ffff ffff ffff ffff ffff ffff     ................
3000b714:	ffff ffff ffff ffff ffff ffff ffff ffff     ................
3000b724:	ffff ffff ffff ffff ffff ffff ffff ffff     ................
3000b734:	ffff ffff ffff ffff ffff ffff ffff ffff     ................
3000b744:	ffff ffff ffff ffff ffff ffff ffff ffff     ................
3000b754:	ffff ffff ffff ffff ffff ffff ffff ffff     ................
3000b764:	ffff ffff ffff ffff ffff ffff ffff ffff     ................
3000b774:	ffff ffff ffff ffff ffff ffff ffff ffff     ................
3000b784:	ffff ffff ffff ffff ffff ffff ffff ffff     ................
3000b794:	ffff ffff ffff ffff ffff ffff ffff ffff     ................
3000b7a4:	ffff ffff ffff ffff ffff ffff ffff ffff     ................
3000b7b4:	ffff ffff ffff ffff ffff ffff ffff ffff     ................
3000b7c4:	ffff ffff ffff ffff ffff ffff ffff ffff     ................
3000b7d4:	ffff ffff ffff ffff ffff ffff ffff ffff     ................
3000b7e4:	ffff ffff ffff ffff ffff ffff ffff ffff     ................
3000b7f4:	ffff ffff ffff ffff ffff ffff ffff ffff     ................
3000b804:	ffff ffff ffff ffff ffff ffff ffff ffff     ................
3000b814:	ffff ffff ffff ffff ffff ffff ffff ffff     ................
3000b824:	ffff ffff ffff ffff ffff ffff ffff ffff     ................
3000b834:	ffff ffff ffff ffff ffff ffff ffff ffff     ................
3000b844:	ffff ffff ffff ffff ffff ffff ffff ffff     ................
3000b854:	ffff ffff ffff ffff ffff ffff ffff ffff     ................
3000b864:	ffff ffff ffff ffff ffff ffff ffff ffff     ................
3000b874:	ffff ffff ffff ffff ffff ffff ffff ffff     ................
3000b884:	ffff ffff ffff ffff ffff ffff ffff ffff     ................
3000b894:	ffff ffff ffff ffff ffff ffff ffff ffff     ................
3000b8a4:	ffff ffff ffff ffff ffff ffff ffff ffff     ................
3000b8b4:	ffff ffff ffff ffff ffff ffff ffff ffff     ................
3000b8c4:	ffff ffff ffff ffff ffff ffff ffff ffff     ................
3000b8d4:	ffff ffff ffff ffff ffff ffff ffff ffff     ................
3000b8e4:	ffff ffff ffff ffff ffff ffff ffff ffff     ................
3000b8f4:	ffff ffff ffff ffff ffff ffff ffff ffff     ................
3000b904:	ffff ffff ffff ffff ffff ffff ffff ffff     ................
3000b914:	ffff ffff ffff ffff ffff ffff ffff ffff     ................
3000b924:	ffff ffff ffff ffff ffff ffff ffff ffff     ................
3000b934:	ffff ffff ffff ffff ffff ffff ffff ffff     ................
3000b944:	ffff ffff ffff ffff ffff ffff ffff ffff     ................
3000b954:	ffff ffff ffff ffff ffff ffff ffff ffff     ................
3000b964:	ffff ffff ffff ffff ffff ffff ffff ffff     ................
3000b974:	ffff ffff ffff ffff ffff ffff ffff ffff     ................
3000b984:	ffff ffff ffff ffff ffff ffff ffff ffff     ................
3000b994:	ffff ffff ffff ffff ffff ffff ffff ffff     ................
3000b9a4:	ffff ffff ffff ffff ffff ffff ffff ffff     ................
3000b9b4:	ffff ffff ffff ffff ffff ffff ffff ffff     ................
3000b9c4:	ffff ffff ffff ffff ffff ffff ffff ffff     ................
3000b9d4:	ffff ffff ffff ffff ffff ffff ffff ffff     ................
3000b9e4:	ffff ffff ffff ffff ffff ffff ffff ffff     ................
3000b9f4:	ffff ffff ffff ffff ffff ffff ffff ffff     ................
3000ba04:	ffff ffff ffff ffff ffff ffff ffff ffff     ................
3000ba14:	ffff ffff ffff ffff ffff ffff ffff ffff     ................
3000ba24:	ffff ffff ffff ffff ffff ffff ffff ffff     ................
3000ba34:	ffff ffff ffff ffff ffff ffff ffff ffff     ................
3000ba44:	ffff ffff ffff ffff ffff ffff ffff ffff     ................
3000ba54:	ffff ffff ffff ffff ffff ffff ffff ffff     ................
3000ba64:	ffff ffff ffff ffff ffff ffff ffff ffff     ................
3000ba74:	ffff ffff ffff ffff ffff ffff ffff ffff     ................
3000ba84:	ffff ffff ffff ffff ffff ffff ffff ffff     ................
3000ba94:	ffff ffff ffff ffff ffff ffff ffff ffff     ................
3000baa4:	ffff ffff ffff ffff ffff ffff ffff ffff     ................
3000bab4:	ffff ffff ffff ffff ffff ffff ffff ffff     ................
3000bac4:	ffff ffff ffff ffff ffff ffff ffff ffff     ................
3000bad4:	ffff ffff ffff ffff ffff ffff ffff ffff     ................
3000bae4:	ffff ffff ffff ffff ffff ffff ffff ffff     ................
3000baf4:	ffff ffff ffff ffff ffff ffff ffff ffff     ................
3000bb04:	ffff ffff ffff ffff ffff ffff ffff ffff     ................
3000bb14:	ffff ffff ffff ffff ffff ffff ffff ffff     ................
3000bb24:	ffff ffff ffff ffff ffff ffff ffff ffff     ................
3000bb34:	ffff ffff ffff ffff ffff ffff ffff ffff     ................
3000bb44:	ffff ffff ffff ffff ffff ffff ffff ffff     ................
3000bb54:	ffff ffff ffff ffff ffff ffff ffff ffff     ................
3000bb64:	ffff ffff ffff ffff ffff ffff ffff ffff     ................
3000bb74:	ffff ffff ffff ffff ffff ffff ffff ffff     ................
3000bb84:	ffff ffff ffff ffff ffff ffff ffff ffff     ................
3000bb94:	ffff ffff ffff ffff ffff ffff ffff ffff     ................
3000bba4:	ffff ffff ffff ffff ffff ffff ffff ffff     ................
3000bbb4:	ffff ffff ffff ffff ffff ffff ffff ffff     ................
3000bbc4:	ffff ffff ffff ffff ffff ffff ffff ffff     ................
3000bbd4:	ffff ffff ffff ffff ffff ffff ffff ffff     ................
3000bbe4:	ffff ffff ffff ffff ffff ffff ffff ffff     ................
3000bbf4:	ffff ffff ffff ffff ffff ffff ffff ffff     ................
3000bc04:	ffff ffff ffff ffff ffff ffff ffff ffff     ................
3000bc14:	ffff ffff ffff ffff ffff ffff ffff ffff     ................
3000bc24:	ffff ffff ffff ffff ffff ffff ffff ffff     ................
3000bc34:	ffff ffff ffff ffff ffff ffff ffff ffff     ................
3000bc44:	ffff ffff ffff ffff ffff ffff ffff ffff     ................
3000bc54:	ffff ffff ffff ffff ffff ffff ffff ffff     ................
3000bc64:	ffff ffff ffff ffff ffff ffff ffff ffff     ................
3000bc74:	ffff ffff ffff ffff ffff ffff ffff ffff     ................
3000bc84:	ffff ffff ffff ffff ffff ffff ffff ffff     ................
3000bc94:	ffff ffff ffff ffff ffff ffff ffff ffff     ................
3000bca4:	ffff ffff ffff ffff ffff ffff ffff ffff     ................
3000bcb4:	ffff ffff ffff ffff ffff ffff ffff ffff     ................
3000bcc4:	ffff ffff ffff ffff ffff ffff ffff ffff     ................
3000bcd4:	ffff ffff ffff ffff ffff ffff ffff ffff     ................
3000bce4:	ffff ffff ffff ffff ffff ffff ffff ffff     ................
3000bcf4:	ffff ffff ffff ffff ffff ffff ffff ffff     ................
3000bd04:	ffff ffff ffff ffff ffff ffff ffff ffff     ................
3000bd14:	ffff ffff ffff ffff ffff ffff ffff ffff     ................
3000bd24:	ffff ffff ffff ffff ffff ffff ffff ffff     ................
3000bd34:	ffff ffff ffff ffff ffff ffff ffff ffff     ................
3000bd44:	ffff ffff ffff ffff ffff ffff ffff ffff     ................
3000bd54:	ffff ffff ffff ffff ffff ffff ffff ffff     ................
3000bd64:	ffff ffff ffff ffff ffff ffff ffff ffff     ................
3000bd74:	ffff ffff ffff ffff ffff ffff ffff ffff     ................
3000bd84:	ffff ffff ffff ffff ffff ffff ffff ffff     ................
3000bd94:	ffff ffff ffff ffff ffff ffff ffff ffff     ................
3000bda4:	ffff ffff ffff ffff ffff ffff ffff ffff     ................
3000bdb4:	ffff ffff ffff ffff ffff ffff ffff ffff     ................
3000bdc4:	ffff ffff ffff ffff ffff ffff ffff ffff     ................
3000bdd4:	ffff ffff ffff ffff ffff ffff ffff ffff     ................
3000bde4:	ffff ffff ffff ffff ffff ffff ffff ffff     ................
3000bdf4:	ffff ffff ffff ffff ffff ffff ffff ffff     ................
3000be04:	ffff ffff ffff ffff ffff ffff ffff ffff     ................
3000be14:	ffff ffff ffff ffff ffff ffff ffff ffff     ................
3000be24:	ffff ffff ffff ffff ffff ffff ffff ffff     ................
3000be34:	ffff ffff ffff ffff ffff ffff ffff ffff     ................
3000be44:	ffff ffff ffff ffff ffff ffff ffff ffff     ................
3000be54:	ffff ffff ffff ffff ffff ffff ffff ffff     ................
3000be64:	ffff ffff ffff ffff ffff ffff ffff ffff     ................
3000be74:	ffff ffff ffff ffff ffff ffff ffff ffff     ................
3000be84:	ffff ffff ffff ffff ffff ffff ffff ffff     ................
3000be94:	ffff ffff ffff ffff ffff ffff ffff ffff     ................
3000bea4:	ffff ffff ffff ffff ffff ffff ffff ffff     ................
3000beb4:	ffff ffff ffff ffff ffff ffff ffff ffff     ................
3000bec4:	ffff ffff ffff ffff ffff ffff ffff ffff     ................
3000bed4:	ffff ffff ffff ffff ffff ffff ffff ffff     ................
3000bee4:	ffff ffff ffff ffff ffff ffff ffff ffff     ................
3000bef4:	ffff ffff ffff ffff ffff ffff ffff ffff     ................
3000bf04:	ffff ffff ffff ffff ffff ffff ffff ffff     ................
3000bf14:	ffff ffff ffff ffff ffff ffff ffff ffff     ................
3000bf24:	ffff ffff ffff ffff ffff ffff ffff ffff     ................
3000bf34:	ffff ffff ffff ffff ffff ffff ffff ffff     ................
3000bf44:	ffff ffff ffff ffff ffff ffff ffff ffff     ................
3000bf54:	ffff ffff ffff ffff ffff ffff ffff ffff     ................
3000bf64:	ffff ffff ffff ffff ffff ffff ffff ffff     ................
3000bf74:	ffff ffff ffff ffff ffff ffff ffff ffff     ................
3000bf84:	ffff ffff ffff ffff ffff ffff ffff ffff     ................
3000bf94:	ffff ffff ffff ffff ffff ffff ffff ffff     ................
3000bfa4:	ffff ffff ffff ffff ffff ffff ffff ffff     ................
3000bfb4:	ffff ffff ffff ffff ffff ffff ffff ffff     ................
3000bfc4:	ffff ffff ffff ffff ffff ffff ffff ffff     ................
3000bfd4:	ffff ffff ffff ffff ffff ffff ffff ffff     ................
3000bfe4:	ffff ffff ffff ffff ffff ffff ffff ffff     ................
3000bff4:	ffff ffff ffff ffff ffff ffff ffff ffff     ................
3000c004:	ffff ffff ffff ffff ffff ffff ffff ffff     ................
3000c014:	ffff ffff ffff ffff ffff ffff ffff ffff     ................
3000c024:	ffff ffff ffff ffff ffff ffff ffff ffff     ................
3000c034:	ffff ffff ffff ffff ffff ffff ffff ffff     ................
3000c044:	ffff ffff ffff ffff ffff ffff ffff ffff     ................
3000c054:	ffff ffff ffff ffff ffff ffff ffff ffff     ................
3000c064:	ffff ffff ffff ffff ffff ffff ffff ffff     ................
3000c074:	ffff ffff ffff ffff ffff ffff ffff ffff     ................
3000c084:	ffff ffff ffff ffff ffff ffff ffff ffff     ................
3000c094:	ffff ffff ffff ffff ffff ffff ffff ffff     ................
3000c0a4:	ffff ffff ffff ffff ffff ffff ffff ffff     ................
3000c0b4:	ffff ffff ffff ffff ffff ffff ffff ffff     ................
3000c0c4:	ffff ffff ffff ffff ffff ffff ffff ffff     ................
3000c0d4:	ffff ffff ffff ffff ffff ffff ffff ffff     ................
3000c0e4:	ffff ffff ffff ffff ffff ffff ffff ffff     ................
3000c0f4:	ffff ffff ffff ffff ffff ffff ffff ffff     ................
3000c104:	ffff ffff ffff ffff ffff ffff ffff ffff     ................
3000c114:	ffff ffff ffff ffff ffff ffff ffff ffff     ................
3000c124:	ffff ffff ffff ffff ffff ffff ffff ffff     ................
3000c134:	ffff ffff ffff ffff ffff ffff ffff ffff     ................
3000c144:	ffff ffff ffff ffff ffff ffff ffff ffff     ................
3000c154:	ffff ffff ffff ffff ffff ffff ffff ffff     ................
3000c164:	ffff ffff ffff ffff ffff ffff ffff ffff     ................
3000c174:	ffff ffff ffff ffff ffff ffff ffff ffff     ................
3000c184:	ffff ffff ffff ffff ffff ffff ffff ffff     ................
3000c194:	ffff ffff ffff ffff ffff ffff ffff ffff     ................
3000c1a4:	ffff ffff ffff ffff ffff ffff ffff ffff     ................
3000c1b4:	ffff ffff ffff ffff ffff ffff ffff ffff     ................
3000c1c4:	ffff ffff ffff ffff ffff ffff ffff ffff     ................
3000c1d4:	ffff ffff ffff ffff ffff ffff ffff ffff     ................
3000c1e4:	ffff ffff ffff ffff ffff ffff ffff ffff     ................
3000c1f4:	ffff ffff ffff ffff ffff ffff ffff ffff     ................
3000c204:	ffff ffff ffff ffff ffff ffff ffff ffff     ................
3000c214:	ffff ffff ffff ffff ffff ffff ffff ffff     ................
3000c224:	ffff ffff ffff ffff ffff ffff ffff ffff     ................
3000c234:	ffff ffff ffff ffff ffff ffff ffff ffff     ................
3000c244:	ffff ffff ffff ffff ffff ffff ffff ffff     ................
3000c254:	ffff ffff ffff ffff ffff ffff ffff ffff     ................
3000c264:	ffff ffff ffff ffff ffff ffff ffff ffff     ................
3000c274:	ffff ffff ffff ffff ffff ffff ffff ffff     ................
3000c284:	ffff ffff ffff ffff ffff ffff ffff ffff     ................
3000c294:	ffff ffff ffff ffff ffff ffff ffff ffff     ................
3000c2a4:	ffff ffff ffff ffff ffff ffff ffff ffff     ................
3000c2b4:	ffff ffff ffff ffff ffff ffff ffff ffff     ................
3000c2c4:	ffff ffff ffff ffff ffff ffff ffff ffff     ................
3000c2d4:	ffff ffff ffff ffff ffff ffff ffff ffff     ................
3000c2e4:	ffff ffff ffff ffff ffff ffff ffff ffff     ................
3000c2f4:	ffff ffff ffff ffff ffff ffff ffff ffff     ................
3000c304:	ffff ffff ffff ffff ffff ffff ffff ffff     ................
3000c314:	ffff ffff ffff ffff ffff ffff ffff ffff     ................
3000c324:	ffff ffff ffff ffff ffff ffff ffff ffff     ................
3000c334:	ffff ffff ffff ffff ffff ffff ffff ffff     ................
3000c344:	ffff ffff ffff ffff ffff ffff ffff ffff     ................
3000c354:	ffff ffff ffff ffff ffff ffff ffff ffff     ................
3000c364:	ffff ffff ffff ffff ffff ffff ffff ffff     ................
3000c374:	ffff ffff ffff ffff ffff ffff ffff ffff     ................
3000c384:	ffff ffff ffff ffff ffff ffff ffff ffff     ................
3000c394:	ffff ffff ffff ffff ffff ffff ffff ffff     ................
3000c3a4:	ffff ffff ffff ffff ffff ffff ffff ffff     ................
3000c3b4:	ffff ffff ffff ffff ffff ffff ffff ffff     ................
3000c3c4:	ffff ffff ffff ffff ffff ffff ffff ffff     ................
3000c3d4:	ffff ffff ffff ffff ffff ffff ffff ffff     ................
3000c3e4:	ffff ffff ffff ffff ffff ffff ffff ffff     ................
3000c3f4:	ffff ffff ffff ffff ffff ffff ffff ffff     ................
3000c404:	ffff ffff ffff ffff ffff ffff ffff ffff     ................
3000c414:	ffff ffff ffff ffff ffff ffff ffff ffff     ................
3000c424:	ffff ffff ffff ffff ffff ffff ffff ffff     ................
3000c434:	ffff ffff ffff ffff ffff ffff ffff ffff     ................
3000c444:	ffff ffff ffff ffff ffff ffff ffff ffff     ................
3000c454:	ffff ffff ffff ffff ffff ffff ffff ffff     ................
3000c464:	ffff ffff ffff ffff ffff ffff ffff ffff     ................
3000c474:	ffff ffff ffff ffff ffff ffff ffff ffff     ................
3000c484:	ffff ffff ffff ffff ffff ffff ffff ffff     ................
3000c494:	ffff ffff ffff ffff ffff ffff ffff ffff     ................
3000c4a4:	ffff ffff ffff ffff ffff ffff ffff ffff     ................
3000c4b4:	ffff ffff ffff ffff ffff ffff ffff ffff     ................
3000c4c4:	ffff ffff ffff ffff ffff ffff ffff ffff     ................
3000c4d4:	ffff ffff ffff ffff ffff ffff ffff ffff     ................
3000c4e4:	ffff ffff ffff ffff ffff ffff ffff ffff     ................
3000c4f4:	ffff ffff ffff ffff ffff ffff ffff ffff     ................
3000c504:	ffff ffff ffff ffff ffff ffff ffff ffff     ................
3000c514:	ffff ffff ffff ffff ffff ffff ffff ffff     ................
3000c524:	ffff ffff ffff ffff ffff ffff ffff ffff     ................
3000c534:	ffff ffff ffff ffff ffff ffff ffff ffff     ................
3000c544:	ffff ffff ffff ffff ffff ffff ffff ffff     ................
3000c554:	ffff ffff ffff ffff ffff ffff ffff ffff     ................
3000c564:	ffff ffff ffff ffff ffff ffff ffff ffff     ................
3000c574:	ffff ffff ffff ffff ffff ffff ffff ffff     ................
3000c584:	ffff ffff ffff ffff ffff ffff ffff ffff     ................
3000c594:	ffff ffff ffff ffff ffff ffff ffff ffff     ................
3000c5a4:	ffff ffff ffff ffff ffff ffff ffff ffff     ................
3000c5b4:	ffff ffff ffff ffff ffff ffff ffff ffff     ................
3000c5c4:	ffff ffff ffff ffff ffff ffff ffff ffff     ................
3000c5d4:	ffff ffff ffff ffff ffff ffff ffff ffff     ................
3000c5e4:	ffff ffff ffff ffff ffff ffff ffff ffff     ................
3000c5f4:	ffff ffff ffff ffff ffff ffff ffff ffff     ................
3000c604:	ffff ffff ffff ffff ffff ffff ffff ffff     ................
3000c614:	ffff ffff ffff ffff ffff ffff ffff ffff     ................
3000c624:	ffff ffff ffff ffff ffff ffff ffff ffff     ................
3000c634:	ffff ffff ffff ffff ffff ffff ffff ffff     ................
3000c644:	ffff ffff ffff ffff ffff ffff ffff ffff     ................
3000c654:	ffff ffff ffff ffff ffff ffff ffff ffff     ................
3000c664:	ffff ffff ffff ffff ffff ffff ffff ffff     ................
3000c674:	ffff ffff ffff ffff ffff ffff ffff ffff     ................
3000c684:	ffff ffff ffff ffff ffff ffff ffff ffff     ................
3000c694:	ffff ffff ffff ffff ffff ffff ffff ffff     ................
3000c6a4:	ffff ffff ffff ffff ffff ffff ffff ffff     ................
3000c6b4:	ffff ffff ffff ffff ffff ffff ffff ffff     ................
3000c6c4:	ffff ffff ffff ffff ffff ffff ffff ffff     ................
3000c6d4:	ffff ffff ffff ffff ffff ffff ffff ffff     ................
3000c6e4:	ffff ffff ffff ffff ffff ffff ffff ffff     ................
3000c6f4:	ffff ffff ffff ffff ffff ffff ffff ffff     ................
3000c704:	ffff ffff ffff ffff ffff ffff ffff ffff     ................
3000c714:	ffff ffff ffff ffff ffff ffff ffff ffff     ................
3000c724:	ffff ffff ffff ffff ffff ffff ffff ffff     ................
3000c734:	ffff ffff ffff ffff ffff ffff ffff ffff     ................
3000c744:	ffff ffff ffff ffff ffff ffff ffff ffff     ................
3000c754:	ffff ffff ffff ffff ffff ffff ffff ffff     ................
3000c764:	ffff ffff ffff ffff ffff ffff ffff ffff     ................
3000c774:	ffff ffff ffff ffff ffff ffff ffff ffff     ................
3000c784:	ffff ffff ffff ffff ffff ffff ffff ffff     ................
3000c794:	ffff ffff ffff ffff ffff ffff ffff ffff     ................
3000c7a4:	ffff ffff ffff ffff ffff ffff ffff ffff     ................
3000c7b4:	ffff ffff ffff ffff ffff ffff ffff ffff     ................
3000c7c4:	ffff ffff ffff ffff ffff ffff ffff ffff     ................
3000c7d4:	ffff ffff ffff ffff ffff ffff ffff ffff     ................
3000c7e4:	ffff ffff ffff ffff ffff ffff ffff ffff     ................
3000c7f4:	ffff ffff ffff ffff ffff ffff ffff ffff     ................
3000c804:	ffff ffff ffff ffff ffff ffff ffff ffff     ................
3000c814:	ffff ffff ffff ffff ffff ffff ffff ffff     ................
3000c824:	ffff ffff ffff ffff ffff ffff ffff ffff     ................
3000c834:	ffff ffff ffff ffff ffff ffff ffff ffff     ................
3000c844:	ffff ffff ffff ffff ffff ffff ffff ffff     ................
3000c854:	ffff ffff ffff ffff ffff ffff ffff ffff     ................
3000c864:	ffff ffff ffff ffff ffff ffff ffff ffff     ................
3000c874:	ffff ffff ffff ffff ffff ffff ffff ffff     ................
3000c884:	ffff ffff ffff ffff ffff ffff ffff ffff     ................
3000c894:	ffff ffff ffff ffff ffff ffff ffff ffff     ................
3000c8a4:	ffff ffff ffff ffff ffff ffff ffff ffff     ................
3000c8b4:	ffff ffff ffff ffff ffff ffff ffff ffff     ................
3000c8c4:	ffff ffff ffff ffff ffff ffff ffff ffff     ................
3000c8d4:	ffff ffff ffff ffff ffff ffff ffff ffff     ................
3000c8e4:	ffff ffff ffff ffff ffff ffff ffff ffff     ................
3000c8f4:	ffff ffff ffff ffff ffff ffff ffff ffff     ................
3000c904:	ffff ffff ffff ffff ffff ffff ffff ffff     ................
3000c914:	ffff ffff ffff ffff ffff ffff ffff ffff     ................
3000c924:	ffff ffff ffff ffff ffff ffff ffff ffff     ................
3000c934:	ffff ffff ffff ffff ffff ffff ffff ffff     ................
3000c944:	ffff ffff ffff ffff ffff ffff ffff ffff     ................
3000c954:	ffff ffff ffff ffff ffff ffff ffff ffff     ................
3000c964:	ffff ffff ffff ffff ffff ffff ffff ffff     ................
3000c974:	ffff ffff ffff ffff ffff ffff ffff ffff     ................
3000c984:	ffff ffff ffff ffff ffff ffff ffff ffff     ................
3000c994:	ffff ffff ffff ffff ffff ffff ffff ffff     ................
3000c9a4:	ffff ffff ffff ffff ffff ffff ffff ffff     ................
3000c9b4:	ffff ffff ffff ffff ffff ffff ffff ffff     ................
3000c9c4:	ffff ffff ffff ffff ffff ffff ffff ffff     ................
3000c9d4:	ffff ffff ffff ffff ffff ffff ffff ffff     ................
3000c9e4:	ffff ffff ffff ffff ffff ffff ffff ffff     ................
3000c9f4:	ffff ffff ffff ffff ffff ffff ffff ffff     ................
3000ca04:	ffff ffff ffff ffff ffff ffff ffff ffff     ................
3000ca14:	ffff ffff ffff ffff ffff ffff ffff ffff     ................
3000ca24:	ffff ffff ffff ffff ffff ffff ffff ffff     ................
3000ca34:	ffff ffff ffff ffff ffff ffff ffff ffff     ................
3000ca44:	ffff ffff ffff ffff ffff ffff ffff ffff     ................
3000ca54:	ffff ffff ffff ffff ffff ffff ffff ffff     ................
3000ca64:	ffff ffff ffff ffff ffff ffff ffff ffff     ................
3000ca74:	ffff ffff ffff ffff ffff ffff ffff ffff     ................
3000ca84:	ffff ffff ffff ffff ffff ffff ffff ffff     ................
3000ca94:	ffff ffff ffff ffff ffff ffff ffff ffff     ................
3000caa4:	ffff ffff ffff ffff ffff ffff ffff ffff     ................
3000cab4:	ffff ffff ffff ffff ffff ffff ffff ffff     ................
3000cac4:	ffff ffff ffff ffff ffff ffff ffff ffff     ................
3000cad4:	ffff ffff ffff ffff ffff ffff ffff ffff     ................
3000cae4:	ffff ffff ffff ffff ffff ffff ffff ffff     ................
3000caf4:	ffff ffff ffff ffff ffff ffff ffff ffff     ................
3000cb04:	ffff ffff ffff ffff ffff ffff ffff ffff     ................
3000cb14:	ffff ffff ffff ffff ffff ffff ffff ffff     ................
3000cb24:	ffff ffff ffff ffff ffff ffff ffff ffff     ................
3000cb34:	ffff ffff ffff ffff ffff ffff ffff ffff     ................
3000cb44:	ffff ffff ffff ffff ffff ffff ffff ffff     ................
3000cb54:	ffff ffff ffff ffff ffff ffff ffff ffff     ................
3000cb64:	ffff ffff ffff ffff ffff ffff ffff ffff     ................
3000cb74:	ffff ffff ffff ffff ffff ffff ffff ffff     ................
3000cb84:	ffff ffff ffff ffff ffff ffff ffff ffff     ................
3000cb94:	ffff ffff ffff ffff ffff ffff ffff ffff     ................
3000cba4:	ffff ffff ffff ffff ffff ffff ffff ffff     ................
3000cbb4:	ffff ffff ffff ffff ffff ffff ffff ffff     ................
3000cbc4:	ffff ffff ffff ffff ffff ffff ffff ffff     ................
3000cbd4:	ffff ffff ffff ffff ffff ffff ffff ffff     ................
3000cbe4:	ce59 e73c b5b6 b5b6 dedb c618 ffff f7be     Y.<.............
3000cbf4:	ffff ffff ffff ffff e71c ffff ffff ce59     ..............Y.
3000cc04:	ffff ffff ffff ffff ffff ffff ffff ffff     ................
3000cc14:	ffff ffff ffff ffff ffff ffff ef5d ffdf     ............]...
3000cc24:	e71c e71c ef7d e73c ffff ffff ffff ffff     ....}.<.........
3000cc34:	ffff ffff ffff ffff ffff ffff ffff ffff     ................
3000cc44:	ffff ffff ffff ffff ffff ffff ffff ffff     ................
3000cc54:	ffff ffff c618 e71c bdd7 b596 ffdf d6ba     ................
3000cc64:	ffff ffff ffff ffff ce59 ffff ffff ffff     ........Y.......
3000cc74:	ffff ffff ffff ffff ffff ffff ffff ffff     ................
3000cc84:	ffff ffff ffff ffff ffff ffff 5acb ce59     .............ZY.
3000cc94:	4a49 52aa 5acb 5acb 5acb 5acb 5acb 5acb     IJ.R.Z.Z.Z.Z.Z.Z
3000cca4:	52aa 5acb 528a 528a 528a 528a 52aa 52aa     .R.Z.R.R.R.R.R.R
3000ccb4:	5acb 5acb 5acb 5acb 5acb 5acb ffff ce79     .Z.Z.Z.Z.Z.Z..y.
3000ccc4:	ffff ffff ffff ffff ffff ffff ffff ffff     ................
3000ccd4:	ffff ffff ffff ffff ce59 ffff 31a6 73ae     ........Y....1.s
3000cce4:	0000 0861 0000 0000 0000 0000 528a 1082     ..a..........R..
3000ccf4:	ef5d a534 ffff ffff 6b4d ffff ffff 52aa     ].4.....Mk.....R
3000cd04:	ffff ffff ffff ffff ffff ffff ffff ffff     ................
3000cd14:	ffff ffff ce59 ffff 4228 7bef 0000 18c3     ....Y...(B.{....
3000cd24:	0000 0000 0020 0000 528a 2104 dedb 8c71     .... ....R.!..q.
3000cd34:	ffff ffff ffff ffff ffff ffff ffff ffff     ................
3000cd44:	ffff ffff ffff ffff ffff ffff ffff ffff     ................
3000cd54:	4208 a534 0000 0000 0000 0000 1082 0000     .B4.............
3000cd64:	d69a 6b4d ffff ffff 3186 dedb ffff ffff     ..Mk.....1......
3000cd74:	ffff ffff ffff ffff ffff ffff ffff ffff     ................
3000cd84:	ffff ffff ffff ffff ffff ffff c638 ef7d     ............8.}.
3000cd94:	630c b5b6 0000 0000 0000 0000 0000 0000     .c..............
3000cda4:	0000 0000 0020 0020 0000 0020 0000 0000     .... . ... .....
	...
3000cdc0:	ffff b596 ffff ffff ffff ffff ffff ffff     ................
3000cdd0:	ffff ffff ffff ffff c618 ffff 0000 4a49     ..............IJ
	...
3000cde8:	52aa 2124 630c 6b4d 0000 31a6 0861 0000     .R$!.cMk...1a...
3000cdf8:	ad55 5aeb 0020 9cd3 ffff 6b4d ffff ffff     U..Z .....Mk....
3000ce08:	ffff ffff ffff ffff ffff ffff c618 ffff     ................
3000ce18:	0000 4a49 0000 0000 630c 0841 ad75 9cf3     ..IJ.....cA.u...
3000ce28:	5aeb 9cf3 0000 0020 0841 0000 ce79 52aa     .Z.... .A...y..R
3000ce38:	ffff ffff ffff ffff ffff ffff ffff ffff     ................
3000ce48:	ffff ffff ffff ffff 4a49 ef7d 0000 0000     ........IJ}.....
3000ce58:	8410 2124 b596 ad75 4208 8c71 0000 0000     ..$!..u..Bq.....
3000ce68:	94b2 4a69 2124 4208 ffff ffff ffff ffff     ..iJ$!.B........
3000ce78:	ffff ffff ffff ffff ffff ffff ffff ffff     ................
3000ce88:	ffff ffff ffff ffff ffff ffff ffff ffff     ................
3000ce98:	0000 6b4d 0000 0000 0000 0000 7bef 0000     ..Mk.........{..
3000cea8:	f79e f79e ef7d f79e d6ba e73c 5acb b596     ....}.....<..Z..
	...
3000cec0:	ffff b5b6 ffff ffff ffff ffff ffff ffff     ................
3000ced0:	ffff ffff f7be ffff 0000 738e 0000 0000     ...........s....
3000cee0:	0000 0000 c618 528a ffff ffdf ffff ffff     .......R........
3000cef0:	e73c ffff 0861 8c71 0000 0000 0000 0000     <...a.q.........
3000cf00:	ffff 738e ffff ffff ffff ffff ffff ffff     ...s............
3000cf10:	ffdf ffff 0000 738e 0000 0000 4a49 0000     .......s....IJ..
3000cf20:	ffff e71c ffff ffff ffff ffff 528a e71c     .............R..
3000cf30:	0000 0000 0020 0000 ffff 8410 ffff ffff     .... ...........
3000cf40:	ffff ffff ffff ffff ffff ffff ef7d ffff     ............}...
3000cf50:	0000 3186 5acb 0000 ffff f7be ffff ffff     ...1.Z..........
3000cf60:	ffff ffff 2965 c638 0000 0000 3186 0000     ....e)8......1..
3000cf70:	ffff ffff ffff ffff ffff ffff ffff ffff     ................
3000cf80:	ffff ffff ffff ffff ffff ffff ffff ffff     ................
3000cf90:	ffff ffff ffff ffff 0000 ad55 0000 0000     ..........U.....
3000cfa0:	0000 0000 8c51 0000 ffff ffff ffff ffff     ....Q...........
3000cfb0:	ffff ffff ffff ffff 2104 c618 0000 0000     .........!......
3000cfc0:	ffff b5b6 ffff ffff ffff ffff ffff ffff     ................
3000cfd0:	ffff ffff 39c7 ef5d 0000 0000 0000 0000     .....9].........
3000cfe0:	9cf3 0020 ffff ffff ffff ffff ffff ffff     .. .............
3000cff0:	ffff ffff e71c ffff 0000 4228 0000 0000     ..........(B....
3000d000:	ffff 738e ffff ffff ffff ffff ffff ffff     ...s............
3000d010:	4208 f79e 0000 0000 0000 0000 ffdf 4228     .B............(B
3000d020:	ffff ffff ffff ffff ffff ffff ffff ffff     ................
3000d030:	0000 4a49 0000 0000 52aa 0000 ffff ffdf     ..IJ.....R......
3000d040:	ffff ffff ffff ffff ffff ffff 528a ffff     .............R..
3000d050:	0000 0000 ffdf 2124 ffff ffff ffff ffff     ......$!........
3000d060:	ffff ffff f7be ffff 0000 528a 2965 0000     ...........Re)..
3000d070:	ffff ffff ffff ffff ffff ffff ffff ffff     ................
3000d080:	ffff ffff ffff ffff ffff ffff ffff ffff     ................
3000d090:	ffff ffff ffff ffff 0000 ad75 0000 0000     ..........u.....
3000d0a0:	0000 0000 8430 0000 ffff ffff ffff ffff     ....0...........
3000d0b0:	ffff ffff ffff ffff dedb ffff 0000 1082     ................
3000d0c0:	ffff b5b6 ffff ffff ffff ffff ffff ffff     ................
3000d0d0:	ef7d ffff 0000 3186 0000 0000 0000 0000     }......1........
3000d0e0:	ffff b596 ffff ffff ffff ffff ffff ffff     ................
3000d0f0:	ffff ffff ffff ffff 4228 ffdf 0000 0000     ........(B......
3000d100:	ffff 738e ffff ffff ffff ffff f79e ffff     ...s............
3000d110:	0000 39e7 0000 0000 1082 0000 ffff e73c     ...9..........<.
3000d120:	ffff ffff ffff ffff ffff ffff ffff ffff     ................
3000d130:	1082 e73c 0000 0000 0000 0000 ffff 52aa     ..<............R
3000d140:	ffff ffff ffff ffff ffff ffff 0000 bdd7     ................
3000d150:	0000 0000 ffff 73ae ffff ffff ffff ffff     .......s........
3000d160:	ffff ffff ffff ffff 31a6 ffdf 2124 0000     .........1..$!..
3000d170:	ffff ffdf ffff ffff ffff ffff ffff ffff     ................
3000d180:	ffff ffff ffff ffff ffff ffff ffff ffff     ................
3000d190:	ffff ffff ffff ffff 0000 ad75 0000 0000     ..........u.....
3000d1a0:	0000 0000 8430 0000 ffff ffff ffff ffff     ....0...........
3000d1b0:	ffff ffff ffff ffff ffff ffff 0000 8410     ................
3000d1c0:	ffff b5b6 ffff ffff ffff ffff ffff ffff     ................
3000d1d0:	4208 ffff 0000 0000 0000 0000 8410 0000     .B..............
3000d1e0:	ffff ffff ffff ffff ffff ffff ffff ffff     ................
3000d1f0:	ffff ffff ffff ffff ef7d ffff 0000 18e3     ........}.......
3000d200:	ffff 738e ffff ffff ffff ffff 52aa ffff     ...s.........R..
	...
3000d218:	8410 0000 ffff ffff ffff ffff ffff ffff     ................
3000d228:	ffff ffff ffff ffff 73ae ffff 0000 0000     .........s......
3000d238:	0000 0000 73ae 0000 ffff ffff ffff ffff     .....s..........
3000d248:	ffff ffff 0000 5acb 0000 0000 ffff 7bcf     .......Z.......{
3000d258:	ffff ffff ffff ffff ffff ffff ffff ffff     ................
3000d268:	d6ba ffff 18e3 0000 ffff f7be ffff ffff     ................
3000d278:	ffff ffff ffff ffff ffff ffff ffff ffff     ................
3000d288:	ffff ffff ffff ffff ffff ffff ffff ffff     ................
3000d298:	0000 ad75 0000 0000 0000 0000 8430 0000     ..u.........0...
3000d2a8:	ffff ffff ffff ffff d6ba ffff ffff ef5d     ..............].
3000d2b8:	ffff ffff 0000 e71c ffff b596 ffff ffff     ................
3000d2c8:	ffff ffff ffff ffff 0000 8410 0000 0000     ................
3000d2d8:	0000 0000 ffdf 2104 ffff ffff ffff ffff     .......!........
3000d2e8:	ffff ffff ffff ffff ffff ffff ffff ffff     ................
3000d2f8:	ffff ffff 0000 a514 ffff 6b6d ffff ffff     ..........mk....
3000d308:	ffff ffff 0000 a514 0000 0000 0000 0000     ................
3000d318:	e73c 0841 ffff ffff ffff ffff ffff ffff     <.A.............
3000d328:	ffff ffff ffff ffff dedb ffff 0000 0020     .............. .
	...
3000d340:	ffff c618 ffff ffff ffff ffff 0000 2945     ..............E)
3000d350:	0000 0000 ffff 2965 ffff ffff ffff ffff     ......e)........
3000d360:	ffff ffff ffff ffff ffff ffff 0841 52aa     ............A..R
3000d370:	ffff f7be ffff ffff ffff ffff ffff ffff     ................
3000d380:	ffff ffff ffff ffff ffff ffff ffff ffff     ................
3000d390:	ffff ffff ffff ffff 0000 ad75 0000 0000     ..........u.....
3000d3a0:	0000 0000 8430 0000 ffff ffff ffff ffff     ....0...........
3000d3b0:	4208 ffff ffff ad75 ffff ffff 2104 ffff     .B....u......!..
3000d3c0:	ffff a514 ffff ffff ffff ffff d69a ffff     ................
3000d3d0:	0000 0020 0000 0000 0000 0000 ffff 8430     .. ...........0.
3000d3e0:	ffff ffff ffff ffff ffff ffff ffff ffff     ................
3000d3f0:	ffff ffff ffff ffff ffff ffff 1082 ffdf     ................
3000d400:	ffff 632c ffff ffff f79e ffff 0000 18c3     ..,c............
	...
3000d418:	ffff 4208 ffff ffff ffff ffff ffff ffff     ...B............
3000d428:	ffff ffff ffff ffff ffff ffff 0000 3186     ...............1
	...
3000d440:	ffff 31a6 ffff ffff f79e ffff 0000 10a2     ...1............
3000d450:	0000 0000 632c 0000 ffff ffff ffff ffff     ....,c..........
3000d460:	ffff ffff ffff ffff ffff ffff 0841 b5b6     ............A...
3000d470:	ffff ef7d ffff ffff ffff ffff ffff ffff     ..}.............
3000d480:	ffff ffff ffff ffff ffff ffff ffff ffff     ................
3000d490:	ffff ffff ffff ffff 0000 ad75 0000 0000     ..........u.....
3000d4a0:	0000 0000 8430 0000 ffff ffff ffff ffff     ....0...........
3000d4b0:	2124 ffff ffff b5b6 ffff ffff 9492 ffff     $!..............
3000d4c0:	ffff bdf7 ffff ffff ffff ffff 52aa ffff     .............R..
	...
3000d4d8:	0020 0000 ffff dedb ffff ffff ffff ffff      ...............
3000d4e8:	ffff ffff ffff ffff ffff ffff ffff ffff     ................
3000d4f8:	ffff ffff 5acb ffff ffff 4a69 ffff ffff     .....Z....iJ....
3000d508:	94b2 ffff 0000 0000 0000 0000 0000 0000     ................
3000d518:	ffff 7bef ffff ffff ffff ffff ffff ffff     ...{............
3000d528:	ffff ffff ffff ffff ffff ffff 0000 632c     ..............,c
	...
3000d540:	bdf7 0000 ffff ffff f7be ffff 0000 18c3     ................
	...
3000d558:	e71c 528a ffff ffff ffff ffff ffff ffff     ...R............
3000d568:	ffff ffff 2965 ef5d ffff e73c ffff ffff     ....e)]...<.....
3000d578:	ffff ffff ffff ffff ffff ffff ffff ffff     ................
3000d588:	ffff ffff ffff ffff ffff ffff ffff ffff     ................
3000d598:	0000 ad75 0000 0000 0000 0000 8430 0000     ..u.........0...
3000d5a8:	ffff ffff ffff ffff 0000 defb ffff bdf7     ................
3000d5b8:	ffff ffff ffff ffff ffff ffff ffff ffff     ................
3000d5c8:	ffff ffff 0020 dedb 0000 0000 0000 0000     .... ...........
3000d5d8:	2965 0000 ffff ffff ffff ffff ffff ffff     e)..............
3000d5e8:	ffff ffff ffff ffff ffff ffff ffff ffff     ................
3000d5f8:	ffff ffff ce59 ffff ffff ad75 ffff ffff     ....Y.....u.....
3000d608:	39e7 ffff 0000 0000 0000 0000 0000 0000     .9..............
3000d618:	ffff ad55 ffff ffff ffff ffff ffff ffff     ..U.............
3000d628:	ffff ffff ffff ffff ffff ffff 0000 9492     ................
	...
3000d640:	630c 0000 ffff ffff ffff ffff 0000 39c7     .c.............9
	...
3000d658:	10a2 0000 f79e 8c51 ffff ffff ffff ffff     ......Q.........
3000d668:	ffff ffff e71c ffff ffff ffdf ffff ffff     ................
3000d678:	ffff ffff ffff ffff ffff ffff ffff ffff     ................
3000d688:	ffff ffff ffff ffff ffff ffff ffff ffff     ................
3000d698:	0000 ad75 0000 0000 0000 0000 8430 0000     ..u.........0...
3000d6a8:	ffff ffff ffff ffff 0000 8c51 ffff c618     ..........Q.....
3000d6b8:	ffff ffff ffff ffff ffff ffff ffff ffff     ................
3000d6c8:	ffff ffff 0000 8c51 0000 0000 0000 0000     ......Q.........
3000d6d8:	630c 0000 ffff ffff ffff ffff ffff ffff     .c..............
3000d6e8:	ffff ffff ffff ffff ffff ffff ffff ffff     ................
3000d6f8:	ffff ffff ffff ffff ffff ffff ffff ffff     ................
3000d708:	0841 e71c 0000 0000 0000 0000 0000 0000     A...............
3000d718:	ffff ce59 ffff ffff ffff ffff ffff ffff     ..Y.............
3000d728:	ffff ffff ffff ffff ffff ffff 0000 ad55     ..............U.
	...
3000d740:	2104 0000 ffff ffdf ffff ffff 0000 8430     .!............0.
	...
3000d75c:	2104 0000 f7be 9492 ffff ffff ffff ffff     .!..............
3000d76c:	ffff ffff ffff ffff ffff ffff ffff ffff     ................
3000d77c:	ffff ffff ffff ffff ffff ffff ffff ffff     ................
3000d78c:	ffff ffff ffff ffff ffff ffff 0000 ad75     ..............u.
	...
3000d7a4:	8430 0000 ffff ffff ef7d ffff 0000 18c3     0.......}.......
3000d7b4:	ffff c618 ffff ffff ffff ffff ffff ffff     ................
3000d7c4:	ffff ffff ffff ffff 0000 4228 0000 0000     ..........(B....
3000d7d4:	0000 0000 8430 0000 ffff ffff ffff ffff     ....0...........
3000d7e4:	ffff ffff ffff ffff ffff ffff ffff ffff     ................
3000d7f4:	ffff ffff ffff ffff ffff ffff ffff ffff     ................
3000d804:	ffff ffff 0000 b5b6 0000 0000 0000 0000     ................
3000d814:	0020 0000 ffff defb ffff ffff ffff ffff      ...............
3000d824:	ffff ffff ffff ffff ffff ffff ffff ffff     ................
3000d834:	0000 bdf7 0000 0000 0000 0000 0000 0000     ................
3000d844:	ffff dedb ffff ffff 1082 ef5d 0000 0000     ..........].....
	...
3000d860:	2124 0000 ffdf 94b2 ffff ffff ffff ffff     $!..............
3000d870:	ffff ffff ffff ffff ffff ffff ffff ffff     ................
3000d880:	ffff ffff ffff ffff ffff ffff ffff ffff     ................
3000d890:	ffff ffff ffff ffff 0000 ad75 0000 0000     ..........u.....
3000d8a0:	0000 0000 9492 0000 ffff ffff 39c7 d69a     .............9..
3000d8b0:	0000 0000 ffff c618 ffff ffff ffff ffff     ................
3000d8c0:	ffff ffff ffff ffff f7be ffff 0000 18e3     ................
	...
3000d8d8:	9cf3 0000 ffff ffff ffff ffff ffff ffff     ................
3000d8e8:	ffff ffff ffff ffff ffff ffff ffff ffff     ................
3000d8f8:	ffff ffff ffff ffff ffff ffff ffff ffff     ................
3000d908:	0000 94b2 0000 0000 0000 0000 1082 0000     ................
3000d918:	ffff ef5d ffff ffff ffff ffff ffff ffff     ..].............
3000d928:	ffff ffff ffff ffff ffff ffff 0000 ce79     ..............y.
	...
3000d944:	ffff bdd7 ffff ffff a534 ffff 0000 0000     ........4.......
	...
3000d964:	2965 0000 ffff b596 ffff ffff ffff ffff     e)..............
3000d974:	ffff ffff ffff ffff ffff ffff ffff ffff     ................
3000d984:	ffff ffff ffff ffff ffff ffff ffff ffff     ................
3000d994:	ffff ffff 0000 ad75 0000 0000 0000 0000     ......u.........
3000d9a4:	31a6 0000 39e7 5acb 0000 0020 0000 0000     .1...9.Z.. .....
3000d9b4:	ffff c618 ffff ffff ffff ffff ffff ffff     ................
3000d9c4:	ffff ffff defb ffff 0000 0020 0000 0000     .......... .....
3000d9d4:	0000 0000 a534 0000 ffff ffff ffff ffff     ....4...........
3000d9e4:	ffff ffff ffff ffff ffff ffff ffff ffff     ................
3000d9f4:	ffff ffff ffff ffff ffff ffff ffff ffff     ................
3000da04:	ffff ffff 0000 8410 0000 0000 0000 0000     ................
3000da14:	10a2 0000 ffff ef7d ffff ffff ffff ffff     ......}.........
3000da24:	ffff ffff ffff ffff ffff ffff ffff ffff     ................
3000da34:	0000 d69a 0000 0000 0000 0000 0000 0000     ................
3000da44:	ffff ad55 ffff ffff ffff ffff 0000 8430     ..U...........0.
	...
3000da68:	632c 0000 ffff f79e ffff ffff ffff ffff     ,c..............
3000da78:	ffff ffff ffff ffff ffff ffff ffff ffff     ................
3000da88:	ffff ffff ffff ffff ffff ffff ffff ffff     ................
3000da98:	0000 ad75 0000 0000 0000 0000 0000 0000     ..u.............
	...
3000dab4:	ffff c618 ffff ffff ffff ffff ffff ffff     ................
3000dac4:	ffff ffff d6ba ffff 0000 0000 0000 0000     ................
3000dad4:	0000 0000 ad55 0000 ffff ffff ffff ffff     ....U...........
3000dae4:	ffff ffff ffff ffff ffff ffff ffff ffff     ................
3000daf4:	ffff ffff ffff ffff ffff ffff ffff ffff     ................
3000db04:	ffff ffff 0000 7bef 0000 0000 0000 0000     .......{........
3000db14:	18c3 0000 ffff f79e ffff ffff ffff ffff     ................
3000db24:	ffff ffff ffff ffff ffff ffff ffff ffff     ................
3000db34:	0000 d69a 0000 0000 0000 0000 0000 0000     ................
3000db44:	ffff a514 ffff ffff ffff ffff a514 ffff     ................
3000db54:	0000 0861 0000 0000 0000 0000 0000 0000     ..a.............
	...
3000db6c:	e71c 3186 ffff ffff ffff ffff ffff ffff     ...1............
3000db7c:	ffff ffff ffff ffff ffff ffff ffff ffff     ................
3000db8c:	ffff ffff ffff ffff ffff ffff 0000 ad75     ..............u.
	...
3000dba4:	7bef 0000 ce59 e73c 0000 73ae 0000 0000     .{..Y.<....s....
3000dbb4:	ffff c618 ffff ffff ffff ffff ffff ffff     ................
3000dbc4:	ffff ffff d6ba ffff 0000 0000 0000 0000     ................
3000dbd4:	0000 0000 a514 0000 ffff ffff ffff ffff     ................
3000dbe4:	ffff ffff ffff ffff ffff ffff ffff ffff     ................
3000dbf4:	ffff ffff ffff ffff ffff ffff ffff ffff     ................
3000dc04:	ffff ffff 0000 8430 0000 0000 0000 0000     ......0.........
3000dc14:	10a2 0000 ffff ef7d ffff ffff ffff ffff     ......}.........
3000dc24:	ffff ffff ffff ffff ffff ffff ffff ffff     ................
3000dc34:	0000 d69a 0000 0000 0000 0000 0000 0000     ................
3000dc44:	ffff ad75 ffff ffff ffff ffff ffff ffff     ..u.............
3000dc54:	528a dedb 0000 0000 0000 0000 0000 0000     .R..............
	...
3000dc6c:	2945 0000 ffff ef7d ffff ffff ffff ffff     E)....}.........
3000dc7c:	ffff ffff ffff ffff ffff ffff ffff ffff     ................
3000dc8c:	ffff ffff ffff ffff ffff ffff 0000 ad75     ..............u.
	...
3000dca4:	8c71 0000 ffff ffff a534 ffff 0000 0000     q.......4.......
3000dcb4:	ffff c618 ffff ffff ffff ffff ffff ffff     ................
3000dcc4:	ffff ffff e71c ffff 0000 0841 0000 0000     ..........A.....
3000dcd4:	0000 0000 9492 0000 ffff ffff ffff ffff     ................
3000dce4:	ffff ffff ffff ffff ffff ffff ffff ffff     ................
3000dcf4:	ffff ffff ffff ffff ffff ffff ffff ffff     ................
3000dd04:	ffff ffff 0000 9cf3 0000 0000 0000 0000     ................
3000dd14:	0861 0000 ffff ef5d ffff ffff ffff ffff     a.....].........
3000dd24:	ffff ffff ffff ffff ffff ffff ffff ffff     ................
3000dd34:	0000 ce79 0000 0000 0000 0000 0000 0000     ..y.............
3000dd44:	ffff c638 ffff ffff ffff ffff ffff ffff     ..8.............
3000dd54:	ffff ffff 31a6 b596 0000 0000 0000 0000     .....1..........
	...
3000dd70:	ffff 5aeb ffff ffff ffff ffff ffff ffff     ...Z............
3000dd80:	ffff ffff ffff ffff ffff ffff ffff ffff     ................
3000dd90:	ffff ffff ffff ffff 0000 ad75 0000 0000     ..........u.....
3000dda0:	0000 0000 8c51 0000 ffff ffff ffff ffff     ....Q...........
3000ddb0:	0000 4a69 ffff c618 ffff ffff ffff ffff     ..iJ............
3000ddc0:	ffff ffff ffff ffff ffdf ffff 0000 2104     ...............!
	...
3000ddd8:	73ae 0000 ffff ffff ffff ffff ffff ffff     .s..............
3000dde8:	ffff ffff ffff ffff ffff ffff ffff ffff     ................
3000ddf8:	ffff ffff ffff ffff ffff ffff ffff ffff     ................
3000de08:	0000 c618 0000 0000 0000 0000 0020 0000     ............ ...
3000de18:	ffff defb ffff ffff ffff ffff ffff ffff     ................
3000de28:	ffff ffff ffff ffff ffff ffff 0000 bdf7     ................
	...
3000de40:	0841 0000 ffff e73c ffff ffff ffff ffff     A.....<.........
3000de50:	ffff ffff ffff ffff ffff ffff 31a6 ad55     .............1U.
	...
3000de70:	d6ba 0000 ffff ffff ffff ffff ffff ffff     ................
3000de80:	ffff ffff ffff ffff ffff ffff ffff ffff     ................
3000de90:	ffff ffff ffff ffff 0000 ad75 0000 0000     ..........u.....
3000dea0:	0000 0000 8c51 0000 ffff ffff ffff ffff     ....Q...........
3000deb0:	0000 c618 ffff c618 ffff ffff ffff ffff     ................
3000dec0:	ffff ffff ffff ffff ffff ffff 0000 4a69     ..............iJ
	...
3000ded8:	4a69 0000 ffff ffff ffff ffff ffff ffff     iJ..............
3000dee8:	ffff ffff ffff ffff ffff ffff ffff ffff     ................
3000def8:	ffff ffff ffff ffff ffff ffff ffff ffff     ................
3000df08:	1082 ef7d 0000 0000 0000 0000 0000 0000     ..}.............
3000df18:	ffff c638 ffff ffff ffff ffff ffff ffff     ..8.............
3000df28:	ffff ffff ffff ffff ffff ffff 0000 a534     ..............4.
	...
3000df40:	31a6 0000 ffff ffff ef7d ffff ffff a514     .1......}.......
3000df50:	ffff ffff ffff ffff ffff ffff ffff ffff     ................
3000df60:	2945 a534 0000 0000 0000 0000 0000 0000     E)4.............
3000df70:	8430 0000 ffff ffff ffff ffff ffff ffff     0...............
3000df80:	ffff ffff ffff ffff ffff ffff ffff ffff     ................
3000df90:	ffff ffff ffff ffff 0000 ad75 0000 0000     ..........u.....
3000dfa0:	0000 0000 8c71 0000 ffff ffff ffff ffff     ....q...........
3000dfb0:	10a2 ffdf ffff bdd7 ffff ffff ffff ffff     ................
3000dfc0:	b5b6 ffff ffff ce79 ffff ffff 0000 94b2     ......y.........
	...
3000dfd8:	2104 0000 ffff ffdf ffff ffff ffff ffff     .!..............
3000dfe8:	ffff ffff ffff ffff ffff ffff ffff ffff     ................
3000dff8:	ffff ffff ffff ffff ffff ffff ffff ffff     ................
3000e008:	4a49 ffff 0000 0000 0000 0000 0000 0000     IJ..............
3000e018:	ffff a534 ffff ffff ffff ffff ffff ffff     ..4.............
3000e028:	ffff ffff ffff ffff ffff ffff 0000 8430     ..............0.
	...
3000e040:	7bef 0000 ffff ffff e73c ffff e73c 10a2     .{......<...<...
3000e050:	ffff ffff ffff ffff ffff ffff ffff ffff     ................
3000e060:	f7be ffff 0000 73ae 0000 0000 0000 0000     .......s........
3000e070:	52aa 0000 ffff ffff ffff ffff ffff ffff     .R..............
3000e080:	ffff ffff ffff ffff ffff ffff ffff ffff     ................
3000e090:	ffff ffff ffff ffff 0000 ad75 0000 0000     ..........u.....
3000e0a0:	0000 0000 8c71 0000 ffff ffff ffff ffff     ....q...........
3000e0b0:	31a6 ffff ffff ad75 ffff ffff ffff ffff     .1....u.........
3000e0c0:	3186 ffff ffff b596 ffff ffff 0841 e73c     .1..........A.<.
	...
3000e0dc:	ffff ce79 ffff ffff ffff ffff ffff ffff     ..y.............
3000e0ec:	ffff ffff ffff ffff ffff ffff ffff ffff     ................
3000e0fc:	ffff ffff ffff ffff ffff ffff ad75 ffff     ............u...
	...
3000e118:	ffff 73ae ffff ffff ffff ffff ffff ffff     ...s............
3000e128:	ffff ffff ffff ffff ffff ffff 0000 52aa     ...............R
	...
3000e140:	dedb 0020 ffff ffff ef7d ffff ad55 0020     .. .....}...U. .
3000e150:	ffff ffff ffff ffff ffff ffff ffff ffff     ................
3000e160:	ffff ffff 9cd3 ffff 0000 0000 0000 0000     ................
3000e170:	4a49 0000 ffff ffff ffff ffff ffff ffff     IJ..............
3000e180:	ffff ffff ffff ffff ffff ffff ffff ffff     ................
3000e190:	ffff ffff ffff ffff 0000 ad75 0000 0000     ..........u.....
3000e1a0:	0000 0000 8c71 0000 ffff ffff ffff ffff     ....q...........
3000e1b0:	ad75 ffff ffff d6ba ffff ffff ffff ffff     u...............
3000e1c0:	0020 ce79 ffff e71c ffff ffff 6b4d ffff      .y.........Mk..
	...
3000e1dc:	ffff 7bef ffff ffff ffff ffff ffff ffff     ...{............
3000e1ec:	ffff ffff ffff ffff ffff ffff ffff ffff     ................
3000e1fc:	ffff ffff ffff ffff ffff ffff ffdf ffff     ................
3000e20c:	0000 2945 0000 0000 0000 0000 ffff 31a6     ..E)...........1
3000e21c:	ffff ffff ffff ffff ffff ffff ffff ffff     ................
3000e22c:	ffff ffff ffdf ffff 0000 18e3 0000 0000     ................
3000e23c:	0000 0000 ffff 5aeb ffff ffff ef7d ffff     .......Z....}...
3000e24c:	4a69 0000 ffff ffff ffff ffff ffff ffff     iJ..............
3000e25c:	ffff ffff ffff ffff ffff ffff 0000 630c     ...............c
3000e26c:	0000 0000 528a 0000 ffff ffff ffff ffff     .....R..........
3000e27c:	ffff ffff ffff ffff ffff ffff ffff ffff     ................
3000e28c:	ffff ffff ffff ffff ffff ffff 0000 ad75     ..............u.
	...
3000e2a4:	8c71 0000 ffff ffff ffff ffff ffff ffff     q...............
3000e2b4:	ffff ffff ffff ffff ffff ffff 1082 4a49     ..............IJ
3000e2c4:	ffff ffdf ffff ffff e73c ffff 0000 1082     ........<.......
	...
3000e2dc:	ffdf 2104 ffff ffff ffff ffff ffff ffff     ...!............
3000e2ec:	ffff ffff ffff ffff ffff ffff ffff ffff     ................
3000e2fc:	9492 ffff ffff d6ba ffff ffff ffff ffff     ................
3000e30c:	0000 b5b6 0000 0000 0000 0000 dedb 0020     .............. .
3000e31c:	ffff ffff ffff ffff ffff ffff ffff ffff     ................
3000e32c:	ffff ffff bdf7 ffff 0000 0000 0000 0000     ................
3000e33c:	0861 0000 ffff e71c ffff ffff ef7d ffff     a...........}...
3000e34c:	0000 0861 ffff d6ba ffff ffff ffff ffff     ..a.............
3000e35c:	ffff ffff ffff ffff ffff ffff 0000 d69a     ................
3000e36c:	0000 0000 7bef 0000 ffff ffff ffff ffff     .....{..........
3000e37c:	ffff ffff ffff ffff ffff ffff ffff ffff     ................
3000e38c:	ffff ffff ffff ffff ffff ffff 0000 ad75     ..............u.
	...
3000e3a4:	8c51 0000 ffff ffff ffff ffff ffff ffff     Q...............
3000e3b4:	ffff ffff ffff ffff ad55 ffff 39e7 0000     ........U....9..
3000e3c4:	ffff ffff ffff ffff ffff ffff 0000 a534     ..............4.
	...
3000e3dc:	8c51 0000 ffff ffff ffff ffff ffff ffff     Q...............
3000e3ec:	ffff ffff ffff ffff ffff ffff ffff ffff     ................
3000e3fc:	0000 94b2 ffff dedb ffff ffff ffff ffff     ................
3000e40c:	6b4d ffff 0000 0000 0000 0000 73ae 0000     Mk...........s..
3000e41c:	ffff ffff ffff ffff ffff ffff ffff ffff     ................
3000e42c:	ffff ffff 528a ffff 0000 0000 0000 0000     .....R..........
3000e43c:	9cf3 0000 ffff ffff ffff ffff ef7d ffff     ............}...
3000e44c:	0000 1082 ffff 4228 ffff ffff ffff ffff     ......(B........
3000e45c:	ffff ffff ffff ffff ffff ffff 0861 ef5d     ............a.].
3000e46c:	0000 0000 ce79 0000 ffff ffff ffff ffff     ....y...........
3000e47c:	ffff ffff ffff ffff ffff ffff ffff ffff     ................
3000e48c:	ffff ffff ffff ffff ffff ffff 0000 ad75     ..............u.
	...
3000e4a4:	8430 0000 ffff ffff ffff ffff ffff ffff     0...............
3000e4b4:	ffff ffff ffff ffff 0841 bdd7 632c 0000     ........A...,c..
3000e4c4:	ffff ffff ffff ffff ffff ffff 7bcf ffff     .............{..
	...
3000e4dc:	0020 0000 ffff c638 ffff ffff ffff ffff      .....8.........
3000e4ec:	ffff ffff ffff ffff ffff ffff 8c71 ffff     ............q...
3000e4fc:	2124 0000 ffff f79e ffff ffff ffff ffff     $!..............
3000e50c:	ffdf ffff 0000 4228 0000 0000 0861 0000     ......(B....a...
3000e51c:	ffff defb ffff ffff ffff ffff ffff ffff     ................
3000e52c:	ffff ffff 0000 c638 0000 0000 0000 0000     ......8.........
3000e53c:	ffff 738e ffff ffff ffff ffff ef7d ffff     ...s........}...
3000e54c:	0000 1082 7bef 0000 ffff ffff ffff ffff     .....{..........
3000e55c:	ffff ffff ffff ffff ffff ffff 0000 d69a     ................
3000e56c:	0000 0000 ffff 528a ffff ffff ffff ffff     .......R........
3000e57c:	ffff ffff ffff ffff ffff ffff ffff ffff     ................
3000e58c:	ffff ffff ffff ffff ffff ffff 0000 a514     ................
	...
3000e5a4:	632c 0000 ffff ffff ffff ffff ffff ffff     ,c..............
3000e5b4:	ffff ffff 8410 ef7d 0000 0020 8430 0000     ......}... .0...
3000e5c4:	ffff ffff ffff ffff ffff ffff ffff ffff     ................
3000e5d4:	0000 8410 0000 0000 0000 0000 b596 1082     ................
3000e5e4:	ffff ffff ffff ffff ffff ffff ffff ffff     ................
3000e5f4:	defb ffff 0000 528a e71c 3186 ffff ffff     .......R...1....
3000e604:	ffff ffff ffff ffff ffff ffff 4228 f79e     ............(B..
	...
3000e61c:	ffdf 39e7 ffff ffff ffff ffff ffff ffff     ...9............
3000e62c:	ef5d ffff 0000 2124 0000 0000 6b6d 0000     ].....$!....mk..
3000e63c:	ffff ffff ffff ffff ffff ffff ef7d ffff     ............}...
3000e64c:	0000 1082 0000 0000 ffff 8410 ffff ffff     ................
3000e65c:	ffff ffff ffff ffff ffff ffff 0000 5aeb     ...............Z
3000e66c:	18c3 0000 ffff e73c ffff ffff ffff ffff     ......<.........
3000e67c:	ffff ffff ffff ffff ffff ffff ffff ffff     ................
3000e68c:	ffff ffff ffff ffff ffff ffff 0000 528a     ...............R
	...
3000e6a4:	0841 0000 dedb 94b2 defb defb ce79 defb     A...........y...
3000e6b4:	6b4d a534 0000 18e3 0000 0000 ad55 0000     Mk4.........U...
3000e6c4:	ffff ffff ffff ffff ffff ffff ffff ffff     ................
3000e6d4:	b596 ffff 0000 2124 0000 0000 0000 0000     ......$!........
3000e6e4:	b5b6 52aa ffff e73c ffff ffff bdd7 ef5d     ...R..<.......].
3000e6f4:	0000 6b4d 5aeb 0000 ffff f79e ffff ffff     ..Mk.Z..........
3000e704:	ffff ffff ffff ffff ffff ffff ffff ffff     ................
3000e714:	0000 73ae 0000 0000 39e7 0000 ffff d6ba     ...s.....9......
3000e724:	ffff ffff ffff ffff 2965 ce59 0000 0000     ........e)Y.....
3000e734:	0861 0000 ffff 94b2 ffff ffff ffff ffff     a...............
3000e744:	ffff ffff ef7d ffff 0000 10a2 0000 0000     ....}...........
3000e754:	4a49 0000 ffff d69a ffff ffff ffff ffff     IJ..............
3000e764:	73ae ffff 0000 0000 ce79 18e3 ffff ffff     .s......y.......
3000e774:	ffff ffff ffff ffff ffff ffff ffff ffff     ................
3000e784:	ffff ffff ffff ffff ffff ffff 9cf3 defb     ................
3000e794:	39e7 9492 0000 0000 0000 0000 0000 0000     .9..............
	...
3000e7c0:	ce59 0000 ffff ffff ffff ffff ffff ffff     Y...............
3000e7d0:	ffff ffff ffff ffff 8410 f79e 0000 2104     ...............!
	...
3000e7e8:	2104 0861 18e3 2965 0000 0020 2965 0000     .!a...e).. .e)..
3000e7f8:	ffff ad75 ffff ffff ffff ffff ffff ffff     ..u.............
3000e808:	ffff ffff ffff ffff ffff ffff c638 ffff     ............8...
3000e818:	0020 528a 0000 0000 4208 0000 8c71 7bef      ..R.....B..q..{
3000e828:	39e7 73ae 0000 0000 0861 0000 dedb 630c     .9.s....a......c
3000e838:	ffff ffff ffff ffff ffff ffff ffff ffff     ................
3000e848:	ef7d ffff 0861 0020 7bcf 73ae 0000 2965     }...a. ..{.s..e)
3000e858:	39e7 0000 a534 8430 73ae a514 0000 2124     .9..4.0..s....$!
3000e868:	528a 0000 ffff e71c ffff ffff ffff ffff     .R..............
3000e878:	ffff ffff ffff ffff ffff ffff ffff ffff     ................
3000e888:	ffff ffff ffff ffff 738e d69a 6b6d 6b6d     .........s..mkmk
3000e898:	7bef 7bef 7bef 7bef 7bef 7bef 7bef 7bef     .{.{.{.{.{.{.{.{
3000e8a8:	7bcf 7bef 7bcf 7bcf 7bef 7bcf 7bef 7bef     .{.{.{.{.{.{.{.{
3000e8b8:	8410 8410 7bef 8410 f79e 8430 ffff ffff     .....{....0.....
3000e8c8:	ffff ffff ffff ffff ffff ffff ffff ffff     ................
3000e8d8:	ffff ffff b5b6 f7be 39e7 738e 0841 18e3     .........9.sA...
3000e8e8:	0000 0000 0861 0000 738e 3186 ffff bdf7     ....a....s.1....
3000e8f8:	ffff ffff ffff ffff ffff ffff ffff ffff     ................
3000e908:	ffff ffff ffff ffff ffff ffff ffff ffff     ................
3000e918:	d6ba ffff 4a69 8c51 0000 2104 0000 0000     ....iJQ....!....
3000e928:	0000 0000 52aa 2124 e71c 94b2 ffff ffff     .....R$!........
3000e938:	ffff ffff ffff ffff ffff ffff ffff ffff     ................
3000e948:	ef5d ffff c618 18c3 ffff ffff bdd7 ffff     ]...............
3000e958:	18c3 632c 0000 0000 0000 0000 630c 18c3     ..,c.........c..
3000e968:	ffff bdf7 ffff ffff ffff ffff ffff ffff     ................
3000e978:	ffff ffff ffff ffff ffff ffff ffff ffff     ................
3000e988:	ffff ffff ffff ffff ffff ffff ffff ffff     ................
3000e998:	ffff ffff ffff ffff ffff ffff ffff ffff     ................
3000e9a8:	ffff ffff ffff ffff ffff ffff ffff ffff     ................
3000e9b8:	ffff ffff ffff ffff ffff ffff ffff ffff     ................
3000e9c8:	ffff ffff ffff ffff ffff ffff ffff ffff     ................
3000e9d8:	ffff ffff ffff ffff ffff ffff e71c f7be     ................
3000e9e8:	dedb dedb f79e e71c ffff ffff ffff ffff     ................
3000e9f8:	ffff ffff ffff ffff ffff ffff ffff ffff     ................
3000ea08:	ffff ffff ffff ffff ffff ffff ffff ffff     ................
3000ea18:	ffff ffff ffff ffff ef5d ffff dedb defb     ........].......
3000ea28:	ef5d defb ffff ffff ffff ffff ffff ffff     ]...............
3000ea38:	ffff ffff ffff ffff ffff ffff ffff ffff     ................
3000ea48:	ffdf ffff ffff e73c ffff ffff ffff ffff     ......<.........
3000ea58:	ffff ffff d6ba e73c e71c d6ba ffff ffdf     ......<.........
3000ea68:	ffff ffff ffff ffff ffff ffff ffff ffff     ................
3000ea78:	ffff ffff ffff ffff ffff ffff ffff ffff     ................
3000ea88:	ffff ffff ffff ffff ffff ffff ffff ffff     ................
3000ea98:	ffff ffff ffff ffff ffff ffff ffff ffff     ................
3000eaa8:	ffff ffff ffff ffff ffff ffff ffff ffff     ................
3000eab8:	ffff ffff ffff ffff ffff ffff ffff ffff     ................
3000eac8:	ffff ffff ffff ffff ffff ffff ffff ffff     ................
3000ead8:	ffff ffff ffff ffff ffff ffff ffff ffff     ................
3000eae8:	ffff ffff ffff ffff ffff ffff ffff ffff     ................
3000eaf8:	ffff ffff ffff ffff ffff ffff ffff ffff     ................
3000eb08:	ffff ffff ffff ffff ffff ffff ffff ffff     ................
3000eb18:	ffff ffff ffff ffff ffff ffff ffff ffff     ................
3000eb28:	ffff ffff ffff ffff ffff ffff ffff ffff     ................
3000eb38:	ffff ffff ffff ffff ffff ffff ffff ffff     ................
3000eb48:	ffff ffff ffff ffff ffff ffff ffff ffff     ................
3000eb58:	ffff ffff ffff ffff ffff ffff ffff ffff     ................
3000eb68:	ffff ffff ffff ffff ffff ffff ffff ffff     ................
3000eb78:	ffff ffff ffff ffff ffff ffff ffff ffff     ................
3000eb88:	ffff ffff ffff ffff ffff ffff ffff ffff     ................
3000eb98:	ffff ffff ffff ffff ffff ffff ffff ffff     ................
3000eba8:	ffff ffff ffff ffff ffff ffff ffff ffff     ................
3000ebb8:	ffff ffff ffff ffff ffff ffff ffff ffff     ................
3000ebc8:	ffff ffff ffff ffff ffff ffff ffff ffff     ................
3000ebd8:	ffff ffff ffff ffff ffff ffff ffff ffff     ................
3000ebe8:	ffff ffff ffff ffff ffff ffff ffff ffff     ................
3000ebf8:	ffff ffff ffff ffff ffff ffff ffff ffff     ................
3000ec08:	ffff ffff ffff ffff ffff ffff ffff ffff     ................
3000ec18:	ffff ffff ffff ffff ffff ffff ffff ffff     ................
3000ec28:	ffff ffff ffff ffff ffff ffff ffff ffff     ................
3000ec38:	ffff ffff ffff ffff ffff ffff ffff ffff     ................
3000ec48:	ffff ffff ffff ffff ffff ffff ffff ffff     ................
3000ec58:	ffff ffff ffff ffff ffff ffff ffff ffff     ................
3000ec68:	ffff ffff ffff ffff ffff ffff ffff ffff     ................
3000ec78:	ffff ffff ffff ffff ffff ffff ffff ffff     ................
3000ec88:	ffff ffff ffff ffff ffff ffff ffff ffff     ................
3000ec98:	ffff ffff ffff ffff ffff ffff ffff ffff     ................
3000eca8:	ffff ffff ffff ffff ffff ffff ffff ffff     ................
3000ecb8:	ffff ffff ffff ffff ffff ffff ffff ffff     ................
3000ecc8:	ffff ffff ffff ffff ffff ffff ffff ffff     ................
3000ecd8:	ffff ffff ffff ffff ffff ffff ffff ffff     ................
3000ece8:	ffff ffff ffff ffff ffff ffff ffff ffff     ................
3000ecf8:	ffff ffff ffff ffff ffff ffff ffff ffff     ................
3000ed08:	ffff ffff ffff ffff ffff ffff ffff ffff     ................
3000ed18:	ffff ffff ffff ffff ffff ffff ffff ffff     ................
3000ed28:	ffff ffff ffff ffff ffff ffff ffff ffff     ................
3000ed38:	ffff ffff ffff ffff ffff ffff ffff ffff     ................
3000ed48:	ffff ffff ffff ffff ffff ffff ffff ffff     ................
3000ed58:	ffff ffff ffff ffff ffff ffff ffff ffff     ................
3000ed68:	ffff ffff ffff ffff ffff ffff ffff ffff     ................
3000ed78:	ffff ffff ffff ffff ffff ffff ffff ffff     ................
3000ed88:	ffff ffff ffff ffff ffff ffff ffff ffff     ................
3000ed98:	ffff ffff ffff ffff ffff ffff ffff ffff     ................
3000eda8:	ffff ffff ffff ffff ffff ffff ffff ffff     ................
3000edb8:	ffff ffff ffff ffff ffff ffff ffff ffff     ................
3000edc8:	ffff ffff ffff ffff ffff ffff ffff ffff     ................
3000edd8:	ffff ffff ffff ffff ffff ffff ffff ffff     ................
3000ede8:	ffff ffff ffff ffff ffff ffff ffff ffff     ................
3000edf8:	ffff ffff ffff ffff ffff ffff ffff ffff     ................
3000ee08:	ffff ffff ffff ffff ffff ffff ffff ffff     ................
3000ee18:	ffff ffff ffff ffff ffff ffff ffff ffff     ................
3000ee28:	ffff ffff ffff ffff ffff ffff ffff ffff     ................
3000ee38:	ffff ffff ffff ffff ffff ffff ffff ffff     ................
3000ee48:	ffff ffff ffff ffff ffff ffff ffff ffff     ................
3000ee58:	ffff ffff ffff ffff ffff ffff ffff ffff     ................
3000ee68:	ffff ffff ffff ffff ffff ffff ffff ffff     ................
3000ee78:	ffff ffff ffff ffff ffff ffff ffff ffff     ................
3000ee88:	ffff ffff ffff ffff ffff ffff ffff ffff     ................
3000ee98:	ffff ffff ffff ffff ffff ffff ffff ffff     ................
3000eea8:	ffff ffff ffff ffff ffff ffff ffff ffff     ................
3000eeb8:	ffff ffff ffff ffff ffff ffff ffff ffff     ................
3000eec8:	ffff ffff ffff ffff ffff ffff ffff ffff     ................
3000eed8:	ffff ffff ffff ffff ffff ffff ffff ffff     ................
3000eee8:	ffff ffff ffff ffff ffff ffff ffff ffff     ................
3000eef8:	ffff ffff ffff ffff ffff ffff ffff ffff     ................
3000ef08:	ffff ffff ffff ffff ffff ffff ffff ffff     ................
3000ef18:	ffff ffff ffff ffff ffff ffff ffff ffff     ................
3000ef28:	ffff ffff ffff ffff ffff ffff ffff ffff     ................
3000ef38:	ffff ffff ffff ffff ffff ffff ffff ffff     ................
3000ef48:	ffff ffff ffff ffff ffff ffff ffff ffff     ................
3000ef58:	ffff ffff ffff ffff ffff ffff ffff ffff     ................
3000ef68:	ffff ffff ffff ffff ffff ffff ffff ffff     ................
3000ef78:	ffff ffff ffff ffff ffff ffff ffff ffff     ................
3000ef88:	ffff ffff ffff ffff ffff ffff ffff ffff     ................
3000ef98:	ffff ffff ffff ffff ffff ffff ffff ffff     ................
3000efa8:	ffff ffff ffff ffff ffff ffff ffff ffff     ................
3000efb8:	ffff ffff ffff ffff ffff ffff ffff ffff     ................
3000efc8:	ffff ffff ffff ffff ffff ffff ffff ffff     ................
3000efd8:	ffff ffff ffff ffff ffff ffff ffff ffff     ................
3000efe8:	ffff ffff ffff ffff ffff ffff ffff ffff     ................
3000eff8:	ffff ffff ffff ffff ffff ffff ffff ffff     ................
3000f008:	ffff ffff ffff ffff ffff ffff ffff ffff     ................
3000f018:	ffff ffff ffff ffff ffff ffff ffff ffff     ................
3000f028:	ffff ffff ffff ffff ffff ffff ffff ffff     ................
3000f038:	ffff ffff ffff ffff ffff ffff ffff ffff     ................
3000f048:	ffff ffff ffff ffff ffff ffff ffff ffff     ................
3000f058:	ffff ffff ffff ffff ffff ffff ffff ffff     ................
3000f068:	ffff ffff ffff ffff ffff ffff ffff ffff     ................
3000f078:	ffff ffff ffff ffff ffff ffff ffff ffff     ................
3000f088:	ffff ffff ffff ffff ffff ffff ffff ffff     ................
3000f098:	ffff ffff ffff ffff ffff ffff ffff ffff     ................
3000f0a8:	ffff ffff ffff ffff ffff ffff ffff ffff     ................
3000f0b8:	ffff ffff ffff ffff ffff ffff ffff ffff     ................
3000f0c8:	ffff ffff ffff ffff ffff ffff ffff ffff     ................
3000f0d8:	ffff ffff ffff ffff ffff ffff ffff ffff     ................
3000f0e8:	ffff ffff ffff ffff ffff ffff ffff ffff     ................
3000f0f8:	ffff ffff ffff ffff ffff ffff ffff ffff     ................
3000f108:	ffff ffff ffff ffff ffff ffff ffff ffff     ................
3000f118:	ffff ffff ffff ffff ffff ffff ffff ffff     ................
3000f128:	ffff ffff ffff ffff ffff ffff ffff ffff     ................
3000f138:	ffff ffff ffff ffff ffff ffff ffff ffff     ................
3000f148:	ffff ffff ffff ffff ffff ffff ffff ffff     ................
3000f158:	ffff ffff ffff ffff ffff ffff ffff ffff     ................
3000f168:	ffff ffff ffff ffff ffff ffff ffff ffff     ................
3000f178:	ffff ffff ffff ffff ffff ffff ffff ffff     ................
3000f188:	ffff ffff ffff ffff ffff ffff ffff ffff     ................
3000f198:	ffff ffff ffff ffff ffff ffff ffff ffff     ................
3000f1a8:	ffff ffff ffff ffff ffff ffff ffff ffff     ................
3000f1b8:	ffff ffff ffff ffff ffff ffff ffff ffff     ................
3000f1c8:	ffff ffff ffff ffff ffff ffff ffff ffff     ................
3000f1d8:	ffff ffff ffff ffff ffff ffff ffff ffff     ................
3000f1e8:	ffff ffff ffff ffff ffff ffff ffff ffff     ................
3000f1f8:	ffff ffff ffff ffff ffff ffff ffff ffff     ................
3000f208:	ffff ffff ffff ffff ffff ffff ffff ffff     ................
3000f218:	ffff ffff ffff ffff ffff ffff ffff ffff     ................
3000f228:	ffff ffff ffff ffff ffff ffff ffff ffff     ................
3000f238:	ffff ffff ffff ffff ffff ffff ffff ffff     ................
3000f248:	ffff ffff ffff ffff ffff ffff ffff ffff     ................
3000f258:	ffff ffff ffff ffff ffff ffff ffff ffff     ................
3000f268:	ffff ffff ffff ffff ffff ffff ffff ffff     ................
3000f278:	ffff ffff ffff ffff ffff ffff ffff ffff     ................
3000f288:	ffff ffff ffff ffff ffff ffff ffff ffff     ................
3000f298:	ffff ffff ffff ffff ffff ffff ffff ffff     ................
3000f2a8:	ffff ffff ffff ffff ffff ffff ffff ffff     ................
3000f2b8:	ffff ffff ffff ffff ffff ffff ffff ffff     ................
3000f2c8:	ffff ffff ffff ffff ffff ffff ffff ffff     ................
3000f2d8:	ffff ffff ffff ffff ffff ffff ffff ffff     ................
3000f2e8:	ffff ffff ffff ffff ffff ffff ffff ffff     ................
3000f2f8:	ffff ffff ffff ffff ffff ffff ffff ffff     ................
3000f308:	ffff ffff ffff ffff ffff ffff ffff ffff     ................
3000f318:	ffff ffff ffff ffff ffff ffff ffff ffff     ................
3000f328:	ffff ffff ffff ffff ffff ffff ffff ffff     ................
3000f338:	ffff ffff ffff ffff ffff ffff ffff ffff     ................
3000f348:	ffff ffff ffff ffff ffff ffff ffff ffff     ................
3000f358:	ffff ffff ffff ffff ffff ffff ffff ffff     ................
3000f368:	ffff ffff ffff ffff ffff ffff ffff ffff     ................
3000f378:	ffff ffff ffff ffff ffff ffff ffff ffff     ................
3000f388:	ffff ffff ffff ffff ffff ffff ffff ffff     ................
3000f398:	ffff ffff ffff ffff ffff ffff ffff ffff     ................
3000f3a8:	ffff ffff ffff ffff ffff ffff ffff ffff     ................
3000f3b8:	ffff ffff ffff ffff ffff ffff ffff ffff     ................
3000f3c8:	ffff ffff ffff ffff ffff ffff ffff ffff     ................
3000f3d8:	ffff ffff ffff ffff ffff ffff ffff ffff     ................
3000f3e8:	ffff ffff ffff ffff ffff ffff ffff ffff     ................
3000f3f8:	ffff ffff ffff ffff ffff ffff ffff ffff     ................
3000f408:	ffff ffff ffff ffff ffff ffff ffff ffff     ................
3000f418:	ffff ffff ffff ffff ffff ffff ffff ffff     ................
3000f428:	ffff ffff ffff ffff ffff ffff ffff ffff     ................
3000f438:	ffff ffff ffff ffff ffff ffff ffff ffff     ................
3000f448:	ffff ffff ffff ffff ffff ffff ffff ffff     ................
3000f458:	ffff ffff ffff ffff ffff ffff ffff ffff     ................
3000f468:	ffff ffff ffff ffff ffff ffff ffff ffff     ................
3000f478:	ffff ffff ffff ffff ffff ffff ffff ffff     ................
3000f488:	ffff ffff ffff ffff ffff ffff ffff ffff     ................
3000f498:	ffff ffff ffff ffff ffff ffff ffff ffff     ................
3000f4a8:	ffff ffff ffff ffff ffff ffff ffff ffff     ................
3000f4b8:	ffff ffff ffff ffff ffff ffff ffff ffff     ................
3000f4c8:	ffff ffff ffff ffff ffff ffff ffff ffff     ................
3000f4d8:	ffff ffff ffff ffff ffff ffff ffff ffff     ................
3000f4e8:	ffff ffff ffff ffff ffff ffff ffff ffff     ................
3000f4f8:	ffff ffff ffff ffff ffff ffff ffff ffff     ................
3000f508:	ffff ffff ffff ffff ffff ffff ffff ffff     ................
3000f518:	ffff ffff ffff ffff ffff ffff ffff ffff     ................
3000f528:	ffff ffff ffff ffff ffff ffff ffff ffff     ................
3000f538:	ffff ffff ffff ffff ffff ffff ffff ffff     ................
3000f548:	ffff ffff ffff ffff ffff ffff ffff ffff     ................
3000f558:	ffff ffff ffff ffff ffff ffff ffff ffff     ................
3000f568:	ffff ffff ffff ffff ffff ffff ffff ffff     ................
3000f578:	ffff ffff ffff ffff ffff ffff ffff ffff     ................
3000f588:	ffff ffff ffff ffff ffff ffff ffff ffff     ................
3000f598:	ffff ffff ffff ffff ffff ffff ffff ffff     ................
3000f5a8:	ffff ffff ffff ffff ffff ffff ffff ffff     ................
3000f5b8:	ffff ffff ffff ffff ffff ffff ffff ffff     ................
3000f5c8:	ffff ffff ffff ffff ffff ffff ffff ffff     ................
3000f5d8:	ffff ffff ffff ffff ffff ffff ffff ffff     ................
3000f5e8:	ffff ffff ffff ffff ffff ffff ffff ffff     ................
3000f5f8:	ffff ffff ffff ffff ffff ffff ffff ffff     ................
3000f608:	ffff ffff ffff ffff ffff ffff ffff ffff     ................
3000f618:	ffff ffff ffff ffff ffff ffff ffff ffff     ................
3000f628:	ffff ffff ffff ffff ffff ffff ffff ffff     ................
3000f638:	ffff ffff ffff ffff ffff ffff ffff ffff     ................
3000f648:	ffff ffff ffff ffff ffff ffff ffff ffff     ................
3000f658:	ffff ffff ffff ffff ffff ffff ffff ffff     ................
3000f668:	ffff ffff ffff ffff ffff ffff ffff ffff     ................
3000f678:	ffff ffff ffff ffff ffff ffff ffff ffff     ................
3000f688:	ffff ffff ffff ffff ffff ffff ffff ffff     ................
3000f698:	ffff ffff ffff ffff ffff ffff ffff ffff     ................
3000f6a8:	ffff ffff ffff ffff ffff ffff ffff ffff     ................
3000f6b8:	ffff ffff ffff ffff ffff ffff ffff ffff     ................
3000f6c8:	ffff ffff ffff ffff ffff ffff ffff ffff     ................
3000f6d8:	ffff ffff ffff ffff ffff ffff ffff ffff     ................
3000f6e8:	ffff ffff ffff ffff ffff ffff ffff ffff     ................
3000f6f8:	ffff ffff ffff ffff ffff ffff ffff ffff     ................
3000f708:	ffff ffff ffff ffff ffff ffff ffff ffff     ................
3000f718:	ffff ffff ffff ffff ffff ffff ffff ffff     ................
3000f728:	ffff ffff ffff ffff ffff ffff ffff ffff     ................
3000f738:	ffff ffff ffff ffff ffff ffff ffff ffff     ................
3000f748:	ffff ffff ffff ffff ffff ffff ffff ffff     ................
3000f758:	ffff ffff ffff ffff ffff ffff ffff ffff     ................
3000f768:	ffff ffff ffff ffff ffff ffff ffff ffff     ................
3000f778:	ffff ffff ffff ffff ffff ffff ffff ffff     ................
3000f788:	ffff ffff ffff ffff ffff ffff ffff ffff     ................
3000f798:	ffff ffff ffff ffff ffff ffff ffff ffff     ................
3000f7a8:	ffff ffff ffff ffff ffff ffff ffff ffff     ................
3000f7b8:	ffff ffff ffff ffff ffff ffff ffff ffff     ................
3000f7c8:	ffff ffff ffff ffff ffff ffff ffff ffff     ................
3000f7d8:	ffff ffff ffff ffff ffff ffff ffff ffff     ................
3000f7e8:	ffff ffff ffff ffff ffff ffff ffff ffff     ................
3000f7f8:	ffff ffff ffff ffff ffff ffff ffff ffff     ................
3000f808:	ffff ffff ffff ffff ffff ffff ffff ffff     ................
3000f818:	ffff ffff ffff ffff ffff ffff ffff ffff     ................
3000f828:	ffff ffff ffff ffff ffff ffff ffff ffff     ................
3000f838:	ffff ffff ffff ffff ffff ffff ffff ffff     ................
3000f848:	ffff ffff ffff ffff ffff ffff ffff ffff     ................
3000f858:	ffff ffff ffff ffff ffff ffff ffff ffff     ................
3000f868:	ffff ffff ffff ffff ffff ffff ffff ffff     ................
3000f878:	ffff ffff ffff ffff ffff ffff ffff ffff     ................
3000f888:	ffff ffff ffff ffff ffff ffff ffff ffff     ................
3000f898:	ffff ffff ffff ffff ffff ffff ffff ffff     ................
3000f8a8:	ffff ffff ffff ffff ffff ffff ffff ffff     ................
3000f8b8:	ffff ffff ffff ffff ffff ffff ffff ffff     ................
3000f8c8:	ffff ffff ffff ffff ffff ffff ffff ffff     ................
3000f8d8:	ffff ffff ffff ffff ffff ffff ffff ffff     ................
3000f8e8:	ffff ffff ffff ffff ffff ffff ffff ffff     ................
3000f8f8:	ffff ffff ffff ffff ffff ffff ffff ffff     ................
3000f908:	ffff ffff ffff ffff ffff ffff ffff ffff     ................
3000f918:	ffff ffff ffff ffff ffff ffff ffff ffff     ................
3000f928:	ffff ffff ffff ffff ffff ffff ffff ffff     ................
3000f938:	ffff ffff ffff ffff ffff ffff ffff ffff     ................
3000f948:	ffff ffff ffff ffff ffff ffff ffff ffff     ................
3000f958:	ffff ffff ffff ffff ffff ffff ffff ffff     ................
3000f968:	ffff ffff ffff ffff ffff ffff ffff ffff     ................
3000f978:	ffff ffff ffff ffff ffff ffff ffff ffff     ................
3000f988:	ffff ffff ffff ffff ffff ffff ffff ffff     ................
3000f998:	ffff ffff ffff ffff ffff ffff ffff ffff     ................
3000f9a8:	ffff ffff ffff ffff ffff ffff ffff ffff     ................
3000f9b8:	ffff ffff ffff ffff ffff ffff ffff ffff     ................
3000f9c8:	ffff ffff ffff ffff ffff ffff ffff ffff     ................
3000f9d8:	ffff ffff ffff ffff ffff ffff ffff ffff     ................
3000f9e8:	ffff ffff ffff ffff ffff ffff ffff ffff     ................
3000f9f8:	ffff ffff ffff ffff ffff ffff ffff ffff     ................
3000fa08:	ffff ffff ffff ffff ffff ffff ffff ffff     ................
3000fa18:	ffff ffff ffff ffff ffff ffff ffff ffff     ................
3000fa28:	ffff ffff ffff ffff ffff ffff ffff ffff     ................
3000fa38:	ffff ffff ffff ffff ffff ffff ffff ffff     ................
3000fa48:	ffff ffff ffff ffff ffff ffff ffff ffff     ................
3000fa58:	ffff ffff ffff ffff ffff ffff ffff ffff     ................
3000fa68:	ffff ffff ffff ffff ffff ffff ffff ffff     ................
3000fa78:	ffff ffff ffff ffff ffff ffff ffff ffff     ................
3000fa88:	ffff ffff ffff ffff ffff ffff ffff ffff     ................
3000fa98:	ffff ffff ffff ffff ffff ffff ffff ffff     ................
3000faa8:	ffff ffff ffff ffff ffff ffff ffff ffff     ................
3000fab8:	ffff ffff ffff ffff ffff ffff ffff ffff     ................
3000fac8:	ffff ffff ffff ffff ffff ffff ffff ffff     ................
3000fad8:	ffff ffff ffff ffff ffff ffff ffff ffff     ................
3000fae8:	ffff ffff ffff ffff ffff ffff ffff ffff     ................
3000faf8:	ffff ffff ffff ffff ffff ffff ffff ffff     ................
3000fb08:	ffff ffff ffff ffff ffff ffff ffff ffff     ................
3000fb18:	ffff ffff ffff ffff ffff ffff ffff ffff     ................
3000fb28:	ffff ffff ffff ffff ffff ffff ffff ffff     ................
3000fb38:	ffff ffff ffff ffff ffff ffff ffff ffff     ................
3000fb48:	ffff ffff ffff ffff ffff ffff ffff ffff     ................
3000fb58:	ffff ffff ffff ffff ffff ffff ffff ffff     ................
3000fb68:	ffff ffff ffff ffff ffff ffff ffff ffff     ................
3000fb78:	ffff ffff ffff ffff ffff ffff ffff ffff     ................
3000fb88:	ffff ffff ffff ffff ffff ffff ffff ffff     ................
3000fb98:	ffff ffff ffff ffff ffff ffff ffff ffff     ................
3000fba8:	ffff ffff ffff ffff ffff ffff ffff ffff     ................
3000fbb8:	ffff ffff ffff ffff ffff ffff ffff ffff     ................
3000fbc8:	ffff ffff ffff ffff ffff ffff ffff ffff     ................
3000fbd8:	ffff ffff ffff ffff ffff ffff ffff ffff     ................
3000fbe8:	ffff ffff ffff ffff ffff ffff ffff ffff     ................
3000fbf8:	ffff ffff ffff ffff ffff ffff ffff ffff     ................
3000fc08:	ffff ffff ffff ffff ffff ffff ffff ffff     ................
3000fc18:	ffff ffff ffff ffff ffff ffff ffff ffff     ................
3000fc28:	ffff ffff ffff ffff ffff ffff ffff ffff     ................
3000fc38:	ffff ffff ffff ffff ffff ffff ffff ffff     ................
3000fc48:	ffff ffff ffff ffff ffff ffff ffff ffff     ................
3000fc58:	ffff ffff ffff ffff ffff ffff ffff ffff     ................
3000fc68:	ffff ffff ffff ffff ffff ffff ffff ffff     ................
3000fc78:	ffff ffff ffff ffff ffff ffff ffff ffff     ................
3000fc88:	ffff ffff ffff ffff ffff ffff ffff ffff     ................
3000fc98:	ffff ffff ffff ffff ffff ffff ffff ffff     ................
3000fca8:	ffff ffff ffff ffff ffff ffff ffff ffff     ................
3000fcb8:	ffff ffff ffff ffff ffff ffff ffff ffff     ................
3000fcc8:	ffff ffff ffff ffff ffff ffff ffff ffff     ................
3000fcd8:	ffff ffff ffff ffff ffff ffff ffff ffff     ................
3000fce8:	ffff ffff ffff ffff ffff ffff ffff ffff     ................
3000fcf8:	ffff ffff ffff ffff ffff ffff ffff ffff     ................
3000fd08:	ffff ffff ffff ffff ffff ffff ffff ffff     ................
3000fd18:	ffff ffff ffff ffff ffff ffff ffff ffff     ................
3000fd28:	ffff ffff ffff ffff ffff ffff ffff ffff     ................
3000fd38:	ffff ffff ffff ffff ffff ffff ffff ffff     ................
3000fd48:	ffff ffff ffff ffff ffff ffff ffff ffff     ................
3000fd58:	ffff ffff ffff ffff ffff ffff ffff ffff     ................
3000fd68:	ffff ffff ffff ffff ffff ffff ffff ffff     ................
3000fd78:	ffff ffff ffff ffff ffff ffff ffff ffff     ................
3000fd88:	ffff ffff ffff ffff ffff ffff ffff ffff     ................
3000fd98:	ffff ffff ffff ffff ffff ffff ffff ffff     ................
3000fda8:	ffff ffff ffff ffff ffff ffff ffff ffff     ................
3000fdb8:	ffff ffff ffff ffff ffff ffff ffff ffff     ................
3000fdc8:	ffff ffff ffff ffff ffff ffff ffff ffff     ................
3000fdd8:	ffff ffff ffff ffff ffff ffff ffff ffff     ................
3000fde8:	ffff ffff ffff ffff ffff ffff ffff ffff     ................
3000fdf8:	ffff ffff ffff ffff ffff ffff ffff ffff     ................
3000fe08:	ffff ffff ffff ffff ffff ffff ffff ffff     ................
3000fe18:	ffff ffff ffff ffff ffff ffff ffff ffff     ................
3000fe28:	ffff ffff ffff ffff ffff ffff ffff ffff     ................
3000fe38:	ffff ffff ffff ffff ffff ffff ffff ffff     ................
3000fe48:	ffff ffff ffff ffff ffff ffff ffff ffff     ................
3000fe58:	ffff ffff ffff ffff ffff ffff ffff ffff     ................
3000fe68:	ffff ffff ffff ffff ffff ffff ffff ffff     ................
3000fe78:	ffff ffff ffff ffff ffff ffff ffff ffff     ................
3000fe88:	ffff ffff ffff ffff ffff ffff ffff ffff     ................
3000fe98:	ffff ffff ffff ffff ffff ffff ffff ffff     ................
3000fea8:	ffff ffff ffff ffff ffff ffff ffff ffff     ................
3000feb8:	ffff ffff ffff ffff ffff ffff ffff ffff     ................
3000fec8:	ffff ffff ffff ffff ffff ffff ffff ffff     ................
3000fed8:	ffff ffff ffff ffff ffff ffff ffff ffff     ................
3000fee8:	ffff ffff ffff ffff ffff ffff ffff ffff     ................
3000fef8:	ffff ffff ffff ffff ffff ffff ffff ffff     ................
3000ff08:	ffff ffff ffff ffff ffff ffff ffff ffff     ................
3000ff18:	ffff ffff ffff ffff ffff ffff ffff ffff     ................
3000ff28:	ffff ffff ffff ffff ffff ffff ffff ffff     ................
3000ff38:	ffff ffff ffff ffff ffff ffff ffff ffff     ................
3000ff48:	ffff ffff ffff ffff ffff ffff ffff ffff     ................
3000ff58:	ffff ffff ffff ffff ffff ffff ffff ffff     ................
3000ff68:	ffff ffff ffff ffff ffff ffff ffff ffff     ................
3000ff78:	ffff ffff ffff ffff ffff ffff ffff ffff     ................
3000ff88:	ffff ffff ffff ffff ffff ffff ffff ffff     ................
3000ff98:	ffff ffff ffff ffff ffff ffff ffff ffff     ................
3000ffa8:	ffff ffff ffff ffff ffff ffff ffff ffff     ................
3000ffb8:	ffff ffff ffff ffff ffff ffff ffff ffff     ................
3000ffc8:	ffff ffff ffff ffff ffff ffff ffff ffff     ................
3000ffd8:	ffff ffff ffff ffff ffff ffff ffff ffff     ................
3000ffe8:	ffff ffff ffff ffff ffff ffff ffff ffff     ................
3000fff8:	ffff ffff ffff ffff ffff ffff ffff ffff     ................
30010008:	ffff ffff ffff ffff ffff ffff ffff ffff     ................
30010018:	ffff ffff ffff ffff ffff ffff ffff ffff     ................
30010028:	ffff ffff ffff ffff ffff ffff ffff ffff     ................
30010038:	ffff ffff ffff ffff ffff ffff ffff ffff     ................
30010048:	ffff ffff ffff ffff ffff ffff ffff ffff     ................
30010058:	ffff ffff ffff ffff ffff ffff ffff ffff     ................
30010068:	ffff ffff ffff ffff ffff ffff ffff ffff     ................
30010078:	ffff ffff ffff ffff ffff ffff ffff ffff     ................
30010088:	ffff ffff ffff ffff ffff ffff ffff ffff     ................
30010098:	ffff ffff ffff ffff ffff ffff ffff ffff     ................
300100a8:	ffff ffff ffff ffff ffff ffff ffff ffff     ................
300100b8:	ffff ffff ffff ffff ffff ffff ffff ffff     ................
300100c8:	ffff ffff ffff ffff ffff ffff ffff ffff     ................
300100d8:	ffff ffff ffff ffff ffff ffff ffff ffff     ................
300100e8:	ffff ffff ffff ffff ffff ffff ffff ffff     ................
300100f8:	ffff ffff ffff ffff ffff ffff ffff ffff     ................
30010108:	ffff ffff ffff ffff ffff ffff ffff ffff     ................
30010118:	ffff ffff ffff ffff ffff ffff ffff ffff     ................
30010128:	ffff ffff ffff ffff ffff ffff ffff ffff     ................
30010138:	ffff ffff ffff ffff ffff ffff ffff ffff     ................
30010148:	ffff ffff ffff ffff ffff ffff ffff ffff     ................
30010158:	ffff ffff ffff ffff ffff ffff ffff ffff     ................
30010168:	ffff ffff ffff ffff ffff ffff ffff ffff     ................
30010178:	ffff ffff ffff ffff ffff ffff ffff ffff     ................
30010188:	ffff ffff ffff ffff ffff ffff ffff ffff     ................
30010198:	ffff ffff ffff ffff ffff ffff ffff ffff     ................
300101a8:	ffff ffff ffff ffff ffff ffff ffff ffff     ................
300101b8:	ffff ffff ffff ffff ffff ffff ffff ffff     ................
300101c8:	ffff ffff ffff ffff ffff ffff ffff ffff     ................
300101d8:	ffff ffff ffff ffff ffff ffff ffff ffff     ................
300101e8:	ffff ffff ffff ffff ffff ffff ffff ffff     ................
300101f8:	ffff ffff ffff ffff ffff ffff ffff ffff     ................
30010208:	ffff ffff ffff ffff ffff ffff ffff ffff     ................
30010218:	ffff ffff ffff ffff ffff ffff ffff ffff     ................
30010228:	ffff ffff ffff ffff ffff ffff ffff ffff     ................
30010238:	ffff ffff ffff ffff ffff ffff ffff ffff     ................
30010248:	ffff ffff ffff ffff ffff ffff ffff ffff     ................
30010258:	ffff ffff ffff ffff ffff ffff ffff ffff     ................
30010268:	ffff ffff ffff ffff ffff ffff ffff ffff     ................
30010278:	ffff ffff ffff ffff ffff ffff ffff ffff     ................
30010288:	ffff ffff ffff ffff ffff ffff ffff ffff     ................
30010298:	ffff ffff ffff ffff ffff ffff ffff ffff     ................
300102a8:	ffff ffff ffff ffff ffff ffff ffff ffff     ................
300102b8:	ffff ffff ffff ffff ffff ffff ffff ffff     ................
300102c8:	ffff ffff ffff ffff ffff ffff ffff ffff     ................
300102d8:	ffff ffff ffff ffff ffff ffff ffff ffff     ................
300102e8:	ffff ffff ffff ffff ffff ffff ffff ffff     ................
300102f8:	ffff ffff ffff ffff ffff ffff ffff ffff     ................
30010308:	ffff ffff ffff ffff ffff ffff ffff ffff     ................
30010318:	ffff ffff ffff ffff ffff ffff ffff ffff     ................
30010328:	ffff ffff ffff ffff ffff ffff ffff ffff     ................
30010338:	ffff ffff ffff ffff ffff ffff ffff ffff     ................
30010348:	ffff ffff ffff ffff ffff ffff ffff ffff     ................
30010358:	ffff ffff ffff ffff ffff ffff ffff ffff     ................
30010368:	ffff ffff ffff ffff ffff ffff ffff ffff     ................
30010378:	ffff ffff ffff ffff ffff ffff ffff ffff     ................
30010388:	ffff ffff ffff ffff ffff ffff ffff ffff     ................
30010398:	ffff ffff ffff ffff ffff ffff ffff ffff     ................
300103a8:	ffff ffff ffff ffff ffff ffff ffff ffff     ................
300103b8:	ffff ffff ffff ffff ffff ffff ffff ffff     ................
300103c8:	ffff ffff ffff ffff ffff ffff ffff ffff     ................
300103d8:	ffff ffff ffff ffff ffff ffff ffff ffff     ................
300103e8:	ffff ffff ffff ffff ffff ffff ffff ffff     ................
300103f8:	ffff ffff ffff ffff ffff ffff ffff ffff     ................
30010408:	ffff ffff ffff ffff ffff ffff ffff ffff     ................
30010418:	ffff ffff ffff ffff ffff ffff ffff ffff     ................
30010428:	ffff ffff ffff ffff ffff ffff ffff ffff     ................
30010438:	ffff ffff ffff ffff ffff ffff ffff ffff     ................
30010448:	ffff ffff ffff ffff ffff ffff ffff ffff     ................
30010458:	ffff ffff ffff ffff ffff ffff ffff ffff     ................
30010468:	ffff ffff ffff ffff ffff ffff ffff ffff     ................
30010478:	ffff ffff ffff ffff ffff ffff ffff ffff     ................
30010488:	ffff ffff ffff ffff ffff ffff ffff ffff     ................
30010498:	ffff ffff ffff ffff ffff ffff ffff ffff     ................
300104a8:	ffff ffff ffff ffff ffff ffff ffff ffff     ................
300104b8:	ffff ffff ffff ffff ffff ffff ffff ffff     ................
300104c8:	ffff ffff ffff ffff ffff ffff ffff ffff     ................
300104d8:	ffff ffff ffff ffff ffff ffff ffff ffff     ................
300104e8:	ffff ffff ffff ffff ffff ffff ffff ffff     ................
300104f8:	ffff ffff ffff ffff ffff ffff ffff ffff     ................
30010508:	ffff ffff ffff ffff ffff ffff ffff ffff     ................
30010518:	ffff ffff ffff ffff ffff ffff ffff ffff     ................
30010528:	ffff ffff ffff ffff ffff ffff ffff ffff     ................
30010538:	ffff ffff ffff ffff ffff ffff ffff ffff     ................
30010548:	ffff ffff ffff ffff ffff ffff ffff ffff     ................
30010558:	ffff ffff ffff ffff ffff ffff ffff ffff     ................
30010568:	ffff ffff ffff ffff ffff ffff ffff ffff     ................
30010578:	ffff ffff ffff ffff ffff ffff ffff ffff     ................
30010588:	ffff ffff ffff ffff ffff ffff ffff ffff     ................
30010598:	ffff ffff ffff ffff ffff ffff ffff ffff     ................
300105a8:	ffff ffff ffff ffff ffff ffff ffff ffff     ................
300105b8:	ffff ffff ffff ffff ffff ffff ffff ffff     ................
300105c8:	ffff ffff ffff ffff ffff ffff ffff ffff     ................
300105d8:	ffff ffff ffff ffff ffff ffff ffff ffff     ................
300105e8:	ffff ffff ffff ffff ffff ffff ffff ffff     ................
300105f8:	ffff ffff ffff ffff ffff ffff ffff ffff     ................
30010608:	ffff ffff ffff ffff ffff ffff ffff ffff     ................
30010618:	ffff ffff ffff ffff ffff ffff ffff ffff     ................
30010628:	ffff ffff ffff ffff ffff ffff ffff ffff     ................
30010638:	ffff ffff ffff ffff ffff ffff ffff ffff     ................
30010648:	ffff ffff ffff ffff ffff ffff ffff ffff     ................
30010658:	ffff ffff ffff ffff ffff ffff ffff ffff     ................
30010668:	ffff ffff ffff ffff ffff ffff ffff ffff     ................
30010678:	ffff ffff ffff ffff ffff ffff ffff ffff     ................
30010688:	ffff ffff ffff ffff ffff ffff ffff ffff     ................
30010698:	ffff ffff ffff ffff ffff ffff ffff ffff     ................
300106a8:	ffff ffff ffff ffff ffff ffff ffff ffff     ................
300106b8:	ffff ffff ffff ffff ffff ffff ffff ffff     ................
300106c8:	ffff ffff ffff ffff ffff ffff ffff ffff     ................
300106d8:	ffff ffff ffff ffff ffff ffff ffff ffff     ................
300106e8:	ffff ffff ffff ffff ffff ffff ffff ffff     ................
300106f8:	ffff ffff ffff ffff ffff ffff ffff ffff     ................
30010708:	ffff ffff ffff ffff ffff ffff ffff ffff     ................
30010718:	ffff ffff ffff ffff ffff ffff ffff ffff     ................
30010728:	ffff ffff ffff ffff ffff ffff ffff ffff     ................
30010738:	ffff ffff ffff ffff ffff ffff ffff ffff     ................
30010748:	ffff ffff ffff ffff ffff ffff ffff ffff     ................
30010758:	ffff ffff ffff ffff ffff ffff ffff ffff     ................
30010768:	ffff ffff ffff ffff ffff ffff ffff ffff     ................
30010778:	ffff ffff ffff ffff ffff ffff ffff ffff     ................
30010788:	ffff ffff ffff ffff ffff ffff ffff ffff     ................
30010798:	ffff ffff ffff ffff ffff ffff ffff ffff     ................
300107a8:	ffff ffff ffff ffff ffff ffff ffff ffff     ................
300107b8:	ffff ffff ffff ffff ffff ffff ffff ffff     ................
300107c8:	ffff ffff ffff ffff ffff ffff ffff ffff     ................
300107d8:	ffff ffff ffff ffff ffff ffff ffff ffff     ................
300107e8:	ffff ffff ffff ffff ffff ffff ffff ffff     ................
300107f8:	ffff ffff ffff ffff ffff ffff ffff ffff     ................
30010808:	ffff ffff ffff ffff ffff ffff ffff ffff     ................
30010818:	ffff ffff ffff ffff ffff ffff ffff ffff     ................
30010828:	ffff ffff ffff ffff ffff ffff ffff ffff     ................
30010838:	ffff ffff ffff ffff ffff ffff ffff ffff     ................
30010848:	ffff ffff ffff ffff ffff ffff ffff ffff     ................
30010858:	ffff ffff ffff ffff ffff ffff ffff ffff     ................
30010868:	ffff ffff ffff ffff ffff ffff ffff ffff     ................
30010878:	ffff ffff ffff ffff ffff ffff ffff ffff     ................
30010888:	ffff ffff ffff ffff ffff ffff ffff ffff     ................
30010898:	ffff ffff ffff ffff ffff ffff ffff ffff     ................
300108a8:	ffff ffff ffff ffff ffff ffff ffff ffff     ................
300108b8:	ffff ffff ffff ffff ffff ffff ffff ffff     ................
300108c8:	ffff ffff ffff ffff ffff ffff ffff ffff     ................
300108d8:	ffff ffff ffff ffff ffff ffff ffff ffff     ................
300108e8:	ffff ffff ffff ffff ffff ffff ffff ffff     ................
300108f8:	ffff ffff ffff ffff ffff ffff ffff ffff     ................
30010908:	ffff ffff ffff ffff ffff ffff ffff ffff     ................
30010918:	ffff ffff ffff ffff ffff ffff ffff ffff     ................
30010928:	ffff ffff ffff ffff ffff ffff ffff ffff     ................
30010938:	ffff ffff ffff ffff ffff ffff ffff ffff     ................
30010948:	ffff ffff ffff ffff ffff ffff ffff ffff     ................
30010958:	ffff ffff ffff ffff ffff ffff ffff ffff     ................
30010968:	ffff ffff ffff ffff ffff ffff ffff ffff     ................
30010978:	ffff ffff ffff ffff ffff ffff ffff ffff     ................
30010988:	ffff ffff ffff ffff ffff ffff ffff ffff     ................
30010998:	ffff ffff ffff ffff ffff ffff ffff ffff     ................
300109a8:	ffff ffff ffff ffff ffff ffff ffff ffff     ................
300109b8:	ffff ffff ffff ffff ffff ffff ffff ffff     ................
300109c8:	ffff ffff ffff ffff ffff ffff ffff ffff     ................
300109d8:	ffff ffff ffff ffff ffff ffff ffff ffff     ................
300109e8:	ffff ffff ffff ffff ffff ffff ffff ffff     ................
300109f8:	ffff ffff ffff ffff ffff ffff ffff ffff     ................
30010a08:	ffff ffff ffff ffff ffff ffff ffff ffff     ................
30010a18:	ffff ffff ffff ffff ffff ffff ffff ffff     ................
30010a28:	ffff ffff ffff ffff ffff ffff ffff ffff     ................
30010a38:	ffff ffff ffff ffff ffff ffff ffff ffff     ................
30010a48:	ffff ffff ffff ffff ffff ffff ffff ffff     ................
30010a58:	ffff ffff ffff ffff ffff ffff ffff ffff     ................
30010a68:	ffff ffff ffff ffff ffff ffff ffff ffff     ................
30010a78:	ffff ffff ffff ffff ffff ffff ffff ffff     ................
30010a88:	ffff ffff ffff ffff ffff ffff ffff ffff     ................
30010a98:	ffff ffff ffff ffff ffff ffff ffff ffff     ................
30010aa8:	ffff ffff ffff ffff ffff ffff ffff ffff     ................
30010ab8:	ffff ffff ffff ffff ffff ffff ffff ffff     ................
30010ac8:	ffff ffff ffff ffff ffff ffff ffff ffff     ................
30010ad8:	ffff ffff ffff ffff ffff ffff ffff ffff     ................
30010ae8:	ffff ffff ffff ffff ffff ffff ffff ffff     ................
30010af8:	ffff ffff ffff ffff ffff ffff ffff ffff     ................
30010b08:	ffff ffff ffff ffff ffff ffff ffff ffff     ................
30010b18:	ffff ffff ffff ffff ffff ffff ffff ffff     ................
30010b28:	ffff ffff ffff ffff ffff ffff ffff ffff     ................
30010b38:	ffff ffff ffff ffff ffff ffff ffff ffff     ................
30010b48:	ffff ffff ffff ffff ffff ffff ffff ffff     ................
30010b58:	ffff ffff ffff ffff ffff ffff ffff ffff     ................
30010b68:	ffff ffff ffff ffff ffff ffff ffff ffff     ................
30010b78:	ffff ffff ffff ffff ffff ffff ffff ffff     ................
30010b88:	ffff ffff ffff ffff ffff ffff ffff ffff     ................
30010b98:	ffff ffff ffff ffff ffff ffff ffff ffff     ................
30010ba8:	ffff ffff ffff ffff ffff ffff ffff ffff     ................
30010bb8:	ffff ffff ffff ffff ffff ffff ffff ffff     ................
30010bc8:	ffff ffff ffff ffff ffff ffff ffff ffff     ................
30010bd8:	ffff ffff ffff ffff ffff ffff ffff ffff     ................
30010be8:	ffff ffff ffff ffff ffff ffff ffff ffff     ................
30010bf8:	ffff ffff ffff ffff ffff ffff ffff ffff     ................
30010c08:	ffff ffff ffff ffff ffff ffff ffff ffff     ................
30010c18:	ffff ffff ffff ffff ffff ffff ffff ffff     ................
30010c28:	ffff ffff ffff ffff ffff ffff ffff ffff     ................
30010c38:	ffff ffff ffff ffff ffff ffff ffff ffff     ................
30010c48:	ffff ffff ffff ffff ffff ffff ffff ffff     ................
30010c58:	ffff ffff ffff ffff ffff ffff ffff ffff     ................
30010c68:	ffff ffff ffff ffff ffff ffff ffff ffff     ................
30010c78:	ffff ffff ffff ffff ffff ffff ffff ffff     ................
30010c88:	ffff ffff ffff ffff ffff ffff ffff ffff     ................
30010c98:	ffff ffff ffff ffff ffff ffff ffff ffff     ................
30010ca8:	ffff ffff ffff ffff ffff ffff ffff ffff     ................
30010cb8:	ffff ffff ffff ffff ffff ffff ffff ffff     ................
30010cc8:	ffff ffff ffff ffff ffff ffff ffff ffff     ................
30010cd8:	ffff ffff ffff ffff ffff ffff ffff ffff     ................
30010ce8:	ffff ffff ffff ffff ffff ffff ffff ffff     ................
30010cf8:	ffff ffff ffff ffff ffff ffff ffff ffff     ................
30010d08:	ffff ffff ffff ffff ffff ffff ffff ffff     ................
30010d18:	ffff ffff ffff ffff ffff ffff ffff ffff     ................
30010d28:	ffff ffff ffff ffff ffff ffff ffff ffff     ................
30010d38:	ffff ffff ffff ffff ffff ffff ffff ffff     ................
30010d48:	ffff ffff ffff ffff ffff ffff ffff ffff     ................
30010d58:	ffff ffff ffff ffff ffff ffff ffff ffff     ................
30010d68:	ffff ffff ffff ffff ffff ffff ffff ffff     ................
30010d78:	ffff ffff ffff ffff ffff ffff ffff ffff     ................
30010d88:	ffff ffff ffff ffff ffff ffff ffff ffff     ................
30010d98:	ffff ffff ffff ffff ffff ffff ffff ffff     ................
30010da8:	ffff ffff ffff ffff ffff ffff ffff ffff     ................
30010db8:	ffff ffff ffff ffff ffff ffff ffff ffff     ................
30010dc8:	ffff ffff ffff ffff ffff ffff ffff ffff     ................
30010dd8:	ffff ffff ffff ffff ffff ffff ffff ffff     ................
30010de8:	ffff ffff ffff ffff ffff ffff ffff ffff     ................
30010df8:	ffff ffff ffff ffff ffff ffff ffff ffff     ................
30010e08:	ffff ffff ffff ffff ffff ffff ffff ffff     ................
30010e18:	ffff ffff ffff ffff ffff ffff ffff ffff     ................
30010e28:	ffff ffff ffff ffff ffff ffff ffff ffff     ................
30010e38:	ffff ffff ffff ffff ffff ffff ffff ffff     ................
30010e48:	ffff ffff ffff ffff ffff ffff ffff ffff     ................
30010e58:	ffff ffff ffff ffff ffff ffff ffff ffff     ................
30010e68:	ffff ffff ffff ffff ffff ffff ffff ffff     ................
30010e78:	ffff ffff ffff ffff ffff ffff ffff ffff     ................
30010e88:	ffff ffff ffff ffff ffff ffff ffff ffff     ................
30010e98:	ffff ffff ffff ffff ffff ffff ffff ffff     ................
30010ea8:	ffff ffff ffff ffff ffff ffff ffff ffff     ................
30010eb8:	ffff ffff ffff ffff ffff ffff ffff ffff     ................
30010ec8:	ffff ffff ffff ffff ffff ffff ffff ffff     ................
30010ed8:	ffff ffff ffff ffff ffff ffff ffff ffff     ................
30010ee8:	ffff ffff ffff ffff ffff ffff ffff ffff     ................
30010ef8:	ffff ffff ffff ffff ffff ffff ffff ffff     ................
30010f08:	ffff ffff ffff ffff ffff ffff ffff ffff     ................
30010f18:	ffff ffff ffff ffff ffff ffff ffff ffff     ................
30010f28:	ffff ffff ffff ffff ffff ffff ffff ffff     ................
30010f38:	ffff ffff ffff ffff ffff ffff ffff ffff     ................
30010f48:	ffff ffff ffff ffff ffff ffff ffff ffff     ................
30010f58:	ffff ffff ffff ffff ffff ffff ffff ffff     ................
30010f68:	ffff ffff ffff ffff ffff ffff ffff ffff     ................
30010f78:	ffff ffff ffff ffff ffff ffff ffff ffff     ................
30010f88:	ffff ffff ffff ffff ffff ffff ffff ffff     ................
30010f98:	ffff ffff ffff ffff ffff ffff ffff ffff     ................
30010fa8:	ffff ffff ffff ffff ffff ffff ffff ffff     ................
30010fb8:	ffff ffff ffff ffff ffff ffff ffff ffff     ................
30010fc8:	ffff ffff ffff ffff ffff ffff ffff ffff     ................
30010fd8:	ffff ffff ffff ffff ffff ffff ffff ffff     ................
30010fe8:	ffff ffff ffff ffff ffff ffff ffff ffff     ................
30010ff8:	ffff ffff ffff ffff ffff ffff ffff ffff     ................
30011008:	ffff ffff ffff ffff ffff ffff ffff ffff     ................
30011018:	ffff ffff ffff ffff ffff ffff ffff ffff     ................
30011028:	ffff ffff ffff ffff ffff ffff ffff ffff     ................
30011038:	ffff ffff ffff ffff ffff ffff ffff ffff     ................
30011048:	ffff ffff ffff ffff ffff ffff ffff ffff     ................
30011058:	ffff ffff ffff ffff ffff ffff ffff ffff     ................
30011068:	ffff ffff ffff ffff ffff ffff ffff ffff     ................
30011078:	ffff ffff ffff ffff ffff ffff ffff ffff     ................
30011088:	ffff ffff ffff ffff ffff ffff ffff ffff     ................
30011098:	ffff ffff ffff ffff ffff ffff ffff ffff     ................
300110a8:	ffff ffff ffff ffff ffff ffff ffff ffff     ................
300110b8:	ffff ffff ffff ffff ffff ffff ffff ffff     ................
300110c8:	ffff ffff ffff ffff ffff ffff ffff ffff     ................
300110d8:	ffff ffff ffff ffff ffff ffff ffff ffff     ................
300110e8:	ffff ffff ffff ffff ffff ffff ffff ffff     ................
300110f8:	ffff ffff ffff ffff ffff ffff ffff ffff     ................
30011108:	ffff ffff ffff ffff ffff ffff ffff ffff     ................
30011118:	ffff ffff ffff ffff ffff ffff ffff ffff     ................
30011128:	ffff ffff ffff ffff ffff ffff ffff ffff     ................
30011138:	ffff ffff ffff ffff ffff ffff ffff ffff     ................
30011148:	ffff ffff ffff ffff ffff ffff ffff ffff     ................
30011158:	ffff ffff ffff ffff ffff ffff ffff ffff     ................
30011168:	ffff ffff ffff ffff ffff ffff ffff ffff     ................
30011178:	ffff ffff ffff ffff ffff ffff ffff ffff     ................
30011188:	ffff ffff ffff ffff ffff ffff ffff ffff     ................
30011198:	ffff ffff ffff ffff ffff ffff ffff ffff     ................
300111a8:	ffff ffff ffff ffff ffff ffff ffff ffff     ................
300111b8:	ffff ffff ffff ffff ffff ffff ffff ffff     ................
300111c8:	ffff ffff ffff ffff ffff ffff ffff ffff     ................
300111d8:	ffff ffff ffff ffff ffff ffff ffff ffff     ................
300111e8:	ffff ffff ffff ffff ffff ffff ffff ffff     ................
300111f8:	ffff ffff ffff ffff ffff ffff ffff ffff     ................
30011208:	ffff ffff ffff ffff ffff ffff ffff ffff     ................
30011218:	ffff ffff ffff ffff ffff ffff ffff ffff     ................
30011228:	ffff ffff ffff ffff ffff ffff ffff ffff     ................
30011238:	ffff ffff ffff ffff ffff ffff ffff ffff     ................
30011248:	ffff ffff ffff ffff ffff ffff ffff ffff     ................
30011258:	ffff ffff ffff ffff ffff ffff ffff ffff     ................
30011268:	ffff ffff ffff ffff ffff ffff ffff ffff     ................
30011278:	ffff ffff ffff ffff ffff ffff ffff ffff     ................
30011288:	ffff ffff ffff ffff ffff ffff ffff ffff     ................
30011298:	ffff ffff ffff ffff ffff ffff ffff ffff     ................
300112a8:	ffff ffff ffff ffff ffff ffff ffff ffff     ................
300112b8:	ffff ffff ffff ffff ffff ffff ffff ffff     ................
300112c8:	ffff ffff ffff ffff ffff ffff ffff ffff     ................
300112d8:	ffff ffff ffff ffff ffff ffff ffff ffff     ................
300112e8:	ffff ffff ffff ffff ffff ffff ffff ffff     ................
300112f8:	ffff ffff ffff ffff ffff ffff ffff ffff     ................
30011308:	ffff ffff ffff ffff ffff ffff ffff ffff     ................
30011318:	ffff ffff ffff ffff ffff ffff ffff ffff     ................
30011328:	ffff ffff ffff ffff ffff ffff ffff ffff     ................
30011338:	ffff ffff ffff ffff ffff ffff ffff ffff     ................
30011348:	ffff ffff ffff ffff ffff ffff ffff ffff     ................
30011358:	ffff ffff ffff ffff ffff ffff ffff ffff     ................
30011368:	ffff ffff ffff ffff ffff ffff ffff ffff     ................
30011378:	ffff ffff ffff ffff ffff ffff ffff ffff     ................
30011388:	ffff ffff ffff ffff ffff ffff ffff ffff     ................
30011398:	ffff ffff ffff ffff ffff ffff ffff ffff     ................
300113a8:	ffff ffff ffff ffff ffff ffff ffff ffff     ................
300113b8:	ffff ffff ffff ffff ffff ffff ffff ffff     ................
300113c8:	ffff ffff ffff ffff ffff ffff ffff ffff     ................
300113d8:	ffff ffff ffff ffff ffff ffff ffff ffff     ................
300113e8:	ffff ffff ffff ffff ffff ffff ffff ffff     ................
300113f8:	ffff ffff ffff ffff ffff ffff ffff ffff     ................
30011408:	ffff ffff ffff ffff ffff ffff ffff ffff     ................
30011418:	ffff ffff ffff ffff ffff ffff ffff ffff     ................
30011428:	ffff ffff ffff ffff ffff ffff ffff ffff     ................
30011438:	ffff ffff ffff ffff ffff ffff ffff ffff     ................
30011448:	ffff ffff ffff ffff ffff ffff ffff ffff     ................
30011458:	ffff ffff ffff ffff ffff ffff ffff ffff     ................
30011468:	ffff ffff ffff ffff ffff ffff ffff ffff     ................
30011478:	ffff ffff ffff ffff ffff ffff ffff ffff     ................
30011488:	ffff ffff ffff ffff ffff ffff ffff ffff     ................
30011498:	ffff ffff ffff ffff ffff ffff ffff ffff     ................
300114a8:	ffff ffff ffff ffff ffff ffff ffff ffff     ................
300114b8:	ffff ffff ffff ffff ffff ffff ffff ffff     ................
300114c8:	ffff ffff ffff ffff ffff ffff ffff ffff     ................
300114d8:	ffff ffff ffff ffff ffff ffff ffff ffff     ................
300114e8:	ffff ffff ffff ffff ffff ffff ffff ffff     ................
300114f8:	ffff ffff ffff ffff ffff ffff ffff ffff     ................
30011508:	ffff ffff ffff ffff ffff ffff ffff ffff     ................
30011518:	ffff ffff ffff ffff ffff ffff ffff ffff     ................
30011528:	ffff ffff ffff ffff ffff ffff ffff ffff     ................
30011538:	ffff ffff ffff ffff ffff ffff ffff ffff     ................
30011548:	ffff ffff ffff ffff ffff ffff ffff ffff     ................
30011558:	ffff ffff ffff ffff ffff ffff ffff ffff     ................
30011568:	ffff ffff ffff ffff ffff ffff ffff ffff     ................
30011578:	ffff ffff ffff ffff ffff ffff ffff ffff     ................
30011588:	ffff ffff ffff ffff ffff ffff ffff ffff     ................
30011598:	ffff ffff ffff ffff ffff ffff ffff ffff     ................
300115a8:	ffff ffff ffff ffff ffff ffff ffff ffff     ................
300115b8:	ffff ffff ffff ffff ffff ffff ffff ffff     ................
300115c8:	ffff ffff ffff ffff ffff ffff ffff ffff     ................
300115d8:	ffff ffff ffff ffff ffff ffff ffff ffff     ................
300115e8:	ffff ffff ffff ffff ffff ffff ffff ffff     ................
300115f8:	ffff ffff ffff ffff ffff ffff ffff ffff     ................
30011608:	ffff ffff ffff ffff ffff ffff ffff ffff     ................
30011618:	ffff ffff ffff ffff ffff ffff ffff ffff     ................
30011628:	ffff ffff ffff ffff ffff ffff ffff ffff     ................
30011638:	ffff ffff ffff ffff ffff ffff ffff ffff     ................
30011648:	ffff ffff ffff ffff ffff ffff ffff ffff     ................
30011658:	ffff ffff ffff ffff ffff ffff ffff ffff     ................
30011668:	ffff ffff ffff ffff ffff ffff ffff ffff     ................
30011678:	ffff ffff ffff ffff ffff ffff ffff ffff     ................
30011688:	ffff ffff ffff ffff ffff ffff ffff ffff     ................
30011698:	ffff ffff ffff ffff ffff ffff ffff ffff     ................
300116a8:	ffff ffff ffff ffff ffff ffff ffff ffff     ................
300116b8:	ffff ffff ffff ffff ffff ffff ffff ffff     ................
300116c8:	ffff ffff ffff ffff ffff ffff ffff ffff     ................
300116d8:	ffff ffff ffff ffff ffff ffff ffff ffff     ................
300116e8:	ffff ffff ffff ffff ffff ffff ffff ffff     ................
300116f8:	ffff ffff ffff ffff ffff ffff ffff ffff     ................
30011708:	ffff ffff ffff ffff ffff ffff ffff ffff     ................
30011718:	ffff ffff ffff ffff ffff ffff ffff ffff     ................
30011728:	ffff ffff ffff ffff ffff ffff ffff ffff     ................
30011738:	ffff ffff ffff ffff ffff ffff ffff ffff     ................
30011748:	ffff ffff ffff ffff ffff ffff ffff ffff     ................
30011758:	ffff ffff ffff ffff ffff ffff ffff ffff     ................
30011768:	ffff ffff ffff ffff ffff ffff ffff ffff     ................
30011778:	ffff ffff ffff ffff ffff ffff ffff ffff     ................
30011788:	ffff ffff ffff ffff ffff ffff ffff ffff     ................
30011798:	ffff ffff ffff ffff ffff ffff ffff ffff     ................
300117a8:	ffff ffff ffff ffff ffff ffff ffff ffff     ................
300117b8:	ffff ffff ffff ffff ffff ffff ffff ffff     ................
300117c8:	ffff ffff ffff ffff ffff ffff ffff ffff     ................
300117d8:	ffff ffff ffff ffff ffff ffff ffff ffff     ................
300117e8:	ffff ffff ffff ffff ffff ffff ffff ffff     ................
300117f8:	ffff ffff ffff ffff ffff ffff ffff ffff     ................
30011808:	ffff ffff ffff ffff ffff ffff ffff ffff     ................
30011818:	ffff ffff ffff ffff ffff ffff ffff ffff     ................
30011828:	ffff ffff ffff ffff ffff ffff ffff ffff     ................
30011838:	ffff ffff ffff ffff ffff ffff ffff ffff     ................
30011848:	ffff ffff ffff ffff ffff ffff ffff ffff     ................
30011858:	ffff ffff ffff ffff ffff ffff ffff ffff     ................
30011868:	ffff ffff ffff ffff ffff ffff ffff ffff     ................
30011878:	ffff ffff ffff ffff ffff ffff ffff ffff     ................
30011888:	ffff ffff ffff ffff ffff ffff ffff ffff     ................
30011898:	ffff ffff ffff ffff ffff ffff ffff ffff     ................
300118a8:	ffff ffff ffff ffff ffff ffff ffff ffff     ................
300118b8:	ffff ffff ffff ffff ffff ffff ffff ffff     ................
300118c8:	ffff ffff ffff ffff ffff ffff ffff ffff     ................
300118d8:	ffff ffff ffff ffff ffff ffff ffff ffff     ................
300118e8:	ffff ffff ffff ffff ffff ffff ffff ffff     ................
300118f8:	ffff ffff ffff ffff ffff ffff ffff ffff     ................
30011908:	ffff ffff ffff ffff ffff ffff ffff ffff     ................
30011918:	ffff ffff ffff ffff ffff ffff ffff ffff     ................
30011928:	ffff ffff ffff ffff ffff ffff ffff ffff     ................
30011938:	ffff ffff ffff ffff ffff ffff ffff ffff     ................
30011948:	ffff ffff ffff ffff ffff ffff ffff ffff     ................
30011958:	ffff ffff ffff ffff ffff ffff ffff ffff     ................
30011968:	ffff ffff ffff ffff ffff ffff ffff ffff     ................
30011978:	ffff ffff ffff ffff ffff ffff ffff ffff     ................
30011988:	ffff ffff ffff ffff ffff ffff ffff ffff     ................
30011998:	ffff ffff ffff ffff ffff ffff ffff ffff     ................
300119a8:	ffff ffff ffff ffff ffff ffff ffff ffff     ................
300119b8:	ffff ffff ffff ffff ffff ffff ffff ffff     ................
300119c8:	ffff ffff ffff ffff ffff ffff ffff ffff     ................
300119d8:	ffff ffff ffff ffff ffff ffff ffff ffff     ................
300119e8:	ffff ffff ffff ffff ffff ffff ffff ffff     ................
300119f8:	ffff ffff ffff ffff ffff ffff ffff ffff     ................
30011a08:	ffff ffff ffff ffff ffff ffff ffff ffff     ................
30011a18:	ffff ffff ffff ffff ffff ffff ffff ffff     ................
30011a28:	ffff ffff ffff ffff ffff ffff ffff ffff     ................
30011a38:	ffff ffff ffff ffff ffff ffff ffff ffff     ................
30011a48:	ffff ffff ffff ffff ffff ffff ffff ffff     ................
30011a58:	ffff ffff ffff ffff ffff ffff ffff ffff     ................
30011a68:	ffff ffff ffff ffff ffff ffff ffff ffff     ................
30011a78:	ffff ffff ffff ffff ffff ffff ffff ffff     ................
30011a88:	ffff ffff ffff ffff ffff ffff ffff ffff     ................
30011a98:	ffff ffff ffff ffff ffff ffff ffff ffff     ................
30011aa8:	ffff ffff ffff ffff ffff ffff ffff ffff     ................
30011ab8:	ffff ffff ffff ffff ffff ffff ffff ffff     ................
30011ac8:	ffff ffff ffff ffff ffff ffff ffff ffff     ................
30011ad8:	ffff ffff ffff ffff ffff ffff ffff ffff     ................
30011ae8:	ffff ffff ffff ffff ffff ffff ffff ffff     ................
30011af8:	ffff ffff ffff ffff ffff ffff ffff ffff     ................
30011b08:	ffff ffff ffff ffff ffff ffff ffff ffff     ................
30011b18:	ffff ffff ffff ffff ffff ffff ffff ffff     ................
30011b28:	ffff ffff ffff ffff ffff ffff ffff ffff     ................
30011b38:	ffff ffff ffff ffff ffff ffff ffff ffff     ................
30011b48:	ffff ffff ffff ffff ffff ffff ffff ffff     ................
30011b58:	ffff ffff ffff ffff ffff ffff ffff ffff     ................
30011b68:	ffff ffff ffff ffff ffff ffff ffff ffff     ................
30011b78:	ffff ffff ffff ffff ffff ffff 5453 3737     ............ST77
30011b88:	3533 4c20 4443 5420 5345 2154 000a 0000     35 LCD TEST!....
30011b98:	98e6 e7be baa4 bae7 e8a2 b289 a1e5 e5ab     ................
30011ba8:	8585 2e2e 0a2e 0000 98e6 e7be baa4 bbe7     ................
30011bb8:	e8bf b289 a1e5 e5ab 8585 2e2e 0a2e 0000     ................
30011bc8:	98e6 e7be baa4 93e8 e89d b289 a1e5 e5ab     ................
30011bd8:	8585 2e2e 0a2e 0000 98e6 e7be baa4 5359     ..............YS
30011be8:	5859 9be5 e5be 8f83 2e2e 0a2e 0000 0000     YX..............
30011bf8:	98e6 e7be baa4 4345 534f 9be5 e5be 8f83     ......ECOS......
30011c08:	2e2e 0a2e 0000 0000 5453 3737 3533 4c20     ........ST7735 L
30011c18:	4443 b5e6 e88b 95af aee5 e68c 9088 0a21     CD............!.
30011c28:	000a 0000 3130 3332 3534 3736 3938 4241     ....0123456789AB
30011c38:	4443 4645 0000 0000 3130 3332 3534 3736     CDEF....01234567
30011c48:	3938 6261 6463 6665 0000 0000 6e28 6c75     89abcdef....(nul
30011c58:	296c 0000 7067 6f69 2520 2064 6573 2074     l)..gpio %d set 
30011c68:	7361 6920 706e 7475 000a 0000 4552 5f47     as input....REG_
30011c78:	5047 4f49 455f 424e 203a 7830 7825 000a     GPIO_ENB: 0x%x..
30011c88:	7067 6f69 2520 2064 6573 2074 7361 6f20     gpio %d set as o
30011c98:	7475 7570 0a74 0000 7371 6970 735f 6174     utput...qspi_sta
30011ca8:	7574 3a73 2520 0a78 0000 0000 7371 6970     tus: %x.....qspi
30011cb8:	695f 746e 6663 3a67 2520 0a78 0000 0000     _intcfg: %x.....
30011cc8:	7371 6970 645f 6d75 203a 7825 000a 0000     qspi_dum: %x....
30011cd8:	7371 6970 635f 6b6c 6964 3a76 2520 0a78     qspi_clkdiv: %x.
30011ce8:	0000 0000 3249 3a43 7320 6174 7472 7720     ....I2C: start w
30011cf8:	6972 6574 6e20 206f 6361 0a6b 0000 0000     rite no ack.....
30011d08:	3249 3a43 7720 6972 6574 6220 7479 2065     I2C: write byte 
30011d18:	6f6e 6120 6b63 000a 3249 3a43 7320 6174     no ack..I2C: sta
30011d28:	7472 7220 6165 2064 6f6e 6120 6b63 000a     rt read no ack..
30011d38:	3249 3a43 7220 6165 2064 7962 6574 6e20     I2C: read byte n
30011d48:	206f 6361 0a6b 0000 6661 6574 2072 7266     o ack...after fr
30011d58:	6d61 2065 6172 6574 6920 696e 0a74 0000     ame rate init...
30011d68:	6661 6574 2072 6f70 6577 2072 6573 7571     after power sequ
30011d78:	6e65 6563 6920 696e 0a74 0000 6661 6574     ence init...afte
30011d88:	2072 6167 6d6d 2061 6573 7571 6e65 6563     r gamma sequence
30011d98:	6920 696e 0a74 0000 4654 2054 6e69 7469      init...TFT init
30011da8:	6420 6e6f 0a65 0000                          done...
