
build/retrosoc_fw:	file format elf32-littleriscv

Disassembly of section .text:

30000000 <_start>:
30000000: 00000093     	li	ra, 0x0
30000004: 00000193     	li	gp, 0x0
30000008: 00000213     	li	tp, 0x0
3000000c: 00000293     	li	t0, 0x0
30000010: 00000313     	li	t1, 0x0
30000014: 00000393     	li	t2, 0x0
30000018: 00000413     	li	s0, 0x0
3000001c: 00000493     	li	s1, 0x0
30000020: 00000513     	li	a0, 0x0
30000024: 00000593     	li	a1, 0x0
30000028: 00000613     	li	a2, 0x0
3000002c: 00000693     	li	a3, 0x0
30000030: 00000713     	li	a4, 0x0
30000034: 00000793     	li	a5, 0x0
30000038: 00000813     	li	a6, 0x0
3000003c: 00000893     	li	a7, 0x0
30000040: 00000913     	li	s2, 0x0
30000044: 00000993     	li	s3, 0x0
30000048: 00000a13     	li	s4, 0x0
3000004c: 00000a93     	li	s5, 0x0
30000050: 00000b13     	li	s6, 0x0
30000054: 00000b93     	li	s7, 0x0
30000058: 00000c13     	li	s8, 0x0
3000005c: 00000c93     	li	s9, 0x0
30000060: 00000d13     	li	s10, 0x0
30000064: 00000d93     	li	s11, 0x0
30000068: 00000e13     	li	t3, 0x0
3000006c: 00000e93     	li	t4, 0x0
30000070: 00000f13     	li	t5, 0x0
30000074: 00000f93     	li	t6, 0x0
30000078: 00000513     	li	a0, 0x0

3000007c <setmemloop>:
3000007c: 00a52023     	sw	a0, 0x0(a0)
30000080: 00450513     	addi	a0, a0, 0x4
30000084: fe254ce3     	blt	a0, sp, 0x3000007c <setmemloop>
30000088: 00005517     	auipc	a0, 0x5
3000008c: c4c50513     	addi	a0, a0, -0x3b4
30000090: d4000597     	auipc	a1, 0xd4000
30000094: f7058593     	addi	a1, a1, -0x90
30000098: d4000617     	auipc	a2, 0xd4000
3000009c: f6c60613     	addi	a2, a2, -0x94
300000a0: 00c5dc63     	bge	a1, a2, 0x300000b8 <end_init_data>

300000a4 <loop_init_data>:
300000a4: 00052683     	lw	a3, 0x0(a0)
300000a8: 00d5a023     	sw	a3, 0x0(a1)
300000ac: 00450513     	addi	a0, a0, 0x4
300000b0: 00458593     	addi	a1, a1, 0x4
300000b4: fec5c8e3     	blt	a1, a2, 0x300000a4 <loop_init_data>

300000b8 <end_init_data>:
300000b8: d4000517     	auipc	a0, 0xd4000
300000bc: f4c50513     	addi	a0, a0, -0xb4
300000c0: d4000597     	auipc	a1, 0xd4000
300000c4: f4458593     	addi	a1, a1, -0xbc
300000c8: 00b55863     	bge	a0, a1, 0x300000d8 <end_init_bss>

300000cc <loop_init_bss>:
300000cc: 00052023     	sw	zero, 0x0(a0)
300000d0: 00450513     	addi	a0, a0, 0x4
300000d4: feb54ce3     	blt	a0, a1, 0x300000cc <loop_init_bss>

300000d8 <end_init_bss>:
300000d8: 69d000ef     	jal	0x30000f74 <main>

300000dc <loop>:
300000dc: 0000006f     	j	0x300000dc <loop>

300000e0 <flashio_worker_begin>:
300000e0: 020002b7     	lui	t0, 0x2000
300000e4: 12000313     	li	t1, 0x120
300000e8: 00629023     	sh	t1, 0x0(t0)
300000ec: 000281a3     	sb	zero, 0x3(t0)
300000f0: 02060863     	beqz	a2, 0x30000120 <flashio_worker_L1>
300000f4: 00800f13     	li	t5, 0x8
300000f8: 0ff67393     	zext.b	t2, a2

300000fc <flashio_worker_L4>:
300000fc: 0073de93     	srli	t4, t2, 0x7
30000100: 01d28023     	sb	t4, 0x0(t0)
30000104: 010eee93     	ori	t4, t4, 0x10
30000108: 01d28023     	sb	t4, 0x0(t0)
3000010c: 00139393     	slli	t2, t2, 0x1
30000110: 0ff3f393     	zext.b	t2, t2
30000114: ffff0f13     	addi	t5, t5, -0x1
30000118: fe0f12e3     	bnez	t5, 0x300000fc <flashio_worker_L4>
3000011c: 00628023     	sb	t1, 0x0(t0)

30000120 <flashio_worker_L1>:
30000120: 04058663     	beqz	a1, 0x3000016c <flashio_worker_L3>
30000124: 00800f13     	li	t5, 0x8
30000128: 00054383     	lbu	t2, 0x0(a0)

3000012c <flashio_worker_L2>:
3000012c: 0073de93     	srli	t4, t2, 0x7
30000130: 01d28023     	sb	t4, 0x0(t0)
30000134: 010eee93     	ori	t4, t4, 0x10
30000138: 01d28023     	sb	t4, 0x0(t0)
3000013c: 0002ce83     	lbu	t4, 0x0(t0)
30000140: 002efe93     	andi	t4, t4, 0x2
30000144: 001ede93     	srli	t4, t4, 0x1
30000148: 00139393     	slli	t2, t2, 0x1
3000014c: 01d3e3b3     	or	t2, t2, t4
30000150: 0ff3f393     	zext.b	t2, t2
30000154: ffff0f13     	addi	t5, t5, -0x1
30000158: fc0f1ae3     	bnez	t5, 0x3000012c <flashio_worker_L2>
3000015c: 00750023     	sb	t2, 0x0(a0)
30000160: 00150513     	addi	a0, a0, 0x1
30000164: fff58593     	addi	a1, a1, -0x1
30000168: fb9ff06f     	j	0x30000120 <flashio_worker_L1>

3000016c <flashio_worker_L3>:
3000016c: 08000313     	li	t1, 0x80
30000170: 006281a3     	sb	t1, 0x3(t0)
30000174: 00008067     	ret

30000178 <set_random_seed>:
30000178: 040005b7     	lui	a1, 0x4000
3000017c: 00a5a023     	sw	a0, 0x0(a1)
30000180: 00008067     	ret

30000184 <gen_rand>:
30000184: 040005b7     	lui	a1, 0x4000
30000188: 0005a503     	lw	a0, 0x0(a1)
3000018c: 01f55613     	srli	a2, a0, 0x1f
30000190: 01555693     	srli	a3, a0, 0x15
30000194: 00155713     	srli	a4, a0, 0x1
30000198: 00c6c633     	xor	a2, a3, a2
3000019c: 00a74533     	xor	a0, a4, a0
300001a0: 00a64533     	xor	a0, a2, a0
300001a4: 01f51513     	slli	a0, a0, 0x1f
300001a8: 00e56533     	or	a0, a0, a4
300001ac: 00a5a023     	sw	a0, 0x0(a1)
300001b0: 00008067     	ret

300001b4 <write_stdout>:
300001b4: 030005b7     	lui	a1, 0x3000
300001b8: 00a5aa23     	sw	a0, 0x14(a1)
300001bc: 00008067     	ret

300001c0 <read_stdin>:
300001c0: 030005b7     	lui	a1, 0x3000
300001c4: fff00513     	li	a0, -0x1
300001c8: 0145a603     	lw	a2, 0x14(a1)
300001cc: fea60ee3     	beq	a2, a0, 0x300001c8 <read_stdin+0x8>
300001d0: 0ff67513     	zext.b	a0, a2
300001d4: 00c5aa23     	sw	a2, 0x14(a1)
300001d8: 00008067     	ret

300001dc <write_str>:
300001dc: 00054583     	lbu	a1, 0x0(a0)
300001e0: 00058e63     	beqz	a1, 0x300001fc <write_str+0x20>
300001e4: 00150513     	addi	a0, a0, 0x1
300001e8: 03000637     	lui	a2, 0x3000
300001ec: 00b62a23     	sw	a1, 0x14(a2)
300001f0: 00054583     	lbu	a1, 0x0(a0)
300001f4: 00150513     	addi	a0, a0, 0x1
300001f8: fe059ae3     	bnez	a1, 0x300001ec <write_str+0x10>
300001fc: 00008067     	ret

30000200 <read_decimal_number>:
30000200: 030005b7     	lui	a1, 0x3000
30000204: fff00513     	li	a0, -0x1
30000208: ff600693     	li	a3, -0xa
3000020c: 0145a603     	lw	a2, 0x14(a1)
30000210: fea60ee3     	beq	a2, a0, 0x3000020c <read_decimal_number+0xc>
30000214: 0ff67713     	zext.b	a4, a2
30000218: fc670713     	addi	a4, a4, -0x3a
3000021c: 00c5aa23     	sw	a2, 0x14(a1)
30000220: fed766e3     	bltu	a4, a3, 0x3000020c <read_decimal_number+0xc>
30000224: 00000513     	li	a0, 0x0
30000228: fff00693     	li	a3, -0x1
3000022c: 00a00713     	li	a4, 0xa
30000230: 0145a783     	lw	a5, 0x14(a1)
30000234: fed78ee3     	beq	a5, a3, 0x30000230 <read_decimal_number+0x30>
30000238: 0ff67613     	zext.b	a2, a2
3000023c: 00151813     	slli	a6, a0, 0x1
30000240: 00351513     	slli	a0, a0, 0x3
30000244: 01050533     	add	a0, a0, a6
30000248: 0ff7f813     	zext.b	a6, a5
3000024c: fd080813     	addi	a6, a6, -0x30
30000250: 00c50533     	add	a0, a0, a2
30000254: fd050513     	addi	a0, a0, -0x30
30000258: 00f5aa23     	sw	a5, 0x14(a1)
3000025c: 00078613     	mv	a2, a5
30000260: fce868e3     	bltu	a6, a4, 0x30000230 <read_decimal_number+0x30>
30000264: 00008067     	ret

30000268 <write_decimal_number>:
30000268: 00000713     	li	a4, 0x0
3000026c: 00100613     	li	a2, 0x1
30000270: 00060693     	mv	a3, a2
30000274: 00161613     	slli	a2, a2, 0x1
30000278: 00369793     	slli	a5, a3, 0x3
3000027c: 00c78633     	add	a2, a5, a2
30000280: 00170713     	addi	a4, a4, 0x1
30000284: fec576e3     	bgeu	a0, a2, 0x30000270 <write_decimal_number+0x8>
30000288: 03000637     	lui	a2, 0x3000
3000028c: 00b75c63     	bge	a4, a1, 0x300002a4 <write_decimal_number+0x3c>
30000290: 40e585b3     	sub	a1, a1, a4
30000294: 02000713     	li	a4, 0x20
30000298: fff58593     	addi	a1, a1, -0x1
3000029c: 00e62a23     	sw	a4, 0x14(a2)
300002a0: fe059ce3     	bnez	a1, 0x30000298 <write_decimal_number+0x30>
300002a4: 02068c63     	beqz	a3, 0x300002dc <write_decimal_number+0x74>
300002a8: ccccd5b7     	lui	a1, 0xccccd
300002ac: ccd58593     	addi	a1, a1, -0x333
300002b0: 00900713     	li	a4, 0x9
300002b4: 00068793     	mv	a5, a3
300002b8: 02d556b3     	divu	a3, a0, a3
300002bc: 02f68833     	mul	a6, a3, a5
300002c0: 41050533     	sub	a0, a0, a6
300002c4: 02b7b833     	mulhu	a6, a5, a1
300002c8: 03068693     	addi	a3, a3, 0x30
300002cc: 0ff6f693     	zext.b	a3, a3
300002d0: 00d62a23     	sw	a3, 0x14(a2)
300002d4: 00385693     	srli	a3, a6, 0x3
300002d8: fcf76ee3     	bltu	a4, a5, 0x300002b4 <write_decimal_number+0x4c>
300002dc: 00008067     	ret

300002e0 <get_block>:
300002e0: 00055683     	lhu	a3, 0x0(a0)
300002e4: 02d5f463     	bgeu	a1, a3, 0x3000030c <get_block+0x2c>
300002e8: 00255683     	lhu	a3, 0x2(a0)
300002ec: 02d67063     	bgeu	a2, a3, 0x3000030c <get_block+0x2c>
300002f0: 00852503     	lw	a0, 0x8(a0)
300002f4: 02b685b3     	mul	a1, a3, a1
300002f8: 00259593     	slli	a1, a1, 0x2
300002fc: 00261613     	slli	a2, a2, 0x2
30000300: 00c50533     	add	a0, a0, a2
30000304: 00b50533     	add	a0, a0, a1
30000308: 00008067     	ret
3000030c: 00000513     	li	a0, 0x0
30000310: 00008067     	ret

30000314 <init_minefield>:
30000314: fd010113     	addi	sp, sp, -0x30
30000318: 02812623     	sw	s0, 0x2c(sp)
3000031c: 02912423     	sw	s1, 0x28(sp)
30000320: 03212223     	sw	s2, 0x24(sp)
30000324: 03312023     	sw	s3, 0x20(sp)
30000328: 01412e23     	sw	s4, 0x1c(sp)
3000032c: 01512c23     	sw	s5, 0x18(sp)
30000330: 01612a23     	sw	s6, 0x14(sp)
30000334: 01712823     	sw	s7, 0x10(sp)
30000338: 01812623     	sw	s8, 0xc(sp)
3000033c: 00055583     	lhu	a1, 0x0(a0)
30000340: 00255603     	lhu	a2, 0x2(a0)
30000344: 02c586b3     	mul	a3, a1, a2
30000348: 00052623     	sw	zero, 0xc(a0)
3000034c: 00050823     	sb	zero, 0x10(a0)
30000350: 02068663     	beqz	a3, 0x3000037c <init_minefield+0x68>
30000354: 00852703     	lw	a4, 0x8(a0)
30000358: 00370713     	addi	a4, a4, 0x3
3000035c: 00269793     	slli	a5, a3, 0x2
30000360: 00f707b3     	add	a5, a4, a5
30000364: fe070ea3     	sb	zero, -0x3(a4)
30000368: fe070f23     	sb	zero, -0x2(a4)
3000036c: fe070fa3     	sb	zero, -0x1(a4)
30000370: 00070023     	sb	zero, 0x0(a4)
30000374: 00470713     	addi	a4, a4, 0x4
30000378: fef716e3     	bne	a4, a5, 0x30000364 <init_minefield+0x50>
3000037c: 00452703     	lw	a4, 0x4(a0)
30000380: 06070463     	beqz	a4, 0x300003e8 <init_minefield+0xd4>
30000384: 00000793     	li	a5, 0x0
30000388: 04000837     	lui	a6, 0x4000
3000038c: 00082803     	lw	a6, 0x0(a6)
30000390: 00852883     	lw	a7, 0x8(a0)
30000394: 00100293     	li	t0, 0x1
30000398: 0080006f     	j	0x300003a0 <init_minefield+0x8c>
3000039c: 04e7f263     	bgeu	a5, a4, 0x300003e0 <init_minefield+0xcc>
300003a0: 01f85313     	srli	t1, a6, 0x1f
300003a4: 01585393     	srli	t2, a6, 0x15
300003a8: 00185e13     	srli	t3, a6, 0x1
300003ac: 00734333     	xor	t1, t1, t2
300003b0: 010e4833     	xor	a6, t3, a6
300003b4: 01034833     	xor	a6, t1, a6
300003b8: 01f81813     	slli	a6, a6, 0x1f
300003bc: 01c86833     	or	a6, a6, t3
300003c0: 02d87333     	remu	t1, a6, a3
300003c4: 00231313     	slli	t1, t1, 0x2
300003c8: 00688333     	add	t1, a7, t1
300003cc: 00034383     	lbu	t2, 0x0(t1)
300003d0: fc0396e3     	bnez	t2, 0x3000039c <init_minefield+0x88>
300003d4: 00530023     	sb	t0, 0x0(t1)
300003d8: 00178793     	addi	a5, a5, 0x1
300003dc: fc1ff06f     	j	0x3000039c <init_minefield+0x88>
300003e0: 040006b7     	lui	a3, 0x4000
300003e4: 0106a023     	sw	a6, 0x0(a3)
300003e8: 22058863     	beqz	a1, 0x30000618 <init_minefield+0x304>
300003ec: 22060663     	beqz	a2, 0x30000618 <init_minefield+0x304>
300003f0: 00000693     	li	a3, 0x0
300003f4: 00000713     	li	a4, 0x0
300003f8: 00852883     	lw	a7, 0x8(a0)
300003fc: 000107b7     	lui	a5, 0x10
30000400: fff78793     	addi	a5, a5, -0x1
30000404: 00261813     	slli	a6, a2, 0x2
30000408: 00388893     	addi	a7, a7, 0x3
3000040c: 00078293     	mv	t0, a5
30000410: 00080313     	mv	t1, a6
30000414: 0180006f     	j	0x3000042c <init_minefield+0x118>
30000418: 010888b3     	add	a7, a7, a6
3000041c: 01030333     	add	t1, t1, a6
30000420: 010686b3     	add	a3, a3, a6
30000424: 00128293     	addi	t0, t0, 0x1
30000428: 1eb70863     	beq	a4, a1, 0x30000618 <init_minefield+0x304>
3000042c: 00000393     	li	t2, 0x0
30000430: 00000e13     	li	t3, 0x0
30000434: 00f2ff33     	and	t5, t0, a5
30000438: 02c70433     	mul	s0, a4, a2
3000043c: fff70f93     	addi	t6, a4, -0x1
30000440: 00170713     	addi	a4, a4, 0x1
30000444: 00100e93     	li	t4, 0x1
30000448: 03e80f33     	mul	t5, a6, t5
3000044c: 00fff933     	and	s2, t6, a5
30000450: 00b73fb3     	sltu	t6, a4, a1
30000454: 02c709b3     	mul	s3, a4, a2
30000458: 00241413     	slli	s0, s0, 0x2
3000045c: 00b934b3     	sltu	s1, s2, a1
30000460: 02c90933     	mul	s2, s2, a2
30000464: 00291913     	slli	s2, s2, 0x2
30000468: 00299993     	slli	s3, s3, 0x2
3000046c: 0100006f     	j	0x3000047c <init_minefield+0x168>
30000470: 00438393     	addi	t2, t2, 0x4
30000474: 001e8e93     	addi	t4, t4, 0x1
30000478: fa7800e3     	beq	a6, t2, 0x30000418 <init_minefield+0x104>
3000047c: 00788a33     	add	s4, a7, t2
30000480: ffee8a93     	addi	s5, t4, -0x2
30000484: 08048463     	beqz	s1, 0x3000050c <init_minefield+0x1f8>
30000488: 010a9b13     	slli	s6, s5, 0x10
3000048c: 010b5b13     	srli	s6, s6, 0x10
30000490: 02cb7863     	bgeu	s6, a2, 0x300004c0 <init_minefield+0x1ac>
30000494: 00852b03     	lw	s6, 0x8(a0)
30000498: 040b0663     	beqz	s6, 0x300004e4 <init_minefield+0x1d0>
3000049c: 012b0b33     	add	s6, s6, s2
300004a0: 00fafbb3     	and	s7, s5, a5
300004a4: 002b9b93     	slli	s7, s7, 0x2
300004a8: 017b0b33     	add	s6, s6, s7
300004ac: 000b4b03     	lbu	s6, 0x0(s6)
300004b0: 000b0863     	beqz	s6, 0x300004c0 <init_minefield+0x1ac>
300004b4: 000a4b03     	lbu	s6, 0x0(s4)
300004b8: 001b0b13     	addi	s6, s6, 0x1
300004bc: 016a0023     	sb	s6, 0x0(s4)
300004c0: 00852b03     	lw	s6, 0x8(a0)
300004c4: 020b0063     	beqz	s6, 0x300004e4 <init_minefield+0x1d0>
300004c8: 01eb0b33     	add	s6, s6, t5
300004cc: 007b0b33     	add	s6, s6, t2
300004d0: 000b4b03     	lbu	s6, 0x0(s6)
300004d4: 000b0863     	beqz	s6, 0x300004e4 <init_minefield+0x1d0>
300004d8: 000a4b03     	lbu	s6, 0x0(s4)
300004dc: 001b0b13     	addi	s6, s6, 0x1
300004e0: 016a0023     	sb	s6, 0x0(s4)
300004e4: 02cef463     	bgeu	t4, a2, 0x3000050c <init_minefield+0x1f8>
300004e8: 00852b03     	lw	s6, 0x8(a0)
300004ec: 020b0063     	beqz	s6, 0x3000050c <init_minefield+0x1f8>
300004f0: 01eb0b33     	add	s6, s6, t5
300004f4: 007b0b33     	add	s6, s6, t2
300004f8: 004b4b03     	lbu	s6, 0x4(s6)
300004fc: 000b0863     	beqz	s6, 0x3000050c <init_minefield+0x1f8>
30000500: 000a4b03     	lbu	s6, 0x0(s4)
30000504: 001b0b13     	addi	s6, s6, 0x1
30000508: 016a0023     	sb	s6, 0x0(s4)
3000050c: 010a9b13     	slli	s6, s5, 0x10
30000510: 010b5b13     	srli	s6, s6, 0x10
30000514: 02cb7863     	bgeu	s6, a2, 0x30000544 <init_minefield+0x230>
30000518: 00852b83     	lw	s7, 0x8(a0)
3000051c: 040b8663     	beqz	s7, 0x30000568 <init_minefield+0x254>
30000520: 008b8bb3     	add	s7, s7, s0
30000524: 00fafc33     	and	s8, s5, a5
30000528: 002c1c13     	slli	s8, s8, 0x2
3000052c: 018b8bb3     	add	s7, s7, s8
30000530: 000bcb83     	lbu	s7, 0x0(s7)
30000534: 000b8863     	beqz	s7, 0x30000544 <init_minefield+0x230>
30000538: 000a4b83     	lbu	s7, 0x0(s4)
3000053c: 001b8b93     	addi	s7, s7, 0x1
30000540: 017a0023     	sb	s7, 0x0(s4)
30000544: 00852b83     	lw	s7, 0x8(a0)
30000548: 020b8063     	beqz	s7, 0x30000568 <init_minefield+0x254>
3000054c: 00db8bb3     	add	s7, s7, a3
30000550: 007b8bb3     	add	s7, s7, t2
30000554: 000bcb83     	lbu	s7, 0x0(s7)
30000558: 000b8863     	beqz	s7, 0x30000568 <init_minefield+0x254>
3000055c: 000a4b83     	lbu	s7, 0x0(s4)
30000560: 001b8b93     	addi	s7, s7, 0x1
30000564: 017a0023     	sb	s7, 0x0(s4)
30000568: 02cef463     	bgeu	t4, a2, 0x30000590 <init_minefield+0x27c>
3000056c: 00852b83     	lw	s7, 0x8(a0)
30000570: 020b8063     	beqz	s7, 0x30000590 <init_minefield+0x27c>
30000574: 00db8bb3     	add	s7, s7, a3
30000578: 007b8bb3     	add	s7, s7, t2
3000057c: 004bcb83     	lbu	s7, 0x4(s7)
30000580: 000b8863     	beqz	s7, 0x30000590 <init_minefield+0x27c>
30000584: 000a4b83     	lbu	s7, 0x0(s4)
30000588: 001b8b93     	addi	s7, s7, 0x1
3000058c: 017a0023     	sb	s7, 0x0(s4)
30000590: 001e0e13     	addi	t3, t3, 0x1
30000594: ec0f8ee3     	beqz	t6, 0x30000470 <init_minefield+0x15c>
30000598: 02cb7863     	bgeu	s6, a2, 0x300005c8 <init_minefield+0x2b4>
3000059c: 00852b03     	lw	s6, 0x8(a0)
300005a0: 040b0663     	beqz	s6, 0x300005ec <init_minefield+0x2d8>
300005a4: 013b0b33     	add	s6, s6, s3
300005a8: 00fafab3     	and	s5, s5, a5
300005ac: 002a9a93     	slli	s5, s5, 0x2
300005b0: 015b0ab3     	add	s5, s6, s5
300005b4: 000aca83     	lbu	s5, 0x0(s5)
300005b8: 000a8863     	beqz	s5, 0x300005c8 <init_minefield+0x2b4>
300005bc: 000a4a83     	lbu	s5, 0x0(s4)
300005c0: 001a8a93     	addi	s5, s5, 0x1
300005c4: 015a0023     	sb	s5, 0x0(s4)
300005c8: 00852a83     	lw	s5, 0x8(a0)
300005cc: 020a8063     	beqz	s5, 0x300005ec <init_minefield+0x2d8>
300005d0: 006a8ab3     	add	s5, s5, t1
300005d4: 007a8ab3     	add	s5, s5, t2
300005d8: 000aca83     	lbu	s5, 0x0(s5)
300005dc: 000a8863     	beqz	s5, 0x300005ec <init_minefield+0x2d8>
300005e0: 000a4a83     	lbu	s5, 0x0(s4)
300005e4: 001a8a93     	addi	s5, s5, 0x1
300005e8: 015a0023     	sb	s5, 0x0(s4)
300005ec: e8cef2e3     	bgeu	t4, a2, 0x30000470 <init_minefield+0x15c>
300005f0: 00852a83     	lw	s5, 0x8(a0)
300005f4: e60a8ee3     	beqz	s5, 0x30000470 <init_minefield+0x15c>
300005f8: 006a8ab3     	add	s5, s5, t1
300005fc: 007a8ab3     	add	s5, s5, t2
30000600: 004aca83     	lbu	s5, 0x4(s5)
30000604: e60a86e3     	beqz	s5, 0x30000470 <init_minefield+0x15c>
30000608: 000a4a83     	lbu	s5, 0x0(s4)
3000060c: 001a8a93     	addi	s5, s5, 0x1
30000610: 015a0023     	sb	s5, 0x0(s4)
30000614: e5dff06f     	j	0x30000470 <init_minefield+0x15c>
30000618: 02c12403     	lw	s0, 0x2c(sp)
3000061c: 02812483     	lw	s1, 0x28(sp)
30000620: 02412903     	lw	s2, 0x24(sp)
30000624: 02012983     	lw	s3, 0x20(sp)
30000628: 01c12a03     	lw	s4, 0x1c(sp)
3000062c: 01812a83     	lw	s5, 0x18(sp)
30000630: 01412b03     	lw	s6, 0x14(sp)
30000634: 01012b83     	lw	s7, 0x10(sp)
30000638: 00c12c03     	lw	s8, 0xc(sp)
3000063c: 03010113     	addi	sp, sp, 0x30
30000640: 00008067     	ret

30000644 <open_block>:
30000644: 00055683     	lhu	a3, 0x0(a0)
30000648: 16d5f863     	bgeu	a1, a3, 0x300007b8 <open_block+0x174>
3000064c: 00255683     	lhu	a3, 0x2(a0)
30000650: 16d67463     	bgeu	a2, a3, 0x300007b8 <open_block+0x174>
30000654: 00852703     	lw	a4, 0x8(a0)
30000658: 16070063     	beqz	a4, 0x300007b8 <open_block+0x174>
3000065c: fd010113     	addi	sp, sp, -0x30
30000660: 02112623     	sw	ra, 0x2c(sp)
30000664: 02812423     	sw	s0, 0x28(sp)
30000668: 02912223     	sw	s1, 0x24(sp)
3000066c: 03212023     	sw	s2, 0x20(sp)
30000670: 01312e23     	sw	s3, 0x1c(sp)
30000674: 01412c23     	sw	s4, 0x18(sp)
30000678: 01512a23     	sw	s5, 0x14(sp)
3000067c: 01612823     	sw	s6, 0x10(sp)
30000680: 01712623     	sw	s7, 0xc(sp)
30000684: 02b686b3     	mul	a3, a3, a1
30000688: 00261793     	slli	a5, a2, 0x2
3000068c: 00269693     	slli	a3, a3, 0x2
30000690: 00f70733     	add	a4, a4, a5
30000694: 00d70b33     	add	s6, a4, a3
30000698: 001b4683     	lbu	a3, 0x1(s6)
3000069c: 0e069a63     	bnez	a3, 0x30000790 <open_block+0x14c>
300006a0: 003b4683     	lbu	a3, 0x3(s6)
300006a4: 00100713     	li	a4, 0x1
300006a8: 00eb00a3     	sb	a4, 0x1(s6)
300006ac: 0c069463     	bnez	a3, 0x30000774 <open_block+0x130>
300006b0: fff60693     	addi	a3, a2, -0x1
300006b4: fff58713     	addi	a4, a1, -0x1
300006b8: 000107b7     	lui	a5, 0x10
300006bc: fff78b93     	addi	s7, a5, -0x1
300006c0: 017774b3     	and	s1, a4, s7
300006c4: 0176f933     	and	s2, a3, s7
300006c8: 00050413     	mv	s0, a0
300006cc: 00058993     	mv	s3, a1
300006d0: 00048593     	mv	a1, s1
300006d4: 00060a13     	mv	s4, a2
300006d8: 00090613     	mv	a2, s2
300006dc: f69ff0ef     	jal	0x30000644 <open_block>
300006e0: 00040513     	mv	a0, s0
300006e4: 00048593     	mv	a1, s1
300006e8: 000a0613     	mv	a2, s4
300006ec: f59ff0ef     	jal	0x30000644 <open_block>
300006f0: 001a0513     	addi	a0, s4, 0x1
300006f4: 01757ab3     	and	s5, a0, s7
300006f8: 00040513     	mv	a0, s0
300006fc: 00048593     	mv	a1, s1
30000700: 000a8613     	mv	a2, s5
30000704: f41ff0ef     	jal	0x30000644 <open_block>
30000708: 00040513     	mv	a0, s0
3000070c: 00098593     	mv	a1, s3
30000710: 00090613     	mv	a2, s2
30000714: f31ff0ef     	jal	0x30000644 <open_block>
30000718: 00040513     	mv	a0, s0
3000071c: 00098593     	mv	a1, s3
30000720: 000a0613     	mv	a2, s4
30000724: f21ff0ef     	jal	0x30000644 <open_block>
30000728: 00040513     	mv	a0, s0
3000072c: 00098593     	mv	a1, s3
30000730: 000a8613     	mv	a2, s5
30000734: f11ff0ef     	jal	0x30000644 <open_block>
30000738: 00198993     	addi	s3, s3, 0x1
3000073c: 0179f4b3     	and	s1, s3, s7
30000740: 00040513     	mv	a0, s0
30000744: 00048593     	mv	a1, s1
30000748: 00090613     	mv	a2, s2
3000074c: ef9ff0ef     	jal	0x30000644 <open_block>
30000750: 00040513     	mv	a0, s0
30000754: 00048593     	mv	a1, s1
30000758: 000a0613     	mv	a2, s4
3000075c: ee9ff0ef     	jal	0x30000644 <open_block>
30000760: 00040513     	mv	a0, s0
30000764: 00048593     	mv	a1, s1
30000768: 000a8613     	mv	a2, s5
3000076c: ed9ff0ef     	jal	0x30000644 <open_block>
30000770: 00040513     	mv	a0, s0
30000774: 000b4583     	lbu	a1, 0x0(s6)
30000778: 00058663     	beqz	a1, 0x30000784 <open_block+0x140>
3000077c: 00100593     	li	a1, 0x1
30000780: 00b50823     	sb	a1, 0x10(a0)
30000784: 00c52583     	lw	a1, 0xc(a0)
30000788: 00158593     	addi	a1, a1, 0x1
3000078c: 00b52623     	sw	a1, 0xc(a0)
30000790: 02c12083     	lw	ra, 0x2c(sp)
30000794: 02812403     	lw	s0, 0x28(sp)
30000798: 02412483     	lw	s1, 0x24(sp)
3000079c: 02012903     	lw	s2, 0x20(sp)
300007a0: 01c12983     	lw	s3, 0x1c(sp)
300007a4: 01812a03     	lw	s4, 0x18(sp)
300007a8: 01412a83     	lw	s5, 0x14(sp)
300007ac: 01012b03     	lw	s6, 0x10(sp)
300007b0: 00c12b83     	lw	s7, 0xc(sp)
300007b4: 03010113     	addi	sp, sp, 0x30
300007b8: 00008067     	ret

300007bc <mark_block>:
300007bc: 00055683     	lhu	a3, 0x0(a0)
300007c0: 02d5f863     	bgeu	a1, a3, 0x300007f0 <mark_block+0x34>
300007c4: 00255683     	lhu	a3, 0x2(a0)
300007c8: 02d67463     	bgeu	a2, a3, 0x300007f0 <mark_block+0x34>
300007cc: 00852503     	lw	a0, 0x8(a0)
300007d0: 02050063     	beqz	a0, 0x300007f0 <mark_block+0x34>
300007d4: 02b685b3     	mul	a1, a3, a1
300007d8: 00261613     	slli	a2, a2, 0x2
300007dc: 00259593     	slli	a1, a1, 0x2
300007e0: 00c50533     	add	a0, a0, a2
300007e4: 00b50533     	add	a0, a0, a1
300007e8: 00100593     	li	a1, 0x1
300007ec: 00b50123     	sb	a1, 0x2(a0)
300007f0: 00008067     	ret

300007f4 <unmark_block>:
300007f4: 00055683     	lhu	a3, 0x0(a0)
300007f8: 02d5f663     	bgeu	a1, a3, 0x30000824 <unmark_block+0x30>
300007fc: 00255683     	lhu	a3, 0x2(a0)
30000800: 02d67263     	bgeu	a2, a3, 0x30000824 <unmark_block+0x30>
30000804: 00852503     	lw	a0, 0x8(a0)
30000808: 00050e63     	beqz	a0, 0x30000824 <unmark_block+0x30>
3000080c: 02b685b3     	mul	a1, a3, a1
30000810: 00261613     	slli	a2, a2, 0x2
30000814: 00259593     	slli	a1, a1, 0x2
30000818: 00c50533     	add	a0, a0, a2
3000081c: 00b50533     	add	a0, a0, a1
30000820: 00050123     	sb	zero, 0x2(a0)
30000824: 00008067     	ret

30000828 <is_beaten>:
30000828: 00050593     	mv	a1, a0
3000082c: 01054603     	lbu	a2, 0x10(a0)
30000830: 00000513     	li	a0, 0x0
30000834: 02061463     	bnez	a2, 0x3000085c <is_beaten+0x34>
30000838: 0005d603     	lhu	a2, 0x0(a1)
3000083c: 0025d683     	lhu	a3, 0x2(a1)
30000840: 02c68633     	mul	a2, a3, a2
30000844: 00060c63     	beqz	a2, 0x3000085c <is_beaten+0x34>
30000848: 0045a503     	lw	a0, 0x4(a1)
3000084c: 00c5a583     	lw	a1, 0xc(a1)
30000850: 00b50533     	add	a0, a0, a1
30000854: 00c54533     	xor	a0, a0, a2
30000858: 00153513     	seqz	a0, a0
3000085c: 00008067     	ret

30000860 <is_lost>:
30000860: 01054503     	lbu	a0, 0x10(a0)
30000864: 00008067     	ret

30000868 <print_help>:
30000868: fe010113     	addi	sp, sp, -0x20
3000086c: 00812e23     	sw	s0, 0x1c(sp)
30000870: 00912c23     	sw	s1, 0x18(sp)
30000874: 01212a23     	sw	s2, 0x14(sp)
30000878: 01312823     	sw	s3, 0x10(sp)
3000087c: 01412623     	sw	s4, 0xc(sp)
30000880: 01512423     	sw	s5, 0x8(sp)
30000884: 01612223     	sw	s6, 0x4(sp)
30000888: 01712023     	sw	s7, 0x0(sp)
3000088c: 03000537     	lui	a0, 0x3000
30000890: 05700f93     	li	t6, 0x57
30000894: 06500593     	li	a1, 0x65
30000898: 06c00793     	li	a5, 0x6c
3000089c: 06300813     	li	a6, 0x63
300008a0: 06f00893     	li	a7, 0x6f
300008a4: 06d00613     	li	a2, 0x6d
300008a8: 02000693     	li	a3, 0x20
300008ac: 07400713     	li	a4, 0x74
300008b0: 06900293     	li	t0, 0x69
300008b4: 06e00313     	li	t1, 0x6e
300008b8: 07300a93     	li	s5, 0x73
300008bc: 07700f13     	li	t5, 0x77
300008c0: 07000a13     	li	s4, 0x70
300008c4: 07200e93     	li	t4, 0x72
300008c8: 04500413     	li	s0, 0x45
300008cc: 04300913     	li	s2, 0x43
300008d0: 04f00493     	li	s1, 0x4f
300008d4: 05300b93     	li	s7, 0x53
300008d8: 02100993     	li	s3, 0x21
300008dc: 00d00393     	li	t2, 0xd
300008e0: 00a00e13     	li	t3, 0xa
300008e4: 01f52a23     	sw	t6, 0x14(a0)
300008e8: 03c00f93     	li	t6, 0x3c
300008ec: 00b52a23     	sw	a1, 0x14(a0)
300008f0: 00f52a23     	sw	a5, 0x14(a0)
300008f4: 01052a23     	sw	a6, 0x14(a0)
300008f8: 01152a23     	sw	a7, 0x14(a0)
300008fc: 00c52a23     	sw	a2, 0x14(a0)
30000900: 00b52a23     	sw	a1, 0x14(a0)
30000904: 00d52a23     	sw	a3, 0x14(a0)
30000908: 00e52a23     	sw	a4, 0x14(a0)
3000090c: 01152a23     	sw	a7, 0x14(a0)
30000910: 00d52a23     	sw	a3, 0x14(a0)
30000914: 00c52a23     	sw	a2, 0x14(a0)
30000918: 00552a23     	sw	t0, 0x14(a0)
3000091c: 00652a23     	sw	t1, 0x14(a0)
30000920: 00b52a23     	sw	a1, 0x14(a0)
30000924: 01552a23     	sw	s5, 0x14(a0)
30000928: 01e52a23     	sw	t5, 0x14(a0)
3000092c: 00b52a23     	sw	a1, 0x14(a0)
30000930: 00b52a23     	sw	a1, 0x14(a0)
30000934: 01452a23     	sw	s4, 0x14(a0)
30000938: 00b52a23     	sw	a1, 0x14(a0)
3000093c: 01d52a23     	sw	t4, 0x14(a0)
30000940: 00d52a23     	sw	a3, 0x14(a0)
30000944: 01152a23     	sw	a7, 0x14(a0)
30000948: 00652a23     	sw	t1, 0x14(a0)
3000094c: 00d52a23     	sw	a3, 0x14(a0)
30000950: 00852a23     	sw	s0, 0x14(a0)
30000954: 06800b13     	li	s6, 0x68
30000958: 01252a23     	sw	s2, 0x14(a0)
3000095c: 00952a23     	sw	s1, 0x14(a0)
30000960: 06700413     	li	s0, 0x67
30000964: 01752a23     	sw	s7, 0x14(a0)
30000968: 00d52a23     	sw	a3, 0x14(a0)
3000096c: 01752a23     	sw	s7, 0x14(a0)
30000970: 03e00493     	li	s1, 0x3e
30000974: 01152a23     	sw	a7, 0x14(a0)
30000978: 01252a23     	sw	s2, 0x14(a0)
3000097c: 06400913     	li	s2, 0x64
30000980: 01352a23     	sw	s3, 0x14(a0)
30000984: 05f00b93     	li	s7, 0x5f
30000988: 00752a23     	sw	t2, 0x14(a0)
3000098c: 01c52a23     	sw	t3, 0x14(a0)
30000990: 00652a23     	sw	t1, 0x14(a0)
30000994: 00d52a23     	sw	a3, 0x14(a0)
30000998: 01f52a23     	sw	t6, 0x14(a0)
3000099c: 01652a23     	sw	s6, 0x14(a0)
300009a0: 00b52a23     	sw	a1, 0x14(a0)
300009a4: 00552a23     	sw	t0, 0x14(a0)
300009a8: 00852a23     	sw	s0, 0x14(a0)
300009ac: 01652a23     	sw	s6, 0x14(a0)
300009b0: 00e52a23     	sw	a4, 0x14(a0)
300009b4: 00952a23     	sw	s1, 0x14(a0)
300009b8: 00d52a23     	sw	a3, 0x14(a0)
300009bc: 01f52a23     	sw	t6, 0x14(a0)
300009c0: 01e52a23     	sw	t5, 0x14(a0)
300009c4: 00552a23     	sw	t0, 0x14(a0)
300009c8: 01252a23     	sw	s2, 0x14(a0)
300009cc: 03a00993     	li	s3, 0x3a
300009d0: 00e52a23     	sw	a4, 0x14(a0)
300009d4: 01652a23     	sw	s6, 0x14(a0)
300009d8: 06100913     	li	s2, 0x61
300009dc: 00952a23     	sw	s1, 0x14(a0)
300009e0: 00d52a23     	sw	a3, 0x14(a0)
300009e4: 01f52a23     	sw	t6, 0x14(a0)
300009e8: 00652a23     	sw	t1, 0x14(a0)
300009ec: 01752a23     	sw	s7, 0x14(a0)
300009f0: 06200b13     	li	s6, 0x62
300009f4: 00c52a23     	sw	a2, 0x14(a0)
300009f8: 00552a23     	sw	t0, 0x14(a0)
300009fc: 00652a23     	sw	t1, 0x14(a0)
30000a00: 00b52a23     	sw	a1, 0x14(a0)
30000a04: 01552a23     	sw	s5, 0x14(a0)
30000a08: 00952a23     	sw	s1, 0x14(a0)
30000a0c: 01352a23     	sw	s3, 0x14(a0)
30000a10: 00d52a23     	sw	a3, 0x14(a0)
30000a14: 01552a23     	sw	s5, 0x14(a0)
30000a18: 06b00a93     	li	s5, 0x6b
30000a1c: 00e52a23     	sw	a4, 0x14(a0)
30000a20: 01252a23     	sw	s2, 0x14(a0)
30000a24: 01d52a23     	sw	t4, 0x14(a0)
30000a28: 00e52a23     	sw	a4, 0x14(a0)
30000a2c: 00d52a23     	sw	a3, 0x14(a0)
30000a30: 01252a23     	sw	s2, 0x14(a0)
30000a34: 00d52a23     	sw	a3, 0x14(a0)
30000a38: 00652a23     	sw	t1, 0x14(a0)
30000a3c: 00b52a23     	sw	a1, 0x14(a0)
30000a40: 01e52a23     	sw	t5, 0x14(a0)
30000a44: 00d52a23     	sw	a3, 0x14(a0)
30000a48: 00852a23     	sw	s0, 0x14(a0)
30000a4c: 01252a23     	sw	s2, 0x14(a0)
30000a50: 00c52a23     	sw	a2, 0x14(a0)
30000a54: 00b52a23     	sw	a1, 0x14(a0)
30000a58: 00752a23     	sw	t2, 0x14(a0)
30000a5c: 01c52a23     	sw	t3, 0x14(a0)
30000a60: 01152a23     	sw	a7, 0x14(a0)
30000a64: 00d52a23     	sw	a3, 0x14(a0)
30000a68: 01f52a23     	sw	t6, 0x14(a0)
30000a6c: 01d52a23     	sw	t4, 0x14(a0)
30000a70: 01152a23     	sw	a7, 0x14(a0)
30000a74: 01e52a23     	sw	t5, 0x14(a0)
30000a78: 00952a23     	sw	s1, 0x14(a0)
30000a7c: 00d52a23     	sw	a3, 0x14(a0)
30000a80: 01f52a23     	sw	t6, 0x14(a0)
30000a84: 01052a23     	sw	a6, 0x14(a0)
30000a88: 01152a23     	sw	a7, 0x14(a0)
30000a8c: 00f52a23     	sw	a5, 0x14(a0)
30000a90: 00952a23     	sw	s1, 0x14(a0)
30000a94: 01352a23     	sw	s3, 0x14(a0)
30000a98: 00d52a23     	sw	a3, 0x14(a0)
30000a9c: 01152a23     	sw	a7, 0x14(a0)
30000aa0: 01452a23     	sw	s4, 0x14(a0)
30000aa4: 07500a13     	li	s4, 0x75
30000aa8: 00b52a23     	sw	a1, 0x14(a0)
30000aac: 00652a23     	sw	t1, 0x14(a0)
30000ab0: 00d52a23     	sw	a3, 0x14(a0)
30000ab4: 01252a23     	sw	s2, 0x14(a0)
30000ab8: 00d52a23     	sw	a3, 0x14(a0)
30000abc: 01652a23     	sw	s6, 0x14(a0)
30000ac0: 00f52a23     	sw	a5, 0x14(a0)
30000ac4: 01152a23     	sw	a7, 0x14(a0)
30000ac8: 01052a23     	sw	a6, 0x14(a0)
30000acc: 01552a23     	sw	s5, 0x14(a0)
30000ad0: 00752a23     	sw	t2, 0x14(a0)
30000ad4: 01c52a23     	sw	t3, 0x14(a0)
30000ad8: 00c52a23     	sw	a2, 0x14(a0)
30000adc: 00d52a23     	sw	a3, 0x14(a0)
30000ae0: 01f52a23     	sw	t6, 0x14(a0)
30000ae4: 01d52a23     	sw	t4, 0x14(a0)
30000ae8: 01152a23     	sw	a7, 0x14(a0)
30000aec: 01e52a23     	sw	t5, 0x14(a0)
30000af0: 00952a23     	sw	s1, 0x14(a0)
30000af4: 00d52a23     	sw	a3, 0x14(a0)
30000af8: 01f52a23     	sw	t6, 0x14(a0)
30000afc: 01052a23     	sw	a6, 0x14(a0)
30000b00: 01152a23     	sw	a7, 0x14(a0)
30000b04: 00f52a23     	sw	a5, 0x14(a0)
30000b08: 00952a23     	sw	s1, 0x14(a0)
30000b0c: 01352a23     	sw	s3, 0x14(a0)
30000b10: 00d52a23     	sw	a3, 0x14(a0)
30000b14: 00c52a23     	sw	a2, 0x14(a0)
30000b18: 01252a23     	sw	s2, 0x14(a0)
30000b1c: 01d52a23     	sw	t4, 0x14(a0)
30000b20: 01552a23     	sw	s5, 0x14(a0)
30000b24: 00d52a23     	sw	a3, 0x14(a0)
30000b28: 01252a23     	sw	s2, 0x14(a0)
30000b2c: 00d52a23     	sw	a3, 0x14(a0)
30000b30: 01652a23     	sw	s6, 0x14(a0)
30000b34: 00f52a23     	sw	a5, 0x14(a0)
30000b38: 01152a23     	sw	a7, 0x14(a0)
30000b3c: 01052a23     	sw	a6, 0x14(a0)
30000b40: 01552a23     	sw	s5, 0x14(a0)
30000b44: 00752a23     	sw	t2, 0x14(a0)
30000b48: 01c52a23     	sw	t3, 0x14(a0)
30000b4c: 01452a23     	sw	s4, 0x14(a0)
30000b50: 00d52a23     	sw	a3, 0x14(a0)
30000b54: 01f52a23     	sw	t6, 0x14(a0)
30000b58: 01d52a23     	sw	t4, 0x14(a0)
30000b5c: 01152a23     	sw	a7, 0x14(a0)
30000b60: 01e52a23     	sw	t5, 0x14(a0)
30000b64: 07100f13     	li	t5, 0x71
30000b68: 00952a23     	sw	s1, 0x14(a0)
30000b6c: 00d52a23     	sw	a3, 0x14(a0)
30000b70: 01f52a23     	sw	t6, 0x14(a0)
30000b74: 01052a23     	sw	a6, 0x14(a0)
30000b78: 01152a23     	sw	a7, 0x14(a0)
30000b7c: 00f52a23     	sw	a5, 0x14(a0)
30000b80: 00952a23     	sw	s1, 0x14(a0)
30000b84: 01352a23     	sw	s3, 0x14(a0)
30000b88: 00d52a23     	sw	a3, 0x14(a0)
30000b8c: 01452a23     	sw	s4, 0x14(a0)
30000b90: 00652a23     	sw	t1, 0x14(a0)
30000b94: 00c52a23     	sw	a2, 0x14(a0)
30000b98: 01252a23     	sw	s2, 0x14(a0)
30000b9c: 01d52a23     	sw	t4, 0x14(a0)
30000ba0: 01552a23     	sw	s5, 0x14(a0)
30000ba4: 00d52a23     	sw	a3, 0x14(a0)
30000ba8: 01252a23     	sw	s2, 0x14(a0)
30000bac: 00d52a23     	sw	a3, 0x14(a0)
30000bb0: 01652a23     	sw	s6, 0x14(a0)
30000bb4: 00f52a23     	sw	a5, 0x14(a0)
30000bb8: 01152a23     	sw	a7, 0x14(a0)
30000bbc: 01052a23     	sw	a6, 0x14(a0)
30000bc0: 01552a23     	sw	s5, 0x14(a0)
30000bc4: 00752a23     	sw	t2, 0x14(a0)
30000bc8: 01c52a23     	sw	t3, 0x14(a0)
30000bcc: 01e52a23     	sw	t5, 0x14(a0)
30000bd0: 01352a23     	sw	s3, 0x14(a0)
30000bd4: 00d52a23     	sw	a3, 0x14(a0)
30000bd8: 01e52a23     	sw	t5, 0x14(a0)
30000bdc: 01452a23     	sw	s4, 0x14(a0)
30000be0: 00552a23     	sw	t0, 0x14(a0)
30000be4: 00e52a23     	sw	a4, 0x14(a0)
30000be8: 00b52a23     	sw	a1, 0x14(a0)
30000bec: 00d52a23     	sw	a3, 0x14(a0)
30000bf0: 00852a23     	sw	s0, 0x14(a0)
30000bf4: 01252a23     	sw	s2, 0x14(a0)
30000bf8: 00c52a23     	sw	a2, 0x14(a0)
30000bfc: 00b52a23     	sw	a1, 0x14(a0)
30000c00: 00752a23     	sw	t2, 0x14(a0)
30000c04: 01c52a23     	sw	t3, 0x14(a0)
30000c08: 01c12403     	lw	s0, 0x1c(sp)
30000c0c: 01812483     	lw	s1, 0x18(sp)
30000c10: 01412903     	lw	s2, 0x14(sp)
30000c14: 01012983     	lw	s3, 0x10(sp)
30000c18: 00c12a03     	lw	s4, 0xc(sp)
30000c1c: 00812a83     	lw	s5, 0x8(sp)
30000c20: 00412b03     	lw	s6, 0x4(sp)
30000c24: 00012b83     	lw	s7, 0x0(sp)
30000c28: 02010113     	addi	sp, sp, 0x20
30000c2c: 00008067     	ret

30000c30 <put_spaces>:
30000c30: 00050c63     	beqz	a0, 0x30000c48 <put_spaces+0x18>
30000c34: 030005b7     	lui	a1, 0x3000
30000c38: 02000613     	li	a2, 0x20
30000c3c: fff50513     	addi	a0, a0, -0x1
30000c40: 00c5aa23     	sw	a2, 0x14(a1)
30000c44: fe051ce3     	bnez	a0, 0x30000c3c <put_spaces+0xc>
30000c48: 00008067     	ret

30000c4c <output_minefield>:
30000c4c: ff010113     	addi	sp, sp, -0x10
30000c50: 00812623     	sw	s0, 0xc(sp)
30000c54: 00912423     	sw	s1, 0x8(sp)
30000c58: 01212223     	sw	s2, 0x4(sp)
30000c5c: 01312023     	sw	s3, 0x0(sp)
30000c60: 03000637     	lui	a2, 0x3000
30000c64: 00d00693     	li	a3, 0xd
30000c68: 00d62a23     	sw	a3, 0x14(a2)
30000c6c: 00a00693     	li	a3, 0xa
30000c70: 00d62a23     	sw	a3, 0x14(a2)
30000c74: 00058c63     	beqz	a1, 0x30000c8c <output_minefield+0x40>
30000c78: 02000693     	li	a3, 0x20
30000c7c: 00058713     	mv	a4, a1
30000c80: fff70713     	addi	a4, a4, -0x1
30000c84: 00d62a23     	sw	a3, 0x14(a2)
30000c88: fe071ce3     	bnez	a4, 0x30000c80 <output_minefield+0x34>
30000c8c: 00255683     	lhu	a3, 0x2(a0)
30000c90: fff58713     	addi	a4, a1, -0x1
30000c94: 08068263     	beqz	a3, 0x30000d18 <output_minefield+0xcc>
30000c98: 00000793     	li	a5, 0x0
30000c9c: 02000813     	li	a6, 0x20
30000ca0: ccccd8b7     	lui	a7, 0xccccd
30000ca4: ccd88893     	addi	a7, a7, -0x333
30000ca8: 00900293     	li	t0, 0x9
30000cac: 00000393     	li	t2, 0x0
30000cb0: 00100e93     	li	t4, 0x1
30000cb4: 000e8313     	mv	t1, t4
30000cb8: 00038e13     	mv	t3, t2
30000cbc: 001e9e93     	slli	t4, t4, 0x1
30000cc0: 00331393     	slli	t2, t1, 0x3
30000cc4: 01d38eb3     	add	t4, t2, t4
30000cc8: 001e0393     	addi	t2, t3, 0x1
30000ccc: ffd7f4e3     	bgeu	a5, t4, 0x30000cb4 <output_minefield+0x68>
30000cd0: 00b3da63     	bge	t2, a1, 0x30000ce4 <output_minefield+0x98>
30000cd4: 41c703b3     	sub	t2, a4, t3
30000cd8: fff38393     	addi	t2, t2, -0x1
30000cdc: 01062a23     	sw	a6, 0x14(a2)
30000ce0: fe039ce3     	bnez	t2, 0x30000cd8 <output_minefield+0x8c>
30000ce4: 00078393     	mv	t2, a5
30000ce8: 00030e13     	mv	t3, t1
30000cec: 0263d333     	divu	t1, t2, t1
30000cf0: 03c30eb3     	mul	t4, t1, t3
30000cf4: 41d383b3     	sub	t2, t2, t4
30000cf8: 031e3eb3     	mulhu	t4, t3, a7
30000cfc: 03030313     	addi	t1, t1, 0x30
30000d00: 0ff37313     	zext.b	t1, t1
30000d04: 00662a23     	sw	t1, 0x14(a2)
30000d08: 003ed313     	srli	t1, t4, 0x3
30000d0c: fdc2eee3     	bltu	t0, t3, 0x30000ce8 <output_minefield+0x9c>
30000d10: 00178793     	addi	a5, a5, 0x1
30000d14: f8d79ce3     	bne	a5, a3, 0x30000cac <output_minefield+0x60>
30000d18: 00d00813     	li	a6, 0xd
30000d1c: 00a00893     	li	a7, 0xa
30000d20: 01062a23     	sw	a6, 0x14(a2)
30000d24: 01162a23     	sw	a7, 0x14(a2)
30000d28: 00055783     	lhu	a5, 0x0(a0)
30000d2c: 18078a63     	beqz	a5, 0x30000ec0 <output_minefield+0x274>
30000d30: 00000293     	li	t0, 0x0
30000d34: 02000313     	li	t1, 0x20
30000d38: ccccd3b7     	lui	t2, 0xccccd
30000d3c: ccd38393     	addi	t2, t2, -0x333
30000d40: 00900e13     	li	t3, 0x9
30000d44: 0140006f     	j	0x30000d58 <output_minefield+0x10c>
30000d48: 01062a23     	sw	a6, 0x14(a2)
30000d4c: 00128293     	addi	t0, t0, 0x1
30000d50: 01162a23     	sw	a7, 0x14(a2)
30000d54: 16f28663     	beq	t0, a5, 0x30000ec0 <output_minefield+0x274>
30000d58: 00000f13     	li	t5, 0x0
30000d5c: 00100413     	li	s0, 0x1
30000d60: 00040e93     	mv	t4, s0
30000d64: 000f0f93     	mv	t6, t5
30000d68: 00141413     	slli	s0, s0, 0x1
30000d6c: 003e9f13     	slli	t5, t4, 0x3
30000d70: 008f0433     	add	s0, t5, s0
30000d74: 001f8f13     	addi	t5, t6, 0x1
30000d78: fe82f4e3     	bgeu	t0, s0, 0x30000d60 <output_minefield+0x114>
30000d7c: 00bf5a63     	bge	t5, a1, 0x30000d90 <output_minefield+0x144>
30000d80: 41f70f33     	sub	t5, a4, t6
30000d84: ffff0f13     	addi	t5, t5, -0x1
30000d88: 00662a23     	sw	t1, 0x14(a2)
30000d8c: fe0f1ce3     	bnez	t5, 0x30000d84 <output_minefield+0x138>
30000d90: 00028f13     	mv	t5, t0
30000d94: 000e8f93     	mv	t6, t4
30000d98: 03df5eb3     	divu	t4, t5, t4
30000d9c: 03fe8433     	mul	s0, t4, t6
30000da0: 408f0f33     	sub	t5, t5, s0
30000da4: 027fb433     	mulhu	s0, t6, t2
30000da8: 030e8e93     	addi	t4, t4, 0x30
30000dac: 0ffefe93     	zext.b	t4, t4
30000db0: 01d62a23     	sw	t4, 0x14(a2)
30000db4: 00345e93     	srli	t4, s0, 0x3
30000db8: fdfe6ee3     	bltu	t3, t6, 0x30000d94 <output_minefield+0x148>
30000dbc: f80686e3     	beqz	a3, 0x30000d48 <output_minefield+0xfc>
30000dc0: 00000e93     	li	t4, 0x0
30000dc4: 00852f03     	lw	t5, 0x8(a0)
30000dc8: 02d28fb3     	mul	t6, t0, a3
30000dcc: 002f9f93     	slli	t6, t6, 0x2
30000dd0: 01ff0f33     	add	t5, t5, t6
30000dd4: 0100006f     	j	0x30000de4 <output_minefield+0x198>
30000dd8: 01f62a23     	sw	t6, 0x14(a2)
30000ddc: 001e8e93     	addi	t4, t4, 0x1
30000de0: f6de84e3     	beq	t4, a3, 0x30000d48 <output_minefield+0xfc>
30000de4: 002e9f93     	slli	t6, t4, 0x2
30000de8: 01ff0fb3     	add	t6, t5, t6
30000dec: 001fc403     	lbu	s0, 0x1(t6)
30000df0: 02040463     	beqz	s0, 0x30000e18 <output_minefield+0x1cc>
30000df4: 000fc403     	lbu	s0, 0x0(t6)
30000df8: 04040263     	beqz	s0, 0x30000e3c <output_minefield+0x1f0>
30000dfc: 02a00f93     	li	t6, 0x2a
30000e00: fc070ce3     	beqz	a4, 0x30000dd8 <output_minefield+0x18c>
30000e04: 00070413     	mv	s0, a4
30000e08: fff40413     	addi	s0, s0, -0x1
30000e0c: 00662a23     	sw	t1, 0x14(a2)
30000e10: fe041ce3     	bnez	s0, 0x30000e08 <output_minefield+0x1bc>
30000e14: fc5ff06f     	j	0x30000dd8 <output_minefield+0x18c>
30000e18: 002fcf83     	lbu	t6, 0x2(t6)
30000e1c: 080f8463     	beqz	t6, 0x30000ea4 <output_minefield+0x258>
30000e20: 02100f93     	li	t6, 0x21
30000e24: fa070ae3     	beqz	a4, 0x30000dd8 <output_minefield+0x18c>
30000e28: 00070413     	mv	s0, a4
30000e2c: fff40413     	addi	s0, s0, -0x1
30000e30: 00662a23     	sw	t1, 0x14(a2)
30000e34: fe041ce3     	bnez	s0, 0x30000e2c <output_minefield+0x1e0>
30000e38: fa1ff06f     	j	0x30000dd8 <output_minefield+0x18c>
30000e3c: 00000493     	li	s1, 0x0
30000e40: 003fcf83     	lbu	t6, 0x3(t6)
30000e44: 00100993     	li	s3, 0x1
30000e48: 00098413     	mv	s0, s3
30000e4c: 00048913     	mv	s2, s1
30000e50: 00199993     	slli	s3, s3, 0x1
30000e54: 00341493     	slli	s1, s0, 0x3
30000e58: 013489b3     	add	s3, s1, s3
30000e5c: 00190493     	addi	s1, s2, 0x1
30000e60: ff3ff4e3     	bgeu	t6, s3, 0x30000e48 <output_minefield+0x1fc>
30000e64: 00b4da63     	bge	s1, a1, 0x30000e78 <output_minefield+0x22c>
30000e68: 412704b3     	sub	s1, a4, s2
30000e6c: fff48493     	addi	s1, s1, -0x1
30000e70: 00662a23     	sw	t1, 0x14(a2)
30000e74: fe049ce3     	bnez	s1, 0x30000e6c <output_minefield+0x220>
30000e78: 00040493     	mv	s1, s0
30000e7c: 028fd433     	divu	s0, t6, s0
30000e80: 02940933     	mul	s2, s0, s1
30000e84: 412f8fb3     	sub	t6, t6, s2
30000e88: 0274b933     	mulhu	s2, s1, t2
30000e8c: 03040413     	addi	s0, s0, 0x30
30000e90: 0ff47413     	zext.b	s0, s0
30000e94: 00862a23     	sw	s0, 0x14(a2)
30000e98: 00395413     	srli	s0, s2, 0x3
30000e9c: fd14fee3     	bgeu	s1, a7, 0x30000e78 <output_minefield+0x22c>
30000ea0: f3dff06f     	j	0x30000ddc <output_minefield+0x190>
30000ea4: 02d00f93     	li	t6, 0x2d
30000ea8: f20708e3     	beqz	a4, 0x30000dd8 <output_minefield+0x18c>
30000eac: 00070413     	mv	s0, a4
30000eb0: fff40413     	addi	s0, s0, -0x1
30000eb4: 00662a23     	sw	t1, 0x14(a2)
30000eb8: fe041ce3     	bnez	s0, 0x30000eb0 <output_minefield+0x264>
30000ebc: f1dff06f     	j	0x30000dd8 <output_minefield+0x18c>
30000ec0: 01054703     	lbu	a4, 0x10(a0)
30000ec4: 02071e63     	bnez	a4, 0x30000f00 <output_minefield+0x2b4>
30000ec8: 02d785b3     	mul	a1, a5, a3
30000ecc: 02058a63     	beqz	a1, 0x30000f00 <output_minefield+0x2b4>
30000ed0: 00452683     	lw	a3, 0x4(a0)
30000ed4: 00c52503     	lw	a0, 0xc(a0)
30000ed8: 00a68533     	add	a0, a3, a0
30000edc: 08b51063     	bne	a0, a1, 0x30000f5c <output_minefield+0x310>
30000ee0: 06e00513     	li	a0, 0x6e
30000ee4: 06900593     	li	a1, 0x69
30000ee8: 07700813     	li	a6, 0x77
30000eec: 02000693     	li	a3, 0x20
30000ef0: 07500713     	li	a4, 0x75
30000ef4: 06f00793     	li	a5, 0x6f
30000ef8: 05900893     	li	a7, 0x59
30000efc: 02c0006f     	j	0x30000f28 <output_minefield+0x2dc>
30000f00: 04070e63     	beqz	a4, 0x30000f5c <output_minefield+0x310>
30000f04: 05900813     	li	a6, 0x59
30000f08: 07400513     	li	a0, 0x74
30000f0c: 07300593     	li	a1, 0x73
30000f10: 06c00693     	li	a3, 0x6c
30000f14: 02000713     	li	a4, 0x20
30000f18: 07500793     	li	a5, 0x75
30000f1c: 06f00893     	li	a7, 0x6f
30000f20: 01062a23     	sw	a6, 0x14(a2)
30000f24: 06f00813     	li	a6, 0x6f
30000f28: 01162a23     	sw	a7, 0x14(a2)
30000f2c: 00f62a23     	sw	a5, 0x14(a2)
30000f30: 00e62a23     	sw	a4, 0x14(a2)
30000f34: 00d62a23     	sw	a3, 0x14(a2)
30000f38: 01062a23     	sw	a6, 0x14(a2)
30000f3c: 00b62a23     	sw	a1, 0x14(a2)
30000f40: 00a62a23     	sw	a0, 0x14(a2)
30000f44: 02100513     	li	a0, 0x21
30000f48: 00d00593     	li	a1, 0xd
30000f4c: 00a00693     	li	a3, 0xa
30000f50: 00a62a23     	sw	a0, 0x14(a2)
30000f54: 00b62a23     	sw	a1, 0x14(a2)
30000f58: 00d62a23     	sw	a3, 0x14(a2)
30000f5c: 00c12403     	lw	s0, 0xc(sp)
30000f60: 00812483     	lw	s1, 0x8(sp)
30000f64: 00412903     	lw	s2, 0x4(sp)
30000f68: 00012983     	lw	s3, 0x0(sp)
30000f6c: 01010113     	addi	sp, sp, 0x10
30000f70: 00008067     	ret

30000f74 <main>:
30000f74: da010113     	addi	sp, sp, -0x260
30000f78: 24112e23     	sw	ra, 0x25c(sp)
30000f7c: 24812c23     	sw	s0, 0x258(sp)
30000f80: 24912a23     	sw	s1, 0x254(sp)
30000f84: 25212823     	sw	s2, 0x250(sp)
30000f88: 25312623     	sw	s3, 0x24c(sp)
30000f8c: 25412423     	sw	s4, 0x248(sp)
30000f90: 25512223     	sw	s5, 0x244(sp)
30000f94: 25612023     	sw	s6, 0x240(sp)
30000f98: 23712e23     	sw	s7, 0x23c(sp)
30000f9c: 23812c23     	sw	s8, 0x238(sp)
30000fa0: 23912a23     	sw	s9, 0x234(sp)
30000fa4: 23a12823     	sw	s10, 0x230(sp)
30000fa8: 23b12623     	sw	s11, 0x22c(sp)
30000fac: 03000437     	lui	s0, 0x3000
30000fb0: 00010537     	lui	a0, 0x10
30000fb4: fff50513     	addi	a0, a0, -0x1
30000fb8: 00a12823     	sw	a0, 0x10(sp)
30000fbc: 411000ef     	jal	0x30001bcc <sys_uart_init>
30000fc0: 8a9ff0ef     	jal	0x30000868 <print_help>
30000fc4: 00000b93     	li	s7, 0x0
30000fc8: 02000a93     	li	s5, 0x20
30000fcc: fff00b13     	li	s6, -0x1
30000fd0: ff600c93     	li	s9, -0xa
30000fd4: 00a00d13     	li	s10, 0xa
30000fd8: 300054b7     	lui	s1, 0x30005
30000fdc: af348493     	addi	s1, s1, -0x50d
30000fe0: 30005db7     	lui	s11, 0x30005
30000fe4: bacd8d93     	addi	s11, s11, -0x454
30000fe8: 00148513     	addi	a0, s1, 0x1
30000fec: 00a12623     	sw	a0, 0xc(sp)
30000ff0: 001d8513     	addi	a0, s11, 0x1
30000ff4: 00a12a23     	sw	a0, 0x14(sp)
30000ff8: 00200593     	li	a1, 0x2
30000ffc: 0100006f     	j	0x3000100c <main+0x98>
30001000: 001bf593     	andi	a1, s7, 0x1
30001004: fff58593     	addi	a1, a1, -0x1
30001008: 0025f593     	andi	a1, a1, 0x2
3000100c: 00058913     	mv	s2, a1
30001010: 04058063     	beqz	a1, 0x30001050 <main+0xdc>
30001014: 00100593     	li	a1, 0x1
30001018: 06b91463     	bne	s2, a1, 0x30001080 <main+0x10c>
3000101c: 0ff57513     	zext.b	a0, a0
30001020: 06d00593     	li	a1, 0x6d
30001024: 40b50063     	beq	a0, a1, 0x30001424 <main+0x4b0>
30001028: 07500593     	li	a1, 0x75
3000102c: 3ab50463     	beq	a0, a1, 0x300013d4 <main+0x460>
30001030: 06f00593     	li	a1, 0x6f
30001034: 02b51e63     	bne	a0, a1, 0x30001070 <main+0xfc>
30001038: 01012503     	lw	a0, 0x10(sp)
3000103c: 00a9f5b3     	and	a1, s3, a0
30001040: 00aa7633     	and	a2, s4, a0
30001044: 21810513     	addi	a0, sp, 0x218
30001048: dfcff0ef     	jal	0x30000644 <open_block>
3000104c: 0240006f     	j	0x30001070 <main+0xfc>
30001050: 21311c23     	sh	s3, 0x218(sp)
30001054: 21411d23     	sh	s4, 0x21a(sp)
30001058: 21812e23     	sw	s8, 0x21c(sp)
3000105c: 01810513     	addi	a0, sp, 0x18
30001060: 22a12023     	sw	a0, 0x220(sp)
30001064: 21810513     	addi	a0, sp, 0x218
30001068: aacff0ef     	jal	0x30000314 <init_minefield>
3000106c: 00000b93     	li	s7, 0x0
30001070: 21810513     	addi	a0, sp, 0x218
30001074: 00300593     	li	a1, 0x3
30001078: bd5ff0ef     	jal	0x30000c4c <output_minefield>
3000107c: 0200006f     	j	0x3000109c <main+0x128>
30001080: 07500593     	li	a1, 0x75
30001084: 01412503     	lw	a0, 0x14(sp)
30001088: 00b42a23     	sw	a1, 0x14(s0)
3000108c: 00054583     	lbu	a1, 0x0(a0)
30001090: 00150513     	addi	a0, a0, 0x1
30001094: 049d8613     	addi	a2, s11, 0x49
30001098: fec518e3     	bne	a0, a2, 0x30001088 <main+0x114>
3000109c: 03e00513     	li	a0, 0x3e
300010a0: 00a42a23     	sw	a0, 0x14(s0)
300010a4: 01542a23     	sw	s5, 0x14(s0)
300010a8: 01442503     	lw	a0, 0x14(s0)
300010ac: ff650ee3     	beq	a0, s6, 0x300010a8 <main+0x134>
300010b0: 0ff57593     	zext.b	a1, a0
300010b4: f9358593     	addi	a1, a1, -0x6d
300010b8: 00a42a23     	sw	a0, 0x14(s0)
300010bc: 00800613     	li	a2, 0x8
300010c0: 0cb66063     	bltu	a2, a1, 0x30001180 <main+0x20c>
300010c4: 00259593     	slli	a1, a1, 0x2
300010c8: 30005637     	lui	a2, 0x30005
300010cc: 93460613     	addi	a2, a2, -0x6cc
300010d0: 00b605b3     	add	a1, a2, a1
300010d4: 0005a583     	lw	a1, 0x0(a1)
300010d8: 00058067     	jr	a1
300010dc: 01442583     	lw	a1, 0x14(s0)
300010e0: ff658ee3     	beq	a1, s6, 0x300010dc <main+0x168>
300010e4: 0ff5f613     	zext.b	a2, a1
300010e8: fc660613     	addi	a2, a2, -0x3a
300010ec: 00b42a23     	sw	a1, 0x14(s0)
300010f0: ff9666e3     	bltu	a2, s9, 0x300010dc <main+0x168>
300010f4: 00000993     	li	s3, 0x0
300010f8: 01442603     	lw	a2, 0x14(s0)
300010fc: ff660ee3     	beq	a2, s6, 0x300010f8 <main+0x184>
30001100: 0ff5f593     	zext.b	a1, a1
30001104: 00199693     	slli	a3, s3, 0x1
30001108: 00399993     	slli	s3, s3, 0x3
3000110c: 00d986b3     	add	a3, s3, a3
30001110: 0ff67713     	zext.b	a4, a2
30001114: fd070713     	addi	a4, a4, -0x30
30001118: 00d585b3     	add	a1, a1, a3
3000111c: fd058993     	addi	s3, a1, -0x30
30001120: 00c42a23     	sw	a2, 0x14(s0)
30001124: 00060593     	mv	a1, a2
30001128: fda768e3     	bltu	a4, s10, 0x300010f8 <main+0x184>
3000112c: 01442583     	lw	a1, 0x14(s0)
30001130: ff658ee3     	beq	a1, s6, 0x3000112c <main+0x1b8>
30001134: 0ff5f613     	zext.b	a2, a1
30001138: fc660613     	addi	a2, a2, -0x3a
3000113c: 00b42a23     	sw	a1, 0x14(s0)
30001140: ff9666e3     	bltu	a2, s9, 0x3000112c <main+0x1b8>
30001144: 00000a13     	li	s4, 0x0
30001148: 01442603     	lw	a2, 0x14(s0)
3000114c: ff660ee3     	beq	a2, s6, 0x30001148 <main+0x1d4>
30001150: 0ff5f593     	zext.b	a1, a1
30001154: 001a1693     	slli	a3, s4, 0x1
30001158: 003a1a13     	slli	s4, s4, 0x3
3000115c: 00da06b3     	add	a3, s4, a3
30001160: 0ff67713     	zext.b	a4, a2
30001164: fd070713     	addi	a4, a4, -0x30
30001168: 00d585b3     	add	a1, a1, a3
3000116c: fd058a13     	addi	s4, a1, -0x30
30001170: 00c42a23     	sw	a2, 0x14(s0)
30001174: 00060593     	mv	a1, a2
30001178: fda768e3     	bltu	a4, s10, 0x30001148 <main+0x1d4>
3000117c: 00000b93     	li	s7, 0x0
30001180: 00100593     	li	a1, 0x1
30001184: e80904e3     	beqz	s2, 0x3000100c <main+0x98>
30001188: 00200593     	li	a1, 0x2
3000118c: e6b90ae3     	beq	s2, a1, 0x30001000 <main+0x8c>
30001190: 22814603     	lbu	a2, 0x228(sp)
30001194: 02061463     	bnez	a2, 0x300011bc <main+0x248>
30001198: 21815583     	lhu	a1, 0x218(sp)
3000119c: 21a15683     	lhu	a3, 0x21a(sp)
300011a0: 02b686b3     	mul	a3, a3, a1
300011a4: 00068c63     	beqz	a3, 0x300011bc <main+0x248>
300011a8: 21c12583     	lw	a1, 0x21c(sp)
300011ac: 22412703     	lw	a4, 0x224(sp)
300011b0: 00e58733     	add	a4, a1, a4
300011b4: 00200593     	li	a1, 0x2
300011b8: e4d70ae3     	beq	a4, a3, 0x3000100c <main+0x98>
300011bc: 1e061463     	bnez	a2, 0x300013a4 <main+0x430>
300011c0: fffbc593     	not	a1, s7
300011c4: 0015f593     	andi	a1, a1, 0x1
300011c8: e45ff06f     	j	0x3000100c <main+0x98>
300011cc: 01442583     	lw	a1, 0x14(s0)
300011d0: ff658ee3     	beq	a1, s6, 0x300011cc <main+0x258>
300011d4: 0ff5f613     	zext.b	a2, a1
300011d8: fc660613     	addi	a2, a2, -0x3a
300011dc: 00b42a23     	sw	a1, 0x14(s0)
300011e0: ff9666e3     	bltu	a2, s9, 0x300011cc <main+0x258>
300011e4: 00000993     	li	s3, 0x0
300011e8: 01442603     	lw	a2, 0x14(s0)
300011ec: ff660ee3     	beq	a2, s6, 0x300011e8 <main+0x274>
300011f0: 0ff5f593     	zext.b	a1, a1
300011f4: 00199693     	slli	a3, s3, 0x1
300011f8: 00399993     	slli	s3, s3, 0x3
300011fc: 00d986b3     	add	a3, s3, a3
30001200: 0ff67713     	zext.b	a4, a2
30001204: fd070713     	addi	a4, a4, -0x30
30001208: 00d585b3     	add	a1, a1, a3
3000120c: fd058993     	addi	s3, a1, -0x30
30001210: 00c42a23     	sw	a2, 0x14(s0)
30001214: 00060593     	mv	a1, a2
30001218: fda768e3     	bltu	a4, s10, 0x300011e8 <main+0x274>
3000121c: 01442583     	lw	a1, 0x14(s0)
30001220: ff658ee3     	beq	a1, s6, 0x3000121c <main+0x2a8>
30001224: 0ff5f613     	zext.b	a2, a1
30001228: fc660613     	addi	a2, a2, -0x3a
3000122c: 00b42a23     	sw	a1, 0x14(s0)
30001230: ff9666e3     	bltu	a2, s9, 0x3000121c <main+0x2a8>
30001234: 00000a13     	li	s4, 0x0
30001238: 01442603     	lw	a2, 0x14(s0)
3000123c: ff660ee3     	beq	a2, s6, 0x30001238 <main+0x2c4>
30001240: 0ff5f593     	zext.b	a1, a1
30001244: 001a1693     	slli	a3, s4, 0x1
30001248: 003a1a13     	slli	s4, s4, 0x3
3000124c: 00da06b3     	add	a3, s4, a3
30001250: 0ff67713     	zext.b	a4, a2
30001254: fd070713     	addi	a4, a4, -0x30
30001258: 00d585b3     	add	a1, a1, a3
3000125c: fd058a13     	addi	s4, a1, -0x30
30001260: 00c42a23     	sw	a2, 0x14(s0)
30001264: 00060593     	mv	a1, a2
30001268: fda768e3     	bltu	a4, s10, 0x30001238 <main+0x2c4>
3000126c: 01442583     	lw	a1, 0x14(s0)
30001270: ff658ee3     	beq	a1, s6, 0x3000126c <main+0x2f8>
30001274: 0ff5f613     	zext.b	a2, a1
30001278: fc660613     	addi	a2, a2, -0x3a
3000127c: 00b42a23     	sw	a1, 0x14(s0)
30001280: ff9666e3     	bltu	a2, s9, 0x3000126c <main+0x2f8>
30001284: 00000c13     	li	s8, 0x0
30001288: 01442603     	lw	a2, 0x14(s0)
3000128c: ff660ee3     	beq	a2, s6, 0x30001288 <main+0x314>
30001290: 0ff5f593     	zext.b	a1, a1
30001294: 001c1693     	slli	a3, s8, 0x1
30001298: 003c1c13     	slli	s8, s8, 0x3
3000129c: 00dc06b3     	add	a3, s8, a3
300012a0: 0ff67713     	zext.b	a4, a2
300012a4: fd070713     	addi	a4, a4, -0x30
300012a8: 00d585b3     	add	a1, a1, a3
300012ac: fd058c13     	addi	s8, a1, -0x30
300012b0: 00c42a23     	sw	a2, 0x14(s0)
300012b4: 00060593     	mv	a1, a2
300012b8: fda768e3     	bltu	a4, s10, 0x30001288 <main+0x314>
300012bc: 033a05b3     	mul	a1, s4, s3
300012c0: 08100613     	li	a2, 0x81
300012c4: 0ec5e463     	bltu	a1, a2, 0x300013ac <main+0x438>
300012c8: 00000b93     	li	s7, 0x0
300012cc: 04d00593     	li	a1, 0x4d
300012d0: 00b42a23     	sw	a1, 0x14(s0)
300012d4: 06100593     	li	a1, 0x61
300012d8: 00b42a23     	sw	a1, 0x14(s0)
300012dc: 07800593     	li	a1, 0x78
300012e0: 00b42a23     	sw	a1, 0x14(s0)
300012e4: 06900593     	li	a1, 0x69
300012e8: 00b42a23     	sw	a1, 0x14(s0)
300012ec: 06d00613     	li	a2, 0x6d
300012f0: 00c42a23     	sw	a2, 0x14(s0)
300012f4: 07500693     	li	a3, 0x75
300012f8: 00d42a23     	sw	a3, 0x14(s0)
300012fc: 00c42a23     	sw	a2, 0x14(s0)
30001300: 01542a23     	sw	s5, 0x14(s0)
30001304: 06e00713     	li	a4, 0x6e
30001308: 00e42a23     	sw	a4, 0x14(s0)
3000130c: 00d42a23     	sw	a3, 0x14(s0)
30001310: 00c42a23     	sw	a2, 0x14(s0)
30001314: 06200613     	li	a2, 0x62
30001318: 00c42a23     	sw	a2, 0x14(s0)
3000131c: 06500693     	li	a3, 0x65
30001320: 00d42a23     	sw	a3, 0x14(s0)
30001324: 07200693     	li	a3, 0x72
30001328: 00d42a23     	sw	a3, 0x14(s0)
3000132c: 01542a23     	sw	s5, 0x14(s0)
30001330: 06f00693     	li	a3, 0x6f
30001334: 00d42a23     	sw	a3, 0x14(s0)
30001338: 06600713     	li	a4, 0x66
3000133c: 00e42a23     	sw	a4, 0x14(s0)
30001340: 01542a23     	sw	s5, 0x14(s0)
30001344: 00c42a23     	sw	a2, 0x14(s0)
30001348: 06c00613     	li	a2, 0x6c
3000134c: 00c42a23     	sw	a2, 0x14(s0)
30001350: 00d42a23     	sw	a3, 0x14(s0)
30001354: 06300613     	li	a2, 0x63
30001358: 00c42a23     	sw	a2, 0x14(s0)
3000135c: 06b00613     	li	a2, 0x6b
30001360: 00c42a23     	sw	a2, 0x14(s0)
30001364: 07300613     	li	a2, 0x73
30001368: 00c42a23     	sw	a2, 0x14(s0)
3000136c: 01542a23     	sw	s5, 0x14(s0)
30001370: 00b42a23     	sw	a1, 0x14(s0)
30001374: 00c42a23     	sw	a2, 0x14(s0)
30001378: 01542a23     	sw	s5, 0x14(s0)
3000137c: 03100593     	li	a1, 0x31
30001380: 00b42a23     	sw	a1, 0x14(s0)
30001384: 03200593     	li	a1, 0x32
30001388: 00b42a23     	sw	a1, 0x14(s0)
3000138c: 03800593     	li	a1, 0x38
30001390: 00b42a23     	sw	a1, 0x14(s0)
30001394: 00d00593     	li	a1, 0xd
30001398: 00b42a23     	sw	a1, 0x14(s0)
3000139c: 01a42a23     	sw	s10, 0x14(s0)
300013a0: de1ff06f     	j	0x30001180 <main+0x20c>
300013a4: 00200593     	li	a1, 0x2
300013a8: c65ff06f     	j	0x3000100c <main+0x98>
300013ac: 0015d593     	srli	a1, a1, 0x1
300013b0: 0d85f463     	bgeu	a1, s8, 0x30001478 <main+0x504>
300013b4: 04e00613     	li	a2, 0x4e
300013b8: 00c12583     	lw	a1, 0xc(sp)
300013bc: 00c42a23     	sw	a2, 0x14(s0)
300013c0: 0005c603     	lbu	a2, 0x0(a1)
300013c4: 00158593     	addi	a1, a1, 0x1
300013c8: 03e48693     	addi	a3, s1, 0x3e
300013cc: fed598e3     	bne	a1, a3, 0x300013bc <main+0x448>
300013d0: dadff06f     	j	0x3000117c <main+0x208>
300013d4: 21815503     	lhu	a0, 0x218(sp)
300013d8: 01099593     	slli	a1, s3, 0x10
300013dc: 0105d593     	srli	a1, a1, 0x10
300013e0: c8a5f8e3     	bgeu	a1, a0, 0x30001070 <main+0xfc>
300013e4: 21a15503     	lhu	a0, 0x21a(sp)
300013e8: 010a1593     	slli	a1, s4, 0x10
300013ec: 0105d593     	srli	a1, a1, 0x10
300013f0: c8a5f0e3     	bgeu	a1, a0, 0x30001070 <main+0xfc>
300013f4: 22012583     	lw	a1, 0x220(sp)
300013f8: c6058ce3     	beqz	a1, 0x30001070 <main+0xfc>
300013fc: 01012683     	lw	a3, 0x10(sp)
30001400: 00d9f633     	and	a2, s3, a3
30001404: 02a60533     	mul	a0, a2, a0
30001408: 00da7633     	and	a2, s4, a3
3000140c: 00261613     	slli	a2, a2, 0x2
30001410: 00251513     	slli	a0, a0, 0x2
30001414: 00c585b3     	add	a1, a1, a2
30001418: 00a58533     	add	a0, a1, a0
3000141c: 00050123     	sb	zero, 0x2(a0)
30001420: c51ff06f     	j	0x30001070 <main+0xfc>
30001424: 21815503     	lhu	a0, 0x218(sp)
30001428: 01099593     	slli	a1, s3, 0x10
3000142c: 0105d593     	srli	a1, a1, 0x10
30001430: c4a5f0e3     	bgeu	a1, a0, 0x30001070 <main+0xfc>
30001434: 21a15503     	lhu	a0, 0x21a(sp)
30001438: 010a1593     	slli	a1, s4, 0x10
3000143c: 0105d593     	srli	a1, a1, 0x10
30001440: c2a5f8e3     	bgeu	a1, a0, 0x30001070 <main+0xfc>
30001444: 22012583     	lw	a1, 0x220(sp)
30001448: c20584e3     	beqz	a1, 0x30001070 <main+0xfc>
3000144c: 01012683     	lw	a3, 0x10(sp)
30001450: 00d9f633     	and	a2, s3, a3
30001454: 02a60533     	mul	a0, a2, a0
30001458: 00da7633     	and	a2, s4, a3
3000145c: 00261613     	slli	a2, a2, 0x2
30001460: 00251513     	slli	a0, a0, 0x2
30001464: 00c585b3     	add	a1, a1, a2
30001468: 00a58533     	add	a0, a1, a0
3000146c: 00100593     	li	a1, 0x1
30001470: 00b50123     	sb	a1, 0x2(a0)
30001474: bfdff06f     	j	0x30001070 <main+0xfc>
30001478: 00100b93     	li	s7, 0x1
3000147c: d05ff06f     	j	0x30001180 <main+0x20c>
30001480: 00000513     	li	a0, 0x0
30001484: 25c12083     	lw	ra, 0x25c(sp)
30001488: 25812403     	lw	s0, 0x258(sp)
3000148c: 25412483     	lw	s1, 0x254(sp)
30001490: 25012903     	lw	s2, 0x250(sp)
30001494: 24c12983     	lw	s3, 0x24c(sp)
30001498: 24812a03     	lw	s4, 0x248(sp)
3000149c: 24412a83     	lw	s5, 0x244(sp)
300014a0: 24012b03     	lw	s6, 0x240(sp)
300014a4: 23c12b83     	lw	s7, 0x23c(sp)
300014a8: 23812c03     	lw	s8, 0x238(sp)
300014ac: 23412c83     	lw	s9, 0x234(sp)
300014b0: 23012d03     	lw	s10, 0x230(sp)
300014b4: 22c12d83     	lw	s11, 0x22c(sp)
300014b8: 26010113     	addi	sp, sp, 0x260
300014bc: 00008067     	ret

300014c0 <memcpy>:
300014c0: 02060263     	beqz	a2, 0x300014e4 <memcpy+0x24>
300014c4: 00c50633     	add	a2, a0, a2
300014c8: 00050693     	mv	a3, a0
300014cc: 0005c703     	lbu	a4, 0x0(a1)
300014d0: 00158593     	addi	a1, a1, 0x1
300014d4: 00168793     	addi	a5, a3, 0x1
300014d8: 00e68023     	sb	a4, 0x0(a3)
300014dc: 00078693     	mv	a3, a5
300014e0: fec796e3     	bne	a5, a2, 0x300014cc <memcpy+0xc>
300014e4: 00008067     	ret

300014e8 <memset>:
300014e8: 00060e63     	beqz	a2, 0x30001504 <memset+0x1c>
300014ec: 00c50633     	add	a2, a0, a2
300014f0: 00050693     	mv	a3, a0
300014f4: 00168713     	addi	a4, a3, 0x1
300014f8: 00b68023     	sb	a1, 0x0(a3)
300014fc: 00070693     	mv	a3, a4
30001500: fec71ae3     	bne	a4, a2, 0x300014f4 <memset+0xc>
30001504: 00008067     	ret

30001508 <strlen>:
30001508: 00054583     	lbu	a1, 0x0(a0)
3000150c: 00058c63     	beqz	a1, 0x30001524 <strlen+0x1c>
30001510: 00000593     	li	a1, 0x0
30001514: 00b50633     	add	a2, a0, a1
30001518: 00164603     	lbu	a2, 0x1(a2)
3000151c: 00158593     	addi	a1, a1, 0x1
30001520: fe061ae3     	bnez	a2, 0x30001514 <strlen+0xc>
30001524: 00058513     	mv	a0, a1
30001528: 00008067     	ret

3000152c <vprintf>:
3000152c: fa010113     	addi	sp, sp, -0x60
30001530: 04112e23     	sw	ra, 0x5c(sp)
30001534: 04812c23     	sw	s0, 0x58(sp)
30001538: 04912a23     	sw	s1, 0x54(sp)
3000153c: 05212823     	sw	s2, 0x50(sp)
30001540: 05312623     	sw	s3, 0x4c(sp)
30001544: 05412423     	sw	s4, 0x48(sp)
30001548: 05512223     	sw	s5, 0x44(sp)
3000154c: 05612023     	sw	s6, 0x40(sp)
30001550: 03712e23     	sw	s7, 0x3c(sp)
30001554: 03812c23     	sw	s8, 0x38(sp)
30001558: 03912a23     	sw	s9, 0x34(sp)
3000155c: 03a12823     	sw	s10, 0x30(sp)
30001560: 03b12623     	sw	s11, 0x2c(sp)
30001564: 00058413     	mv	s0, a1
30001568: 00050913     	mv	s2, a0
3000156c: 00000b93     	li	s7, 0x0
30001570: 01f10b13     	addi	s6, sp, 0x1f
30001574: 00110a13     	addi	s4, sp, 0x1
30001578: 02500a93     	li	s5, 0x25
3000157c: 05300d13     	li	s10, 0x53
30001580: ccccd537     	lui	a0, 0xccccd
30001584: 00900d93     	li	s11, 0x9
30001588: 30005c37     	lui	s8, 0x30005
3000158c: c93c0c13     	addi	s8, s8, -0x36d
30001590: ccd50993     	addi	s3, a0, -0x333
30001594: 0100006f     	j	0x300015a4 <vprintf+0x78>
30001598: 00000493     	li	s1, 0x0
3000159c: 01748bb3     	add	s7, s1, s7
300015a0: 001c8913     	addi	s2, s9, 0x1
300015a4: 00094503     	lbu	a0, 0x0(s2)
300015a8: 01550c63     	beq	a0, s5, 0x300015c0 <vprintf+0x94>
300015ac: 44050a63     	beqz	a0, 0x30001a00 <vprintf+0x4d4>
300015b0: 00190913     	addi	s2, s2, 0x1
300015b4: 628000ef     	jal	0x30001bdc <sys_putchar>
300015b8: 001b8b93     	addi	s7, s7, 0x1
300015bc: fe9ff06f     	j	0x300015a4 <vprintf+0x78>
300015c0: 00194583     	lbu	a1, 0x1(s2)
300015c4: fdb58613     	addi	a2, a1, -0x25
300015c8: 00190c93     	addi	s9, s2, 0x1
300015cc: 06cd6a63     	bltu	s10, a2, 0x30001640 <vprintf+0x114>
300015d0: 00261613     	slli	a2, a2, 0x2
300015d4: 30005537     	lui	a0, 0x30005
300015d8: 95850513     	addi	a0, a0, -0x6a8
300015dc: 00c50633     	add	a2, a0, a2
300015e0: 00062503     	lw	a0, 0x0(a2)
300015e4: 00050067     	jr	a0
300015e8: 00042583     	lw	a1, 0x0(s0)
300015ec: 1e058063     	beqz	a1, 0x300017cc <vprintf+0x2a0>
300015f0: 00000513     	li	a0, 0x0
300015f4: 41f5d613     	srai	a2, a1, 0x1f
300015f8: 00c5c6b3     	xor	a3, a1, a2
300015fc: 40c686b3     	sub	a3, a3, a2
30001600: 02010613     	addi	a2, sp, 0x20
30001604: 00068713     	mv	a4, a3
30001608: 0336b7b3     	mulhu	a5, a3, s3
3000160c: 00150513     	addi	a0, a0, 0x1
30001610: 0037d693     	srli	a3, a5, 0x3
30001614: 0f87f793     	andi	a5, a5, 0xf8
30001618: 00169813     	slli	a6, a3, 0x1
3000161c: 40f707b3     	sub	a5, a4, a5
30001620: 410787b3     	sub	a5, a5, a6
30001624: 0307e793     	ori	a5, a5, 0x30
30001628: 00f60023     	sb	a5, 0x0(a2)
3000162c: 00160613     	addi	a2, a2, 0x1
30001630: fcedeae3     	bltu	s11, a4, 0x30001604 <vprintf+0xd8>
30001634: 1a05c463     	bltz	a1, 0x300017dc <vprintf+0x2b0>
30001638: 00000593     	li	a1, 0x0
3000163c: 1ac0006f     	j	0x300017e8 <vprintf+0x2bc>
30001640: f60588e3     	beqz	a1, 0x300015b0 <vprintf+0x84>
30001644: 02500513     	li	a0, 0x25
30001648: 594000ef     	jal	0x30001bdc <sys_putchar>
3000164c: 000cc503     	lbu	a0, 0x0(s9)
30001650: 58c000ef     	jal	0x30001bdc <sys_putchar>
30001654: 002b8b93     	addi	s7, s7, 0x2
30001658: 001c8913     	addi	s2, s9, 0x1
3000165c: f49ff06f     	j	0x300015a4 <vprintf+0x78>
30001660: 00042903     	lw	s2, 0x0(s0)
30001664: 03000513     	li	a0, 0x30
30001668: 574000ef     	jal	0x30001bdc <sys_putchar>
3000166c: 07800513     	li	a0, 0x78
30001670: 56c000ef     	jal	0x30001bdc <sys_putchar>
30001674: 1c090663     	beqz	s2, 0x30001840 <vprintf+0x314>
30001678: 00000513     	li	a0, 0x0
3000167c: 02010593     	addi	a1, sp, 0x20
30001680: 00f97613     	andi	a2, s2, 0xf
30001684: 00cc0633     	add	a2, s8, a2
30001688: 00064603     	lbu	a2, 0x0(a2)
3000168c: 00150513     	addi	a0, a0, 0x1
30001690: 00495913     	srli	s2, s2, 0x4
30001694: 00c58023     	sb	a2, 0x0(a1)
30001698: 00158593     	addi	a1, a1, 0x1
3000169c: fe0912e3     	bnez	s2, 0x30001680 <vprintf+0x154>
300016a0: 1ac0006f     	j	0x3000184c <vprintf+0x320>
300016a4: 00042583     	lw	a1, 0x0(s0)
300016a8: 20058063     	beqz	a1, 0x300018a8 <vprintf+0x37c>
300016ac: 00000513     	li	a0, 0x0
300016b0: 02010613     	addi	a2, sp, 0x20
300016b4: 00f5f693     	andi	a3, a1, 0xf
300016b8: 00dc06b3     	add	a3, s8, a3
300016bc: 0006c683     	lbu	a3, 0x0(a3)
300016c0: 00150513     	addi	a0, a0, 0x1
300016c4: 0045d593     	srli	a1, a1, 0x4
300016c8: 00d60023     	sb	a3, 0x0(a2)
300016cc: 00160613     	addi	a2, a2, 0x1
300016d0: fe0592e3     	bnez	a1, 0x300016b4 <vprintf+0x188>
300016d4: 1e00006f     	j	0x300018b4 <vprintf+0x388>
300016d8: 00044503     	lbu	a0, 0x0(s0)
300016dc: 00440413     	addi	s0, s0, 0x4
300016e0: 0480006f     	j	0x30001728 <vprintf+0x1fc>
300016e4: 000b0d13     	mv	s10, s6
300016e8: 00042503     	lw	a0, 0x0(s0)
300016ec: 30005b37     	lui	s6, 0x30005
300016f0: ca4b0b13     	addi	s6, s6, -0x35c
300016f4: 00050463     	beqz	a0, 0x300016fc <vprintf+0x1d0>
300016f8: 00050b13     	mv	s6, a0
300016fc: 000b4503     	lbu	a0, 0x0(s6)
30001700: 20050663     	beqz	a0, 0x3000190c <vprintf+0x3e0>
30001704: 00000493     	li	s1, 0x0
30001708: 009b0933     	add	s2, s6, s1
3000170c: 0ff57513     	zext.b	a0, a0
30001710: 4cc000ef     	jal	0x30001bdc <sys_putchar>
30001714: 00194503     	lbu	a0, 0x1(s2)
30001718: 00148493     	addi	s1, s1, 0x1
3000171c: fe0516e3     	bnez	a0, 0x30001708 <vprintf+0x1dc>
30001720: 1f00006f     	j	0x30001910 <vprintf+0x3e4>
30001724: 02500513     	li	a0, 0x25
30001728: 4b4000ef     	jal	0x30001bdc <sys_putchar>
3000172c: 001b8b93     	addi	s7, s7, 0x1
30001730: 001c8913     	addi	s2, s9, 0x1
30001734: e71ff06f     	j	0x300015a4 <vprintf+0x78>
30001738: 00042583     	lw	a1, 0x0(s0)
3000173c: 1e058663     	beqz	a1, 0x30001928 <vprintf+0x3fc>
30001740: 00000513     	li	a0, 0x0
30001744: 02010613     	addi	a2, sp, 0x20
30001748: 30005737     	lui	a4, 0x30005
3000174c: ab770713     	addi	a4, a4, -0x549
30001750: 00f5f693     	andi	a3, a1, 0xf
30001754: 00d706b3     	add	a3, a4, a3
30001758: 0006c683     	lbu	a3, 0x0(a3)
3000175c: 00150513     	addi	a0, a0, 0x1
30001760: 0045d593     	srli	a1, a1, 0x4
30001764: 00d60023     	sb	a3, 0x0(a2)
30001768: 00160613     	addi	a2, a2, 0x1
3000176c: fe0592e3     	bnez	a1, 0x30001750 <vprintf+0x224>
30001770: 1c40006f     	j	0x30001934 <vprintf+0x408>
30001774: 00042583     	lw	a1, 0x0(s0)
30001778: 20058a63     	beqz	a1, 0x3000198c <vprintf+0x460>
3000177c: 00000513     	li	a0, 0x0
30001780: 41f5d613     	srai	a2, a1, 0x1f
30001784: 00c5c6b3     	xor	a3, a1, a2
30001788: 40c686b3     	sub	a3, a3, a2
3000178c: 02010613     	addi	a2, sp, 0x20
30001790: 00068713     	mv	a4, a3
30001794: 0336b7b3     	mulhu	a5, a3, s3
30001798: 00150513     	addi	a0, a0, 0x1
3000179c: 0037d693     	srli	a3, a5, 0x3
300017a0: 0f87f793     	andi	a5, a5, 0xf8
300017a4: 00169813     	slli	a6, a3, 0x1
300017a8: 40f707b3     	sub	a5, a4, a5
300017ac: 410787b3     	sub	a5, a5, a6
300017b0: 0307e793     	ori	a5, a5, 0x30
300017b4: 00f60023     	sb	a5, 0x0(a2)
300017b8: 00160613     	addi	a2, a2, 0x1
300017bc: fcedeae3     	bltu	s11, a4, 0x30001790 <vprintf+0x264>
300017c0: 1c05ce63     	bltz	a1, 0x3000199c <vprintf+0x470>
300017c4: 00000593     	li	a1, 0x0
300017c8: 1e00006f     	j	0x300019a8 <vprintf+0x47c>
300017cc: 03000513     	li	a0, 0x30
300017d0: 02a10023     	sb	a0, 0x20(sp)
300017d4: 00100513     	li	a0, 0x1
300017d8: 0100006f     	j	0x300017e8 <vprintf+0x2bc>
300017dc: 02d00593     	li	a1, 0x2d
300017e0: 00b10023     	sb	a1, 0x0(sp)
300017e4: 00100593     	li	a1, 0x1
300017e8: 00440413     	addi	s0, s0, 0x4
300017ec: 00a586b3     	add	a3, a1, a0
300017f0: 00010713     	mv	a4, sp
300017f4: 00b705b3     	add	a1, a4, a1
300017f8: 00ab0633     	add	a2, s6, a0
300017fc: 00d70533     	add	a0, a4, a3
30001800: 00064683     	lbu	a3, 0x0(a2)
30001804: 00d58023     	sb	a3, 0x0(a1)
30001808: 00158593     	addi	a1, a1, 0x1
3000180c: fff60613     	addi	a2, a2, -0x1
30001810: fea598e3     	bne	a1, a0, 0x30001800 <vprintf+0x2d4>
30001814: 00050023     	sb	zero, 0x0(a0)
30001818: 00014503     	lbu	a0, 0x0(sp)
3000181c: d6050ee3     	beqz	a0, 0x30001598 <vprintf+0x6c>
30001820: 00000493     	li	s1, 0x0
30001824: 009a0933     	add	s2, s4, s1
30001828: 0ff57513     	zext.b	a0, a0
3000182c: 3b0000ef     	jal	0x30001bdc <sys_putchar>
30001830: 00094503     	lbu	a0, 0x0(s2)
30001834: 00148493     	addi	s1, s1, 0x1
30001838: fe0516e3     	bnez	a0, 0x30001824 <vprintf+0x2f8>
3000183c: d61ff06f     	j	0x3000159c <vprintf+0x70>
30001840: 03000513     	li	a0, 0x30
30001844: 02a10023     	sb	a0, 0x20(sp)
30001848: 00100513     	li	a0, 0x1
3000184c: 00440413     	addi	s0, s0, 0x4
30001850: 002b8493     	addi	s1, s7, 0x2
30001854: 00ab05b3     	add	a1, s6, a0
30001858: 00010613     	mv	a2, sp
3000185c: 00a606b3     	add	a3, a2, a0
30001860: 0005c703     	lbu	a4, 0x0(a1)
30001864: 00e60023     	sb	a4, 0x0(a2)
30001868: 00160613     	addi	a2, a2, 0x1
3000186c: fff58593     	addi	a1, a1, -0x1
30001870: fed618e3     	bne	a2, a3, 0x30001860 <vprintf+0x334>
30001874: 00014583     	lbu	a1, 0x0(sp)
30001878: 00010613     	mv	a2, sp
3000187c: 00a60533     	add	a0, a2, a0
30001880: 00050023     	sb	zero, 0x0(a0)
30001884: 00000b93     	li	s7, 0x0
30001888: d0058ae3     	beqz	a1, 0x3000159c <vprintf+0x70>
3000188c: 017a0933     	add	s2, s4, s7
30001890: 0ff5f513     	zext.b	a0, a1
30001894: 348000ef     	jal	0x30001bdc <sys_putchar>
30001898: 00094583     	lbu	a1, 0x0(s2)
3000189c: 001b8b93     	addi	s7, s7, 0x1
300018a0: fe0596e3     	bnez	a1, 0x3000188c <vprintf+0x360>
300018a4: cf9ff06f     	j	0x3000159c <vprintf+0x70>
300018a8: 03000513     	li	a0, 0x30
300018ac: 02a10023     	sb	a0, 0x20(sp)
300018b0: 00100513     	li	a0, 0x1
300018b4: 00440413     	addi	s0, s0, 0x4
300018b8: 00ab05b3     	add	a1, s6, a0
300018bc: 00010613     	mv	a2, sp
300018c0: 00a606b3     	add	a3, a2, a0
300018c4: 0005c703     	lbu	a4, 0x0(a1)
300018c8: 00e60023     	sb	a4, 0x0(a2)
300018cc: 00160613     	addi	a2, a2, 0x1
300018d0: fff58593     	addi	a1, a1, -0x1
300018d4: fed618e3     	bne	a2, a3, 0x300018c4 <vprintf+0x398>
300018d8: 00014583     	lbu	a1, 0x0(sp)
300018dc: 00010613     	mv	a2, sp
300018e0: 00a60533     	add	a0, a2, a0
300018e4: 00050023     	sb	zero, 0x0(a0)
300018e8: 00000493     	li	s1, 0x0
300018ec: ca0588e3     	beqz	a1, 0x3000159c <vprintf+0x70>
300018f0: 009a0933     	add	s2, s4, s1
300018f4: 0ff5f513     	zext.b	a0, a1
300018f8: 2e4000ef     	jal	0x30001bdc <sys_putchar>
300018fc: 00094583     	lbu	a1, 0x0(s2)
30001900: 00148493     	addi	s1, s1, 0x1
30001904: fe0596e3     	bnez	a1, 0x300018f0 <vprintf+0x3c4>
30001908: c95ff06f     	j	0x3000159c <vprintf+0x70>
3000190c: 00000493     	li	s1, 0x0
30001910: 00440413     	addi	s0, s0, 0x4
30001914: 01748bb3     	add	s7, s1, s7
30001918: 001c8913     	addi	s2, s9, 0x1
3000191c: 000d0b13     	mv	s6, s10
30001920: 05300d13     	li	s10, 0x53
30001924: c81ff06f     	j	0x300015a4 <vprintf+0x78>
30001928: 03000513     	li	a0, 0x30
3000192c: 02a10023     	sb	a0, 0x20(sp)
30001930: 00100513     	li	a0, 0x1
30001934: 00440413     	addi	s0, s0, 0x4
30001938: 00ab05b3     	add	a1, s6, a0
3000193c: 00010613     	mv	a2, sp
30001940: 00a606b3     	add	a3, a2, a0
30001944: 0005c703     	lbu	a4, 0x0(a1)
30001948: 00e60023     	sb	a4, 0x0(a2)
3000194c: 00160613     	addi	a2, a2, 0x1
30001950: fff58593     	addi	a1, a1, -0x1
30001954: fed618e3     	bne	a2, a3, 0x30001944 <vprintf+0x418>
30001958: 00014583     	lbu	a1, 0x0(sp)
3000195c: 00010613     	mv	a2, sp
30001960: 00a60533     	add	a0, a2, a0
30001964: 00050023     	sb	zero, 0x0(a0)
30001968: 00000493     	li	s1, 0x0
3000196c: c20588e3     	beqz	a1, 0x3000159c <vprintf+0x70>
30001970: 009a0933     	add	s2, s4, s1
30001974: 0ff5f513     	zext.b	a0, a1
30001978: 264000ef     	jal	0x30001bdc <sys_putchar>
3000197c: 00094583     	lbu	a1, 0x0(s2)
30001980: 00148493     	addi	s1, s1, 0x1
30001984: fe0596e3     	bnez	a1, 0x30001970 <vprintf+0x444>
30001988: c15ff06f     	j	0x3000159c <vprintf+0x70>
3000198c: 03000513     	li	a0, 0x30
30001990: 02a10023     	sb	a0, 0x20(sp)
30001994: 00100513     	li	a0, 0x1
30001998: 0100006f     	j	0x300019a8 <vprintf+0x47c>
3000199c: 02d00593     	li	a1, 0x2d
300019a0: 00b10023     	sb	a1, 0x0(sp)
300019a4: 00100593     	li	a1, 0x1
300019a8: 00440413     	addi	s0, s0, 0x4
300019ac: 00a586b3     	add	a3, a1, a0
300019b0: 00010713     	mv	a4, sp
300019b4: 00b705b3     	add	a1, a4, a1
300019b8: 00ab0633     	add	a2, s6, a0
300019bc: 00d70533     	add	a0, a4, a3
300019c0: 00064683     	lbu	a3, 0x0(a2)
300019c4: 00d58023     	sb	a3, 0x0(a1)
300019c8: 00158593     	addi	a1, a1, 0x1
300019cc: fff60613     	addi	a2, a2, -0x1
300019d0: fea598e3     	bne	a1, a0, 0x300019c0 <vprintf+0x494>
300019d4: 00050023     	sb	zero, 0x0(a0)
300019d8: 00014503     	lbu	a0, 0x0(sp)
300019dc: ba050ee3     	beqz	a0, 0x30001598 <vprintf+0x6c>
300019e0: 00000493     	li	s1, 0x0
300019e4: 009a0933     	add	s2, s4, s1
300019e8: 0ff57513     	zext.b	a0, a0
300019ec: 1f0000ef     	jal	0x30001bdc <sys_putchar>
300019f0: 00094503     	lbu	a0, 0x0(s2)
300019f4: 00148493     	addi	s1, s1, 0x1
300019f8: fe0516e3     	bnez	a0, 0x300019e4 <vprintf+0x4b8>
300019fc: ba1ff06f     	j	0x3000159c <vprintf+0x70>
30001a00: 000b8513     	mv	a0, s7
30001a04: 05c12083     	lw	ra, 0x5c(sp)
30001a08: 05812403     	lw	s0, 0x58(sp)
30001a0c: 05412483     	lw	s1, 0x54(sp)
30001a10: 05012903     	lw	s2, 0x50(sp)
30001a14: 04c12983     	lw	s3, 0x4c(sp)
30001a18: 04812a03     	lw	s4, 0x48(sp)
30001a1c: 04412a83     	lw	s5, 0x44(sp)
30001a20: 04012b03     	lw	s6, 0x40(sp)
30001a24: 03c12b83     	lw	s7, 0x3c(sp)
30001a28: 03812c03     	lw	s8, 0x38(sp)
30001a2c: 03412c83     	lw	s9, 0x34(sp)
30001a30: 03012d03     	lw	s10, 0x30(sp)
30001a34: 02c12d83     	lw	s11, 0x2c(sp)
30001a38: 06010113     	addi	sp, sp, 0x60
30001a3c: 00008067     	ret

30001a40 <printf>:
30001a40: fd010113     	addi	sp, sp, -0x30
30001a44: 00112623     	sw	ra, 0xc(sp)
30001a48: 02f12223     	sw	a5, 0x24(sp)
30001a4c: 03012423     	sw	a6, 0x28(sp)
30001a50: 03112623     	sw	a7, 0x2c(sp)
30001a54: 00b12a23     	sw	a1, 0x14(sp)
30001a58: 00c12c23     	sw	a2, 0x18(sp)
30001a5c: 00d12e23     	sw	a3, 0x1c(sp)
30001a60: 02e12023     	sw	a4, 0x20(sp)
30001a64: 01410593     	addi	a1, sp, 0x14
30001a68: 00b12423     	sw	a1, 0x8(sp)
30001a6c: ac1ff0ef     	jal	0x3000152c <vprintf>
30001a70: 00c12083     	lw	ra, 0xc(sp)
30001a74: 03010113     	addi	sp, sp, 0x30
30001a78: 00008067     	ret

30001a7c <__divsi3>:
30001a7c: 06054063     	bltz	a0, 0x30001adc <__umodsi3+0x10>
30001a80: 0605c663     	bltz	a1, 0x30001aec <__umodsi3+0x20>

30001a84 <__udivsi3>:
30001a84: 00058613     	mv	a2, a1
30001a88: 00050593     	mv	a1, a0
30001a8c: fff00513     	li	a0, -0x1
30001a90: 02060c63     	beqz	a2, 0x30001ac8 <__udivsi3+0x44>
30001a94: 00100693     	li	a3, 0x1
30001a98: 00b67a63     	bgeu	a2, a1, 0x30001aac <__udivsi3+0x28>
30001a9c: 00c05863     	blez	a2, 0x30001aac <__udivsi3+0x28>
30001aa0: 00161613     	slli	a2, a2, 0x1
30001aa4: 00169693     	slli	a3, a3, 0x1
30001aa8: feb66ae3     	bltu	a2, a1, 0x30001a9c <__udivsi3+0x18>
30001aac: 00000513     	li	a0, 0x0
30001ab0: 00c5e663     	bltu	a1, a2, 0x30001abc <__udivsi3+0x38>
30001ab4: 40c585b3     	sub	a1, a1, a2
30001ab8: 00d56533     	or	a0, a0, a3
30001abc: 0016d693     	srli	a3, a3, 0x1
30001ac0: 00165613     	srli	a2, a2, 0x1
30001ac4: fe0696e3     	bnez	a3, 0x30001ab0 <__udivsi3+0x2c>
30001ac8: 00008067     	ret

30001acc <__umodsi3>:
30001acc: 00008293     	mv	t0, ra
30001ad0: fb5ff0ef     	jal	0x30001a84 <__udivsi3>
30001ad4: 00058513     	mv	a0, a1
30001ad8: 00028067     	jr	t0
30001adc: 40a00533     	neg	a0, a0
30001ae0: 00b04863     	bgtz	a1, 0x30001af0 <__umodsi3+0x24>
30001ae4: 40b005b3     	neg	a1, a1
30001ae8: f9dff06f     	j	0x30001a84 <__udivsi3>
30001aec: 40b005b3     	neg	a1, a1
30001af0: 00008293     	mv	t0, ra
30001af4: f91ff0ef     	jal	0x30001a84 <__udivsi3>
30001af8: 40a00533     	neg	a0, a0
30001afc: 00028067     	jr	t0

30001b00 <__modsi3>:
30001b00: 00008293     	mv	t0, ra
30001b04: 0005ca63     	bltz	a1, 0x30001b18 <__modsi3+0x18>
30001b08: 00054c63     	bltz	a0, 0x30001b20 <__modsi3+0x20>
30001b0c: f79ff0ef     	jal	0x30001a84 <__udivsi3>
30001b10: 00058513     	mv	a0, a1
30001b14: 00028067     	jr	t0
30001b18: 40b005b3     	neg	a1, a1
30001b1c: fe0558e3     	bgez	a0, 0x30001b0c <__modsi3+0xc>
30001b20: 40a00533     	neg	a0, a0
30001b24: f61ff0ef     	jal	0x30001a84 <__udivsi3>
30001b28: 40b00533     	neg	a0, a1
30001b2c: 00028067     	jr	t0

30001b30 <__muldi3>:
30001b30: 00050613     	mv	a2, a0
30001b34: 00000513     	li	a0, 0x0
30001b38: 0015f693     	andi	a3, a1, 0x1
30001b3c: 00068463     	beqz	a3, 0x30001b44 <__muldi3+0x14>
30001b40: 00c50533     	add	a0, a0, a2
30001b44: 0015d593     	srli	a1, a1, 0x1
30001b48: 00161613     	slli	a2, a2, 0x1
30001b4c: fe0596e3     	bnez	a1, 0x30001b38 <__muldi3+0x8>
30001b50: 00008067     	ret

30001b54 <__mulsi3>:
30001b54: 00000613     	li	a2, 0x0
30001b58: 02050063     	beqz	a0, 0x30001b78 <__mulsi3+0x24>
30001b5c: 01f51693     	slli	a3, a0, 0x1f
30001b60: 00155513     	srli	a0, a0, 0x1
30001b64: 41f6d693     	srai	a3, a3, 0x1f
30001b68: 00b6f6b3     	and	a3, a3, a1
30001b6c: 00c68633     	add	a2, a3, a2
30001b70: 00159593     	slli	a1, a1, 0x1
30001b74: fe0514e3     	bnez	a0, 0x30001b5c <__mulsi3+0x8>
30001b78: 00060513     	mv	a0, a2
30001b7c: 00008067     	ret

30001b80 <__lshrdi3>:
30001b80: 04060463     	beqz	a2, 0x30001bc8 <__lshrdi3+0x48>
30001b84: 03f00693     	li	a3, 0x3f
30001b88: 00c6d863     	bge	a3, a2, 0x30001b98 <__lshrdi3+0x18>
30001b8c: 00000513     	li	a0, 0x0
30001b90: 00000593     	li	a1, 0x0
30001b94: 00008067     	ret
30001b98: fe060713     	addi	a4, a2, -0x20
30001b9c: 00c5d6b3     	srl	a3, a1, a2
30001ba0: 00074663     	bltz	a4, 0x30001bac <__lshrdi3+0x2c>
30001ba4: 00068513     	mv	a0, a3
30001ba8: 0180006f     	j	0x30001bc0 <__lshrdi3+0x40>
30001bac: 00c55533     	srl	a0, a0, a2
30001bb0: fff64613     	not	a2, a2
30001bb4: 00159593     	slli	a1, a1, 0x1
30001bb8: 00c595b3     	sll	a1, a1, a2
30001bbc: 00b56533     	or	a0, a0, a1
30001bc0: 41f75593     	srai	a1, a4, 0x1f
30001bc4: 00d5f5b3     	and	a1, a1, a3
30001bc8: 00008067     	ret

30001bcc <sys_uart_init>:
30001bcc: 03000537     	lui	a0, 0x3000
30001bd0: 27100593     	li	a1, 0x271
30001bd4: 00b52823     	sw	a1, 0x10(a0)
30001bd8: 00008067     	ret

30001bdc <sys_putchar>:
30001bdc: 030005b7     	lui	a1, 0x3000
30001be0: 00a5aa23     	sw	a0, 0x14(a1)
30001be4: 00008067     	ret

30001be8 <gpio_config>:
30001be8: 0e050a63     	beqz	a0, 0x30001cdc <gpio_config+0xf4>
30001bec: fd010113     	addi	sp, sp, -0x30
30001bf0: 02112623     	sw	ra, 0x2c(sp)
30001bf4: 02812423     	sw	s0, 0x28(sp)
30001bf8: 02912223     	sw	s1, 0x24(sp)
30001bfc: 03212023     	sw	s2, 0x20(sp)
30001c00: 01312e23     	sw	s3, 0x1c(sp)
30001c04: 01412c23     	sw	s4, 0x18(sp)
30001c08: 01512a23     	sw	s5, 0x14(sp)
30001c0c: 01612823     	sw	s6, 0x10(sp)
30001c10: 01712623     	sw	s7, 0xc(sp)
30001c14: 01812423     	sw	s8, 0x8(sp)
30001c18: 01912223     	sw	s9, 0x4(sp)
30001c1c: 00050413     	mv	s0, a0
30001c20: 00000493     	li	s1, 0x0
30001c24: 03000ab7     	lui	s5, 0x3000
30001c28: 00052b03     	lw	s6, 0x0(a0)
30001c2c: 00100b93     	li	s7, 0x1
30001c30: 01000c13     	li	s8, 0x10
30001c34: 30005937     	lui	s2, 0x30005
30001c38: b3190913     	addi	s2, s2, -0x4cf
30001c3c: 300059b7     	lui	s3, 0x30005
30001c40: b5798993     	addi	s3, s3, -0x4a9
30001c44: 30005a37     	lui	s4, 0x30005
30001c48: b6ba0a13     	addi	s4, s4, -0x495
30001c4c: 0340006f     	j	0x30001c80 <gpio_config+0x98>
30001c50: 000a0513     	mv	a0, s4
30001c54: 00048593     	mv	a1, s1
30001c58: de9ff0ef     	jal	0x30001a40 <printf>
30001c5c: 004aa503     	lw	a0, 0x4(s5)
30001c60: fffcc593     	not	a1, s9
30001c64: 00b57533     	and	a0, a0, a1
30001c68: 00aaa223     	sw	a0, 0x4(s5)
30001c6c: 004aa583     	lw	a1, 0x4(s5)
30001c70: 00098513     	mv	a0, s3
30001c74: dcdff0ef     	jal	0x30001a40 <printf>
30001c78: 00148493     	addi	s1, s1, 0x1
30001c7c: 03848863     	beq	s1, s8, 0x30001cac <gpio_config+0xc4>
30001c80: 009b9cb3     	sll	s9, s7, s1
30001c84: 016cf533     	and	a0, s9, s6
30001c88: fe0508e3     	beqz	a0, 0x30001c78 <gpio_config+0x90>
30001c8c: 00442503     	lw	a0, 0x4(s0)
30001c90: fc0510e3     	bnez	a0, 0x30001c50 <gpio_config+0x68>
30001c94: 00090513     	mv	a0, s2
30001c98: 00048593     	mv	a1, s1
30001c9c: da5ff0ef     	jal	0x30001a40 <printf>
30001ca0: 004aa503     	lw	a0, 0x4(s5)
30001ca4: 01956533     	or	a0, a0, s9
30001ca8: fc1ff06f     	j	0x30001c68 <gpio_config+0x80>
30001cac: 02c12083     	lw	ra, 0x2c(sp)
30001cb0: 02812403     	lw	s0, 0x28(sp)
30001cb4: 02412483     	lw	s1, 0x24(sp)
30001cb8: 02012903     	lw	s2, 0x20(sp)
30001cbc: 01c12983     	lw	s3, 0x1c(sp)
30001cc0: 01812a03     	lw	s4, 0x18(sp)
30001cc4: 01412a83     	lw	s5, 0x14(sp)
30001cc8: 01012b03     	lw	s6, 0x10(sp)
30001ccc: 00c12b83     	lw	s7, 0xc(sp)
30001cd0: 00812c03     	lw	s8, 0x8(sp)
30001cd4: 00412c83     	lw	s9, 0x4(sp)
30001cd8: 03010113     	addi	sp, sp, 0x30
30001cdc: 00008067     	ret

30001ce0 <gpio_set_level>:
30001ce0: 00100613     	li	a2, 0x1
30001ce4: 00a61533     	sll	a0, a2, a0
30001ce8: 00c59e63     	bne	a1, a2, 0x30001d04 <gpio_set_level+0x24>
30001cec: 030005b7     	lui	a1, 0x3000
30001cf0: 0005a583     	lw	a1, 0x0(a1)
30001cf4: 00a5e533     	or	a0, a1, a0
30001cf8: 030005b7     	lui	a1, 0x3000
30001cfc: 00a5a023     	sw	a0, 0x0(a1)
30001d00: 00008067     	ret
30001d04: 030005b7     	lui	a1, 0x3000
30001d08: 0005a583     	lw	a1, 0x0(a1)
30001d0c: fff54513     	not	a0, a0
30001d10: 00a5f533     	and	a0, a1, a0
30001d14: 030005b7     	lui	a1, 0x3000
30001d18: 00a5a023     	sw	a0, 0x0(a1)
30001d1c: 00008067     	ret

30001d20 <gpio_get_level>:
30001d20: 030005b7     	lui	a1, 0x3000
30001d24: 0005a583     	lw	a1, 0x0(a1)
30001d28: 00a5d533     	srl	a0, a1, a0
30001d2c: 00157513     	andi	a0, a0, 0x1
30001d30: 00008067     	ret

30001d34 <qspi_init>:
30001d34: ff010113     	addi	sp, sp, -0x10
30001d38: 00112623     	sw	ra, 0xc(sp)
30001d3c: 00812423     	sw	s0, 0x8(sp)
30001d40: 03007437     	lui	s0, 0x3007
30001d44: 01000593     	li	a1, 0x10
30001d48: 00b42023     	sw	a1, 0x0(s0)
30001d4c: 00042023     	sw	zero, 0x0(s0)
30001d50: 02042223     	sw	zero, 0x24(s0)
30001d54: 00042a23     	sw	zero, 0x14(s0)
30001d58: 00052503     	lw	a0, 0x0(a0)
30001d5c: 00a42223     	sw	a0, 0x4(s0)
30001d60: 00042583     	lw	a1, 0x0(s0)
30001d64: 30005537     	lui	a0, 0x30005
30001d68: b9b50513     	addi	a0, a0, -0x465
30001d6c: cd5ff0ef     	jal	0x30001a40 <printf>
30001d70: 02442583     	lw	a1, 0x24(s0)
30001d74: 30005537     	lui	a0, 0x30005
30001d78: c5650513     	addi	a0, a0, -0x3aa
30001d7c: cc5ff0ef     	jal	0x30001a40 <printf>
30001d80: 01442583     	lw	a1, 0x14(s0)
30001d84: 30005537     	lui	a0, 0x30005
30001d88: cab50513     	addi	a0, a0, -0x355
30001d8c: cb5ff0ef     	jal	0x30001a40 <printf>
30001d90: 00442583     	lw	a1, 0x4(s0)
30001d94: 30005537     	lui	a0, 0x30005
30001d98: c6750513     	addi	a0, a0, -0x399
30001d9c: 00c12083     	lw	ra, 0xc(sp)
30001da0: 00812403     	lw	s0, 0x8(sp)
30001da4: 01010113     	addi	sp, sp, 0x10
30001da8: c99ff06f     	j	0x30001a40 <printf>

30001dac <qspi_write_8>:
30001dac: 01851593     	slli	a1, a0, 0x18
30001db0: 03007537     	lui	a0, 0x3007
30001db4: 00080637     	lui	a2, 0x80
30001db8: 00c52823     	sw	a2, 0x10(a0)
30001dbc: 10200613     	li	a2, 0x102
30001dc0: 00b52c23     	sw	a1, 0x18(a0)
30001dc4: 00c52023     	sw	a2, 0x0(a0)
30001dc8: 00100593     	li	a1, 0x1
30001dcc: 00052603     	lw	a2, 0x0(a0)
30001dd0: feb61ee3     	bne	a2, a1, 0x30001dcc <qspi_write_8+0x20>
30001dd4: 00008067     	ret

30001dd8 <qspi_write_16>:
30001dd8: 01051593     	slli	a1, a0, 0x10
30001ddc: 03007537     	lui	a0, 0x3007
30001de0: 00100637     	lui	a2, 0x100
30001de4: 00c52823     	sw	a2, 0x10(a0)
30001de8: 10200613     	li	a2, 0x102
30001dec: 00b52c23     	sw	a1, 0x18(a0)
30001df0: 00c52023     	sw	a2, 0x0(a0)
30001df4: 00100593     	li	a1, 0x1
30001df8: 00052603     	lw	a2, 0x0(a0)
30001dfc: feb61ee3     	bne	a2, a1, 0x30001df8 <qspi_write_16+0x20>
30001e00: 00008067     	ret

30001e04 <qspi_write_32>:
30001e04: 030075b7     	lui	a1, 0x3007
30001e08: 00200637     	lui	a2, 0x200
30001e0c: 00c5a823     	sw	a2, 0x10(a1)
30001e10: 10200613     	li	a2, 0x102
30001e14: 00a5ac23     	sw	a0, 0x18(a1)
30001e18: 00c5a023     	sw	a2, 0x0(a1)
30001e1c: 00100513     	li	a0, 0x1
30001e20: 0005a603     	lw	a2, 0x0(a1)
30001e24: fea61ee3     	bne	a2, a0, 0x30001e20 <qspi_write_32+0x1c>
30001e28: 00008067     	ret

30001e2c <qspi_write_32x2>:
30001e2c: 03007637     	lui	a2, 0x3007
30001e30: 004006b7     	lui	a3, 0x400
30001e34: 00d62823     	sw	a3, 0x10(a2)
30001e38: 10200693     	li	a3, 0x102
30001e3c: 00a62c23     	sw	a0, 0x18(a2)
30001e40: 00b62c23     	sw	a1, 0x18(a2)
30001e44: 00d62023     	sw	a3, 0x0(a2)
30001e48: 00100513     	li	a0, 0x1
30001e4c: 00062583     	lw	a1, 0x0(a2)
30001e50: fea59ee3     	bne	a1, a0, 0x30001e4c <qspi_write_32x2+0x20>
30001e54: 00008067     	ret

30001e58 <qspi_write_32x8>:
30001e58: 030072b7     	lui	t0, 0x3007
30001e5c: 01000337     	lui	t1, 0x1000
30001e60: 0062a823     	sw	t1, 0x10(t0)
30001e64: 10200313     	li	t1, 0x102
30001e68: 00a2ac23     	sw	a0, 0x18(t0)
30001e6c: 00b2ac23     	sw	a1, 0x18(t0)
30001e70: 00c2ac23     	sw	a2, 0x18(t0)
30001e74: 00d2ac23     	sw	a3, 0x18(t0)
30001e78: 00e2ac23     	sw	a4, 0x18(t0)
30001e7c: 00f2ac23     	sw	a5, 0x18(t0)
30001e80: 0102ac23     	sw	a6, 0x18(t0)
30001e84: 0112ac23     	sw	a7, 0x18(t0)
30001e88: 0062a023     	sw	t1, 0x0(t0)
30001e8c: 00100513     	li	a0, 0x1
30001e90: 0002a583     	lw	a1, 0x0(t0)
30001e94: fea59ee3     	bne	a1, a0, 0x30001e90 <qspi_write_32x8+0x38>
30001e98: 00008067     	ret

30001e9c <qspi_write_32x16>:
30001e9c: ff010113     	addi	sp, sp, -0x10
30001ea0: 00812623     	sw	s0, 0xc(sp)
30001ea4: 00912423     	sw	s1, 0x8(sp)
30001ea8: 01212223     	sw	s2, 0x4(sp)
30001eac: 02c12303     	lw	t1, 0x2c(sp)
30001eb0: 02812383     	lw	t2, 0x28(sp)
30001eb4: 02412e03     	lw	t3, 0x24(sp)
30001eb8: 02012e83     	lw	t4, 0x20(sp)
30001ebc: 01c12f03     	lw	t5, 0x1c(sp)
30001ec0: 01812f83     	lw	t6, 0x18(sp)
30001ec4: 01412403     	lw	s0, 0x14(sp)
30001ec8: 01012483     	lw	s1, 0x10(sp)
30001ecc: 030072b7     	lui	t0, 0x3007
30001ed0: 02000937     	lui	s2, 0x2000
30001ed4: 0122a823     	sw	s2, 0x10(t0)
30001ed8: 10200913     	li	s2, 0x102
30001edc: 00a2ac23     	sw	a0, 0x18(t0)
30001ee0: 00b2ac23     	sw	a1, 0x18(t0)
30001ee4: 00c2ac23     	sw	a2, 0x18(t0)
30001ee8: 00d2ac23     	sw	a3, 0x18(t0)
30001eec: 00e2ac23     	sw	a4, 0x18(t0)
30001ef0: 00f2ac23     	sw	a5, 0x18(t0)
30001ef4: 0102ac23     	sw	a6, 0x18(t0)
30001ef8: 0112ac23     	sw	a7, 0x18(t0)
30001efc: 0092ac23     	sw	s1, 0x18(t0)
30001f00: 0082ac23     	sw	s0, 0x18(t0)
30001f04: 01f2ac23     	sw	t6, 0x18(t0)
30001f08: 01e2ac23     	sw	t5, 0x18(t0)
30001f0c: 01d2ac23     	sw	t4, 0x18(t0)
30001f10: 01c2ac23     	sw	t3, 0x18(t0)
30001f14: 0072ac23     	sw	t2, 0x18(t0)
30001f18: 0062ac23     	sw	t1, 0x18(t0)
30001f1c: 0122a023     	sw	s2, 0x0(t0)
30001f20: 00100513     	li	a0, 0x1
30001f24: 0002a583     	lw	a1, 0x0(t0)
30001f28: fea59ee3     	bne	a1, a0, 0x30001f24 <qspi_write_32x16+0x88>
30001f2c: 00c12403     	lw	s0, 0xc(sp)
30001f30: 00812483     	lw	s1, 0x8(sp)
30001f34: 00412903     	lw	s2, 0x4(sp)
30001f38: 01010113     	addi	sp, sp, 0x10
30001f3c: 00008067     	ret

30001f40 <qspi_write_32x32>:
30001f40: 030072b7     	lui	t0, 0x3007
30001f44: 04000337     	lui	t1, 0x4000
30001f48: 0062a823     	sw	t1, 0x10(t0)
30001f4c: 00a2ac23     	sw	a0, 0x18(t0)
30001f50: 00b2ac23     	sw	a1, 0x18(t0)
30001f54: 00c2ac23     	sw	a2, 0x18(t0)
30001f58: 00d2ac23     	sw	a3, 0x18(t0)
30001f5c: 00e2ac23     	sw	a4, 0x18(t0)
30001f60: 05812503     	lw	a0, 0x58(sp)
30001f64: 00f2ac23     	sw	a5, 0x18(t0)
30001f68: 00012583     	lw	a1, 0x0(sp)
30001f6c: 0102ac23     	sw	a6, 0x18(t0)
30001f70: 00412603     	lw	a2, 0x4(sp)
30001f74: 0112ac23     	sw	a7, 0x18(t0)
30001f78: 00812683     	lw	a3, 0x8(sp)
30001f7c: 00b2ac23     	sw	a1, 0x18(t0)
30001f80: 00c12583     	lw	a1, 0xc(sp)
30001f84: 00c2ac23     	sw	a2, 0x18(t0)
30001f88: 01012603     	lw	a2, 0x10(sp)
30001f8c: 00d2ac23     	sw	a3, 0x18(t0)
30001f90: 01412683     	lw	a3, 0x14(sp)
30001f94: 00b2ac23     	sw	a1, 0x18(t0)
30001f98: 01812583     	lw	a1, 0x18(sp)
30001f9c: 00c2ac23     	sw	a2, 0x18(t0)
30001fa0: 01c12603     	lw	a2, 0x1c(sp)
30001fa4: 00d2ac23     	sw	a3, 0x18(t0)
30001fa8: 02012683     	lw	a3, 0x20(sp)
30001fac: 00b2ac23     	sw	a1, 0x18(t0)
30001fb0: 02412583     	lw	a1, 0x24(sp)
30001fb4: 00c2ac23     	sw	a2, 0x18(t0)
30001fb8: 02812603     	lw	a2, 0x28(sp)
30001fbc: 00d2ac23     	sw	a3, 0x18(t0)
30001fc0: 02c12683     	lw	a3, 0x2c(sp)
30001fc4: 00b2ac23     	sw	a1, 0x18(t0)
30001fc8: 03012583     	lw	a1, 0x30(sp)
30001fcc: 00c2ac23     	sw	a2, 0x18(t0)
30001fd0: 03412603     	lw	a2, 0x34(sp)
30001fd4: 00d2ac23     	sw	a3, 0x18(t0)
30001fd8: 03812683     	lw	a3, 0x38(sp)
30001fdc: 00b2ac23     	sw	a1, 0x18(t0)
30001fe0: 03c12583     	lw	a1, 0x3c(sp)
30001fe4: 00c2ac23     	sw	a2, 0x18(t0)
30001fe8: 04012603     	lw	a2, 0x40(sp)
30001fec: 00d2ac23     	sw	a3, 0x18(t0)
30001ff0: 04412683     	lw	a3, 0x44(sp)
30001ff4: 00b2ac23     	sw	a1, 0x18(t0)
30001ff8: 04812583     	lw	a1, 0x48(sp)
30001ffc: 00c2ac23     	sw	a2, 0x18(t0)
30002000: 04c12603     	lw	a2, 0x4c(sp)
30002004: 00d2ac23     	sw	a3, 0x18(t0)
30002008: 05012683     	lw	a3, 0x50(sp)
3000200c: 00b2ac23     	sw	a1, 0x18(t0)
30002010: 05412583     	lw	a1, 0x54(sp)
30002014: 00c2ac23     	sw	a2, 0x18(t0)
30002018: 05c12603     	lw	a2, 0x5c(sp)
3000201c: 00d2ac23     	sw	a3, 0x18(t0)
30002020: 00b2ac23     	sw	a1, 0x18(t0)
30002024: 00a2ac23     	sw	a0, 0x18(t0)
30002028: 00c2ac23     	sw	a2, 0x18(t0)
3000202c: 10200513     	li	a0, 0x102
30002030: 00a2a023     	sw	a0, 0x0(t0)
30002034: 00100513     	li	a0, 0x1
30002038: 0002a583     	lw	a1, 0x0(t0)
3000203c: fea59ee3     	bne	a1, a0, 0x30002038 <qspi_write_32x32+0xf8>
30002040: 00008067     	ret

30002044 <delay_us>:
30002044: 030005b7     	lui	a1, 0x3000
30002048: 10000613     	li	a2, 0x100
3000204c: 04c5ae23     	sw	a2, 0x5c(a1)
30002050: 00351613     	slli	a2, a0, 0x3
30002054: 00651513     	slli	a0, a0, 0x6
30002058: 00c50533     	add	a0, a0, a2
3000205c: 10100613     	li	a2, 0x101
30002060: fff50513     	addi	a0, a0, -0x1
30002064: 06a5a223     	sw	a0, 0x64(a1)
30002068: 04c5ae23     	sw	a2, 0x5c(a1)
3000206c: 0645a503     	lw	a0, 0x64(a1)
30002070: fe051ee3     	bnez	a0, 0x3000206c <delay_us+0x28>
30002074: 00008067     	ret

30002078 <delay_ms>:
30002078: 030005b7     	lui	a1, 0x3000
3000207c: 10000613     	li	a2, 0x100
30002080: 04c5ae23     	sw	a2, 0x5c(a1)
30002084: 00012637     	lui	a2, 0x12
30002088: 94060613     	addi	a2, a2, -0x6c0
3000208c: 02c50533     	mul	a0, a0, a2
30002090: 10100613     	li	a2, 0x101
30002094: fff50513     	addi	a0, a0, -0x1
30002098: 06a5a223     	sw	a0, 0x64(a1)
3000209c: 04c5ae23     	sw	a2, 0x5c(a1)
300020a0: 0645a503     	lw	a0, 0x64(a1)
300020a4: fe051ee3     	bnez	a0, 0x300020a0 <delay_ms+0x28>
300020a8: 00008067     	ret

300020ac <delay_s>:
300020ac: 030005b7     	lui	a1, 0x3000
300020b0: 10000613     	li	a2, 0x100
300020b4: 04c5ae23     	sw	a2, 0x5c(a1)
300020b8: 044aa637     	lui	a2, 0x44aa
300020bc: 20060613     	addi	a2, a2, 0x200
300020c0: 02c50533     	mul	a0, a0, a2
300020c4: 10100613     	li	a2, 0x101
300020c8: fff50513     	addi	a0, a0, -0x1
300020cc: 06a5a223     	sw	a0, 0x64(a1)
300020d0: 04c5ae23     	sw	a2, 0x5c(a1)
300020d4: 0645a503     	lw	a0, 0x64(a1)
300020d8: fe051ee3     	bnez	a0, 0x300020d4 <delay_s+0x28>
300020dc: 00008067     	ret

300020e0 <pwm_init>:
300020e0: 00052583     	lw	a1, 0x0(a0)
300020e4: 03004637     	lui	a2, 0x3004
300020e8: 00b62223     	sw	a1, 0x4(a2)
300020ec: 00452503     	lw	a0, 0x4(a0)
300020f0: 00300593     	li	a1, 0x3
300020f4: 00a62623     	sw	a0, 0xc(a2)
300020f8: 00b62023     	sw	a1, 0x0(a2)
300020fc: 00008067     	ret

30002100 <pwm_set_compare>:
30002100: 00100613     	li	a2, 0x1
30002104: 02a64063     	blt	a2, a0, 0x30002124 <pwm_set_compare+0x24>
30002108: 02050e63     	beqz	a0, 0x30002144 <pwm_set_compare+0x44>
3000210c: 00100613     	li	a2, 0x1
30002110: 02c51863     	bne	a0, a2, 0x30002140 <pwm_set_compare+0x40>
30002114: 03004537     	lui	a0, 0x3004
30002118: 01450513     	addi	a0, a0, 0x14
3000211c: 00b52023     	sw	a1, 0x0(a0)
30002120: 00008067     	ret
30002124: 00200613     	li	a2, 0x2
30002128: 02c50663     	beq	a0, a2, 0x30002154 <pwm_set_compare+0x54>
3000212c: 00300613     	li	a2, 0x3
30002130: 00c51863     	bne	a0, a2, 0x30002140 <pwm_set_compare+0x40>
30002134: 03004537     	lui	a0, 0x3004
30002138: 01c50513     	addi	a0, a0, 0x1c
3000213c: 00b52023     	sw	a1, 0x0(a0)
30002140: 00008067     	ret
30002144: 03004537     	lui	a0, 0x3004
30002148: 01050513     	addi	a0, a0, 0x10
3000214c: 00b52023     	sw	a1, 0x0(a0)
30002150: 00008067     	ret
30002154: 03004537     	lui	a0, 0x3004
30002158: 01850513     	addi	a0, a0, 0x18
3000215c: 00b52023     	sw	a1, 0x0(a0)
30002160: 00008067     	ret

30002164 <i2c_init>:
30002164: 030065b7     	lui	a1, 0x3006
30002168: 0005a023     	sw	zero, 0x0(a1)
3000216c: 00052503     	lw	a0, 0x0(a0)
30002170: 00a5a223     	sw	a0, 0x4(a1)
30002174: 08000513     	li	a0, 0x80
30002178: 00a5a023     	sw	a0, 0x0(a1)
3000217c: 00008067     	ret

30002180 <i2c_write_nbyte>:
30002180: fe010113     	addi	sp, sp, -0x20
30002184: 00112e23     	sw	ra, 0x1c(sp)
30002188: 00812c23     	sw	s0, 0x18(sp)
3000218c: 00912a23     	sw	s1, 0x14(sp)
30002190: 01212823     	sw	s2, 0x10(sp)
30002194: 01312623     	sw	s3, 0xc(sp)
30002198: 01412423     	sw	s4, 0x8(sp)
3000219c: 01512223     	sw	s5, 0x4(sp)
300021a0: 00070413     	mv	s0, a4
300021a4: 00068493     	mv	s1, a3
300021a8: 00060993     	mv	s3, a2
300021ac: 00058913     	mv	s2, a1
300021b0: 03006a37     	lui	s4, 0x3006
300021b4: 00151513     	slli	a0, a0, 0x1
300021b8: 00aa2423     	sw	a0, 0x8(s4)
300021bc: 09000513     	li	a0, 0x90
300021c0: 00aa2823     	sw	a0, 0x10(s4)
300021c4: 014a2503     	lw	a0, 0x14(s4)
300021c8: 00257513     	andi	a0, a0, 0x2
300021cc: fe050ce3     	beqz	a0, 0x300021c4 <i2c_write_nbyte+0x44>
300021d0: 014a2503     	lw	a0, 0x14(s4)
300021d4: 00257513     	andi	a0, a0, 0x2
300021d8: fe051ce3     	bnez	a0, 0x300021d0 <i2c_write_nbyte+0x50>
300021dc: 014a2503     	lw	a0, 0x14(s4)
300021e0: 08057513     	andi	a0, a0, 0x80
300021e4: 00050863     	beqz	a0, 0x300021f4 <i2c_write_nbyte+0x74>
300021e8: 30005537     	lui	a0, 0x30005
300021ec: b8250513     	addi	a0, a0, -0x47e
300021f0: 851ff0ef     	jal	0x30001a40 <printf>
300021f4: 00800513     	li	a0, 0x8
300021f8: 02a99863     	bne	s3, a0, 0x30002228 <i2c_write_nbyte+0xa8>
300021fc: 0ff97513     	zext.b	a0, s2
30002200: 00aa2423     	sw	a0, 0x8(s4)
30002204: 01000513     	li	a0, 0x10
30002208: 00aa2823     	sw	a0, 0x10(s4)
3000220c: 014a2503     	lw	a0, 0x14(s4)
30002210: 00257513     	andi	a0, a0, 0x2
30002214: fe050ce3     	beqz	a0, 0x3000220c <i2c_write_nbyte+0x8c>
30002218: 014a2503     	lw	a0, 0x14(s4)
3000221c: 00257513     	andi	a0, a0, 0x2
30002220: fe051ce3     	bnez	a0, 0x30002218 <i2c_write_nbyte+0x98>
30002224: 06c0006f     	j	0x30002290 <i2c_write_nbyte+0x110>
30002228: 00895513     	srli	a0, s2, 0x8
3000222c: 00aa2423     	sw	a0, 0x8(s4)
30002230: 01000513     	li	a0, 0x10
30002234: 00aa2823     	sw	a0, 0x10(s4)
30002238: 014a2503     	lw	a0, 0x14(s4)
3000223c: 00257513     	andi	a0, a0, 0x2
30002240: fe050ce3     	beqz	a0, 0x30002238 <i2c_write_nbyte+0xb8>
30002244: 014a2503     	lw	a0, 0x14(s4)
30002248: 00257513     	andi	a0, a0, 0x2
3000224c: fe051ce3     	bnez	a0, 0x30002244 <i2c_write_nbyte+0xc4>
30002250: 014a2503     	lw	a0, 0x14(s4)
30002254: 08057513     	andi	a0, a0, 0x80
30002258: 00050863     	beqz	a0, 0x30002268 <i2c_write_nbyte+0xe8>
3000225c: 30005537     	lui	a0, 0x30005
30002260: cb950513     	addi	a0, a0, -0x347
30002264: fdcff0ef     	jal	0x30001a40 <printf>
30002268: 0ff97513     	zext.b	a0, s2
3000226c: 00aa2423     	sw	a0, 0x8(s4)
30002270: 01000513     	li	a0, 0x10
30002274: 00aa2823     	sw	a0, 0x10(s4)
30002278: 014a2503     	lw	a0, 0x14(s4)
3000227c: 00257513     	andi	a0, a0, 0x2
30002280: fe050ce3     	beqz	a0, 0x30002278 <i2c_write_nbyte+0xf8>
30002284: 014a2503     	lw	a0, 0x14(s4)
30002288: 00257513     	andi	a0, a0, 0x2
3000228c: fe051ce3     	bnez	a0, 0x30002284 <i2c_write_nbyte+0x104>
30002290: 014a2503     	lw	a0, 0x14(s4)
30002294: 08057513     	andi	a0, a0, 0x80
30002298: 00050863     	beqz	a0, 0x300022a8 <i2c_write_nbyte+0x128>
3000229c: 30005537     	lui	a0, 0x30005
300022a0: cb950513     	addi	a0, a0, -0x347
300022a4: f9cff0ef     	jal	0x30001a40 <printf>
300022a8: 06040063     	beqz	s0, 0x30002308 <i2c_write_nbyte+0x188>
300022ac: 00000993     	li	s3, 0x0
300022b0: 01000a93     	li	s5, 0x10
300022b4: 30005937     	lui	s2, 0x30005
300022b8: cb990913     	addi	s2, s2, -0x347
300022bc: 00c0006f     	j	0x300022c8 <i2c_write_nbyte+0x148>
300022c0: 00198993     	addi	s3, s3, 0x1
300022c4: 04898263     	beq	s3, s0, 0x30002308 <i2c_write_nbyte+0x188>
300022c8: 01348533     	add	a0, s1, s3
300022cc: 00054503     	lbu	a0, 0x0(a0)
300022d0: 00aa2423     	sw	a0, 0x8(s4)
300022d4: 015a2823     	sw	s5, 0x10(s4)
300022d8: 014a2503     	lw	a0, 0x14(s4)
300022dc: 00257513     	andi	a0, a0, 0x2
300022e0: fe050ce3     	beqz	a0, 0x300022d8 <i2c_write_nbyte+0x158>
300022e4: 014a2503     	lw	a0, 0x14(s4)
300022e8: 00257513     	andi	a0, a0, 0x2
300022ec: fe051ce3     	bnez	a0, 0x300022e4 <i2c_write_nbyte+0x164>
300022f0: 014a2503     	lw	a0, 0x14(s4)
300022f4: 08057513     	andi	a0, a0, 0x80
300022f8: fc0504e3     	beqz	a0, 0x300022c0 <i2c_write_nbyte+0x140>
300022fc: 00090513     	mv	a0, s2
30002300: f40ff0ef     	jal	0x30001a40 <printf>
30002304: fbdff06f     	j	0x300022c0 <i2c_write_nbyte+0x140>
30002308: 04000513     	li	a0, 0x40
3000230c: 00aa2823     	sw	a0, 0x10(s4)
30002310: 014a2503     	lw	a0, 0x14(s4)
30002314: 04057513     	andi	a0, a0, 0x40
30002318: fe051ce3     	bnez	a0, 0x30002310 <i2c_write_nbyte+0x190>
3000231c: 01c12083     	lw	ra, 0x1c(sp)
30002320: 01812403     	lw	s0, 0x18(sp)
30002324: 01412483     	lw	s1, 0x14(sp)
30002328: 01012903     	lw	s2, 0x10(sp)
3000232c: 00c12983     	lw	s3, 0xc(sp)
30002330: 00812a03     	lw	s4, 0x8(sp)
30002334: 00412a83     	lw	s5, 0x4(sp)
30002338: 02010113     	addi	sp, sp, 0x20
3000233c: 00008067     	ret

30002340 <i2c_read_nbyte>:
30002340: fe010113     	addi	sp, sp, -0x20
30002344: 00112e23     	sw	ra, 0x1c(sp)
30002348: 00812c23     	sw	s0, 0x18(sp)
3000234c: 00912a23     	sw	s1, 0x14(sp)
30002350: 01212823     	sw	s2, 0x10(sp)
30002354: 01312623     	sw	s3, 0xc(sp)
30002358: 01412423     	sw	s4, 0x8(sp)
3000235c: 01512223     	sw	s5, 0x4(sp)
30002360: 00070413     	mv	s0, a4
30002364: 00068493     	mv	s1, a3
30002368: 00060993     	mv	s3, a2
3000236c: 00058913     	mv	s2, a1
30002370: 03006a37     	lui	s4, 0x3006
30002374: 00151a93     	slli	s5, a0, 0x1
30002378: 09000513     	li	a0, 0x90
3000237c: 015a2423     	sw	s5, 0x8(s4)
30002380: 00aa2823     	sw	a0, 0x10(s4)
30002384: 014a2503     	lw	a0, 0x14(s4)
30002388: 00257513     	andi	a0, a0, 0x2
3000238c: fe050ce3     	beqz	a0, 0x30002384 <i2c_read_nbyte+0x44>
30002390: 014a2503     	lw	a0, 0x14(s4)
30002394: 00257513     	andi	a0, a0, 0x2
30002398: fe051ce3     	bnez	a0, 0x30002390 <i2c_read_nbyte+0x50>
3000239c: 014a2503     	lw	a0, 0x14(s4)
300023a0: 08057513     	andi	a0, a0, 0x80
300023a4: 00050863     	beqz	a0, 0x300023b4 <i2c_read_nbyte+0x74>
300023a8: 30005537     	lui	a0, 0x30005
300023ac: b8250513     	addi	a0, a0, -0x47e
300023b0: e90ff0ef     	jal	0x30001a40 <printf>
300023b4: 00800513     	li	a0, 0x8
300023b8: 02a99863     	bne	s3, a0, 0x300023e8 <i2c_read_nbyte+0xa8>
300023bc: 0ff97513     	zext.b	a0, s2
300023c0: 00aa2423     	sw	a0, 0x8(s4)
300023c4: 01000513     	li	a0, 0x10
300023c8: 00aa2823     	sw	a0, 0x10(s4)
300023cc: 014a2503     	lw	a0, 0x14(s4)
300023d0: 00257513     	andi	a0, a0, 0x2
300023d4: fe050ce3     	beqz	a0, 0x300023cc <i2c_read_nbyte+0x8c>
300023d8: 014a2503     	lw	a0, 0x14(s4)
300023dc: 00257513     	andi	a0, a0, 0x2
300023e0: fe051ce3     	bnez	a0, 0x300023d8 <i2c_read_nbyte+0x98>
300023e4: 06c0006f     	j	0x30002450 <i2c_read_nbyte+0x110>
300023e8: 00895513     	srli	a0, s2, 0x8
300023ec: 00aa2423     	sw	a0, 0x8(s4)
300023f0: 01000513     	li	a0, 0x10
300023f4: 00aa2823     	sw	a0, 0x10(s4)
300023f8: 014a2503     	lw	a0, 0x14(s4)
300023fc: 00257513     	andi	a0, a0, 0x2
30002400: fe050ce3     	beqz	a0, 0x300023f8 <i2c_read_nbyte+0xb8>
30002404: 014a2503     	lw	a0, 0x14(s4)
30002408: 00257513     	andi	a0, a0, 0x2
3000240c: fe051ce3     	bnez	a0, 0x30002404 <i2c_read_nbyte+0xc4>
30002410: 014a2503     	lw	a0, 0x14(s4)
30002414: 08057513     	andi	a0, a0, 0x80
30002418: 00050863     	beqz	a0, 0x30002428 <i2c_read_nbyte+0xe8>
3000241c: 30005537     	lui	a0, 0x30005
30002420: cb950513     	addi	a0, a0, -0x347
30002424: e1cff0ef     	jal	0x30001a40 <printf>
30002428: 0ff97513     	zext.b	a0, s2
3000242c: 00aa2423     	sw	a0, 0x8(s4)
30002430: 01000513     	li	a0, 0x10
30002434: 00aa2823     	sw	a0, 0x10(s4)
30002438: 014a2503     	lw	a0, 0x14(s4)
3000243c: 00257513     	andi	a0, a0, 0x2
30002440: fe050ce3     	beqz	a0, 0x30002438 <i2c_read_nbyte+0xf8>
30002444: 014a2503     	lw	a0, 0x14(s4)
30002448: 00257513     	andi	a0, a0, 0x2
3000244c: fe051ce3     	bnez	a0, 0x30002444 <i2c_read_nbyte+0x104>
30002450: 014a2503     	lw	a0, 0x14(s4)
30002454: 08057513     	andi	a0, a0, 0x80
30002458: 00050863     	beqz	a0, 0x30002468 <i2c_read_nbyte+0x128>
3000245c: 30005537     	lui	a0, 0x30005
30002460: cb950513     	addi	a0, a0, -0x347
30002464: ddcff0ef     	jal	0x30001a40 <printf>
30002468: 04000513     	li	a0, 0x40
3000246c: 00aa2823     	sw	a0, 0x10(s4)
30002470: 014a2503     	lw	a0, 0x14(s4)
30002474: 04057513     	andi	a0, a0, 0x40
30002478: fe051ce3     	bnez	a0, 0x30002470 <i2c_read_nbyte+0x130>
3000247c: 001a8a93     	addi	s5, s5, 0x1
30002480: 09000513     	li	a0, 0x90
30002484: 015a2423     	sw	s5, 0x8(s4)
30002488: 00aa2823     	sw	a0, 0x10(s4)
3000248c: 014a2583     	lw	a1, 0x14(s4)
30002490: 0025f593     	andi	a1, a1, 0x2
30002494: fe058ce3     	beqz	a1, 0x3000248c <i2c_read_nbyte+0x14c>
30002498: 014a2583     	lw	a1, 0x14(s4)
3000249c: 0025f593     	andi	a1, a1, 0x2
300024a0: fe059ce3     	bnez	a1, 0x30002498 <i2c_read_nbyte+0x158>
300024a4: 014a2583     	lw	a1, 0x14(s4)
300024a8: 0805f593     	andi	a1, a1, 0x80
300024ac: fc059ce3     	bnez	a1, 0x30002484 <i2c_read_nbyte+0x144>
300024b0: 06040863     	beqz	s0, 0x30002520 <i2c_read_nbyte+0x1e0>
300024b4: 00000993     	li	s3, 0x0
300024b8: fff40a93     	addi	s5, s0, -0x1
300024bc: 30005937     	lui	s2, 0x30005
300024c0: c1c90913     	addi	s2, s2, -0x3e4
300024c4: 0180006f     	j	0x300024dc <i2c_read_nbyte+0x19c>
300024c8: 00ca2503     	lw	a0, 0xc(s4)
300024cc: 013485b3     	add	a1, s1, s3
300024d0: 00198993     	addi	s3, s3, 0x1
300024d4: 00a58023     	sb	a0, 0x0(a1)
300024d8: 04898463     	beq	s3, s0, 0x30002520 <i2c_read_nbyte+0x1e0>
300024dc: 01598663     	beq	s3, s5, 0x300024e8 <i2c_read_nbyte+0x1a8>
300024e0: 02000513     	li	a0, 0x20
300024e4: 0080006f     	j	0x300024ec <i2c_read_nbyte+0x1ac>
300024e8: 06000513     	li	a0, 0x60
300024ec: 00aa2823     	sw	a0, 0x10(s4)
300024f0: 014a2503     	lw	a0, 0x14(s4)
300024f4: 00257513     	andi	a0, a0, 0x2
300024f8: fe050ce3     	beqz	a0, 0x300024f0 <i2c_read_nbyte+0x1b0>
300024fc: 014a2503     	lw	a0, 0x14(s4)
30002500: 00257513     	andi	a0, a0, 0x2
30002504: fe051ce3     	bnez	a0, 0x300024fc <i2c_read_nbyte+0x1bc>
30002508: 014a2503     	lw	a0, 0x14(s4)
3000250c: 08057513     	andi	a0, a0, 0x80
30002510: fa050ce3     	beqz	a0, 0x300024c8 <i2c_read_nbyte+0x188>
30002514: 00090513     	mv	a0, s2
30002518: d28ff0ef     	jal	0x30001a40 <printf>
3000251c: fadff06f     	j	0x300024c8 <i2c_read_nbyte+0x188>
30002520: 04000513     	li	a0, 0x40
30002524: 00aa2823     	sw	a0, 0x10(s4)
30002528: 014a2503     	lw	a0, 0x14(s4)
3000252c: 04057513     	andi	a0, a0, 0x40
30002530: fe051ce3     	bnez	a0, 0x30002528 <i2c_read_nbyte+0x1e8>
30002534: 01c12083     	lw	ra, 0x1c(sp)
30002538: 01812403     	lw	s0, 0x18(sp)
3000253c: 01412483     	lw	s1, 0x14(sp)
30002540: 01012903     	lw	s2, 0x10(sp)
30002544: 00c12983     	lw	s3, 0xc(sp)
30002548: 00812a03     	lw	s4, 0x8(sp)
3000254c: 00412a83     	lw	s5, 0x4(sp)
30002550: 02010113     	addi	sp, sp, 0x20
30002554: 00008067     	ret

30002558 <hp_uart_init>:
30002558: ff010113     	addi	sp, sp, -0x10
3000255c: 00112623     	sw	ra, 0xc(sp)
30002560: 00812423     	sw	s0, 0x8(sp)
30002564: 00050593     	mv	a1, a0
30002568: 044aa537     	lui	a0, 0x44aa
3000256c: 20050513     	addi	a0, a0, 0x200
30002570: 02b55533     	divu	a0, a0, a1
30002574: 03003437     	lui	s0, 0x3003
30002578: 00042023     	sw	zero, 0x0(s0)
3000257c: fff50513     	addi	a0, a0, -0x1
30002580: 00a42223     	sw	a0, 0x4(s0)
30002584: 00f00513     	li	a0, 0xf
30002588: 00a42623     	sw	a0, 0xc(s0)
3000258c: 00c00513     	li	a0, 0xc
30002590: 00a42623     	sw	a0, 0xc(s0)
30002594: 01f00513     	li	a0, 0x1f
30002598: 00a42023     	sw	a0, 0x0(s0)
3000259c: 30005537     	lui	a0, 0x30005
300025a0: c3350513     	addi	a0, a0, -0x3cd
300025a4: c9cff0ef     	jal	0x30001a40 <printf>
300025a8: 00042583     	lw	a1, 0x0(s0)
300025ac: 30005537     	lui	a0, 0x30005
300025b0: ac850513     	addi	a0, a0, -0x538
300025b4: c8cff0ef     	jal	0x30001a40 <printf>
300025b8: 00c42583     	lw	a1, 0xc(s0)
300025bc: 30005537     	lui	a0, 0x30005
300025c0: bf550513     	addi	a0, a0, -0x40b
300025c4: c7cff0ef     	jal	0x30001a40 <printf>
300025c8: 00442583     	lw	a1, 0x4(s0)
300025cc: 30005537     	lui	a0, 0x30005
300025d0: b4750513     	addi	a0, a0, -0x4b9
300025d4: 00c12083     	lw	ra, 0xc(sp)
300025d8: 00812403     	lw	s0, 0x8(sp)
300025dc: 01010113     	addi	sp, sp, 0x10
300025e0: c60ff06f     	j	0x30001a40 <printf>

300025e4 <hp_uart_send>:
300025e4: 030035b7     	lui	a1, 0x3003
300025e8: 0105a603     	lw	a2, 0x10(a1)
300025ec: 10067613     	andi	a2, a2, 0x100
300025f0: fe061ce3     	bnez	a2, 0x300025e8 <hp_uart_send+0x4>
300025f4: 00a5a423     	sw	a0, 0x8(a1)
300025f8: 00008067     	ret

300025fc <hp_uart_send_str>:
300025fc: 00054583     	lbu	a1, 0x0(a0)
30002600: 02058263     	beqz	a1, 0x30002624 <hp_uart_send_str+0x28>
30002604: 03003637     	lui	a2, 0x3003
30002608: 01062683     	lw	a3, 0x10(a2)
3000260c: 1006f693     	andi	a3, a3, 0x100
30002610: fe069ce3     	bnez	a3, 0x30002608 <hp_uart_send_str+0xc>
30002614: 00b62423     	sw	a1, 0x8(a2)
30002618: 00154583     	lbu	a1, 0x1(a0)
3000261c: 00150513     	addi	a0, a0, 0x1
30002620: fe0594e3     	bnez	a1, 0x30002608 <hp_uart_send_str+0xc>
30002624: 00008067     	ret

30002628 <hp_uart_recv>:
30002628: 030035b7     	lui	a1, 0x3003
3000262c: 0105a603     	lw	a2, 0x10(a1)
30002630: 08067613     	andi	a2, a2, 0x80
30002634: fe061ce3     	bnez	a2, 0x3000262c <hp_uart_recv+0x4>
30002638: 0085a603     	lw	a2, 0x8(a1)
3000263c: 00c50023     	sb	a2, 0x0(a0)
30002640: 0105a503     	lw	a0, 0x10(a1)
30002644: 10057513     	andi	a0, a0, 0x100
30002648: fe051ce3     	bnez	a0, 0x30002640 <hp_uart_recv+0x18>
3000264c: 0ff67513     	zext.b	a0, a2
30002650: 00a5a423     	sw	a0, 0x8(a1)
30002654: 00008067     	ret

30002658 <hp_uart_recv_str>:
30002658: 030035b7     	lui	a1, 0x3003
3000265c: 00a00613     	li	a2, 0xa
30002660: 0105a683     	lw	a3, 0x10(a1)
30002664: 0806f693     	andi	a3, a3, 0x80
30002668: fe069ce3     	bnez	a3, 0x30002660 <hp_uart_recv_str+0x8>
3000266c: 0085a683     	lw	a3, 0x8(a1)
30002670: 00d50023     	sb	a3, 0x0(a0)
30002674: 0105a703     	lw	a4, 0x10(a1)
30002678: 10077713     	andi	a4, a4, 0x100
3000267c: fe071ce3     	bnez	a4, 0x30002674 <hp_uart_recv_str+0x1c>
30002680: 0ff6f693     	zext.b	a3, a3
30002684: 00d5a423     	sw	a3, 0x8(a1)
30002688: 00054683     	lbu	a3, 0x0(a0)
3000268c: 00150513     	addi	a0, a0, 0x1
30002690: fcc698e3     	bne	a3, a2, 0x30002660 <hp_uart_recv_str+0x8>
30002694: 00008067     	ret

30002698 <st7735_wr_data8>:
30002698: ff010113     	addi	sp, sp, -0x10
3000269c: 00112623     	sw	ra, 0xc(sp)
300026a0: 00812423     	sw	s0, 0x8(sp)
300026a4: 00052503     	lw	a0, 0x0(a0)
300026a8: 00058413     	mv	s0, a1
300026ac: 00100593     	li	a1, 0x1
300026b0: e30ff0ef     	jal	0x30001ce0 <gpio_set_level>
300026b4: 00040513     	mv	a0, s0
300026b8: 00c12083     	lw	ra, 0xc(sp)
300026bc: 00812403     	lw	s0, 0x8(sp)
300026c0: 01010113     	addi	sp, sp, 0x10
300026c4: ee8ff06f     	j	0x30001dac <qspi_write_8>

300026c8 <st7735_wr_data16>:
300026c8: ff010113     	addi	sp, sp, -0x10
300026cc: 00112623     	sw	ra, 0xc(sp)
300026d0: 00812423     	sw	s0, 0x8(sp)
300026d4: 00052503     	lw	a0, 0x0(a0)
300026d8: 00058413     	mv	s0, a1
300026dc: 00100593     	li	a1, 0x1
300026e0: e00ff0ef     	jal	0x30001ce0 <gpio_set_level>
300026e4: 00040513     	mv	a0, s0
300026e8: 00c12083     	lw	ra, 0xc(sp)
300026ec: 00812403     	lw	s0, 0x8(sp)
300026f0: 01010113     	addi	sp, sp, 0x10
300026f4: ee4ff06f     	j	0x30001dd8 <qspi_write_16>

300026f8 <st7735_wr_data32>:
300026f8: ff010113     	addi	sp, sp, -0x10
300026fc: 00112623     	sw	ra, 0xc(sp)
30002700: 00812423     	sw	s0, 0x8(sp)
30002704: 00052503     	lw	a0, 0x0(a0)
30002708: 00058413     	mv	s0, a1
3000270c: 00100593     	li	a1, 0x1
30002710: dd0ff0ef     	jal	0x30001ce0 <gpio_set_level>
30002714: 00040513     	mv	a0, s0
30002718: 00c12083     	lw	ra, 0xc(sp)
3000271c: 00812403     	lw	s0, 0x8(sp)
30002720: 01010113     	addi	sp, sp, 0x10
30002724: ee0ff06f     	j	0x30001e04 <qspi_write_32>

30002728 <st7735_wr_data32x2>:
30002728: ff010113     	addi	sp, sp, -0x10
3000272c: 00112623     	sw	ra, 0xc(sp)
30002730: 00812423     	sw	s0, 0x8(sp)
30002734: 00912223     	sw	s1, 0x4(sp)
30002738: 00060413     	mv	s0, a2
3000273c: 00052503     	lw	a0, 0x0(a0)
30002740: 00058493     	mv	s1, a1
30002744: 00100593     	li	a1, 0x1
30002748: d98ff0ef     	jal	0x30001ce0 <gpio_set_level>
3000274c: 00048513     	mv	a0, s1
30002750: 00040593     	mv	a1, s0
30002754: 00c12083     	lw	ra, 0xc(sp)
30002758: 00812403     	lw	s0, 0x8(sp)
3000275c: 00412483     	lw	s1, 0x4(sp)
30002760: 01010113     	addi	sp, sp, 0x10
30002764: ec8ff06f     	j	0x30001e2c <qspi_write_32x2>

30002768 <st7735_wr_data32x8>:
30002768: fd010113     	addi	sp, sp, -0x30
3000276c: 02112623     	sw	ra, 0x2c(sp)
30002770: 02812423     	sw	s0, 0x28(sp)
30002774: 02912223     	sw	s1, 0x24(sp)
30002778: 03212023     	sw	s2, 0x20(sp)
3000277c: 01312e23     	sw	s3, 0x1c(sp)
30002780: 01412c23     	sw	s4, 0x18(sp)
30002784: 01512a23     	sw	s5, 0x14(sp)
30002788: 01612823     	sw	s6, 0x10(sp)
3000278c: 01712623     	sw	s7, 0xc(sp)
30002790: 00088413     	mv	s0, a7
30002794: 00080493     	mv	s1, a6
30002798: 00078913     	mv	s2, a5
3000279c: 00070993     	mv	s3, a4
300027a0: 00068a13     	mv	s4, a3
300027a4: 00060a93     	mv	s5, a2
300027a8: 03012b03     	lw	s6, 0x30(sp)
300027ac: 00052503     	lw	a0, 0x0(a0)
300027b0: 00058b93     	mv	s7, a1
300027b4: 00100593     	li	a1, 0x1
300027b8: d28ff0ef     	jal	0x30001ce0 <gpio_set_level>
300027bc: 000b8513     	mv	a0, s7
300027c0: 000a8593     	mv	a1, s5
300027c4: 000a0613     	mv	a2, s4
300027c8: 00098693     	mv	a3, s3
300027cc: 00090713     	mv	a4, s2
300027d0: 00048793     	mv	a5, s1
300027d4: 00040813     	mv	a6, s0
300027d8: 000b0893     	mv	a7, s6
300027dc: 02c12083     	lw	ra, 0x2c(sp)
300027e0: 02812403     	lw	s0, 0x28(sp)
300027e4: 02412483     	lw	s1, 0x24(sp)
300027e8: 02012903     	lw	s2, 0x20(sp)
300027ec: 01c12983     	lw	s3, 0x1c(sp)
300027f0: 01812a03     	lw	s4, 0x18(sp)
300027f4: 01412a83     	lw	s5, 0x14(sp)
300027f8: 01012b03     	lw	s6, 0x10(sp)
300027fc: 00c12b83     	lw	s7, 0xc(sp)
30002800: 03010113     	addi	sp, sp, 0x30
30002804: e54ff06f     	j	0x30001e58 <qspi_write_32x8>

30002808 <st7735_wr_data32x16>:
30002808: f9010113     	addi	sp, sp, -0x70
3000280c: 06112623     	sw	ra, 0x6c(sp)
30002810: 06812423     	sw	s0, 0x68(sp)
30002814: 06912223     	sw	s1, 0x64(sp)
30002818: 07212023     	sw	s2, 0x60(sp)
3000281c: 05312e23     	sw	s3, 0x5c(sp)
30002820: 05412c23     	sw	s4, 0x58(sp)
30002824: 05512a23     	sw	s5, 0x54(sp)
30002828: 05612823     	sw	s6, 0x50(sp)
3000282c: 05712623     	sw	s7, 0x4c(sp)
30002830: 05812423     	sw	s8, 0x48(sp)
30002834: 05912223     	sw	s9, 0x44(sp)
30002838: 05a12023     	sw	s10, 0x40(sp)
3000283c: 03b12e23     	sw	s11, 0x3c(sp)
30002840: 03112c23     	sw	a7, 0x38(sp)
30002844: 03012a23     	sw	a6, 0x34(sp)
30002848: 02f12823     	sw	a5, 0x30(sp)
3000284c: 02e12623     	sw	a4, 0x2c(sp)
30002850: 00068a13     	mv	s4, a3
30002854: 00060a93     	mv	s5, a2
30002858: 07012b03     	lw	s6, 0x70(sp)
3000285c: 07412c03     	lw	s8, 0x74(sp)
30002860: 07812c83     	lw	s9, 0x78(sp)
30002864: 07c12d03     	lw	s10, 0x7c(sp)
30002868: 08012d83     	lw	s11, 0x80(sp)
3000286c: 08412403     	lw	s0, 0x84(sp)
30002870: 08812483     	lw	s1, 0x88(sp)
30002874: 08c12903     	lw	s2, 0x8c(sp)
30002878: 09012983     	lw	s3, 0x90(sp)
3000287c: 00052503     	lw	a0, 0x0(a0)
30002880: 00058b93     	mv	s7, a1
30002884: 00100593     	li	a1, 0x1
30002888: c58ff0ef     	jal	0x30001ce0 <gpio_set_level>
3000288c: 00812823     	sw	s0, 0x10(sp)
30002890: 00912a23     	sw	s1, 0x14(sp)
30002894: 01212c23     	sw	s2, 0x18(sp)
30002898: 01312e23     	sw	s3, 0x1c(sp)
3000289c: 01812023     	sw	s8, 0x0(sp)
300028a0: 01912223     	sw	s9, 0x4(sp)
300028a4: 01a12423     	sw	s10, 0x8(sp)
300028a8: 01b12623     	sw	s11, 0xc(sp)
300028ac: 000b8513     	mv	a0, s7
300028b0: 000a8593     	mv	a1, s5
300028b4: 000a0613     	mv	a2, s4
300028b8: 02c12683     	lw	a3, 0x2c(sp)
300028bc: 03012703     	lw	a4, 0x30(sp)
300028c0: 03412783     	lw	a5, 0x34(sp)
300028c4: 03812803     	lw	a6, 0x38(sp)
300028c8: 000b0893     	mv	a7, s6
300028cc: dd0ff0ef     	jal	0x30001e9c <qspi_write_32x16>
300028d0: 06c12083     	lw	ra, 0x6c(sp)
300028d4: 06812403     	lw	s0, 0x68(sp)
300028d8: 06412483     	lw	s1, 0x64(sp)
300028dc: 06012903     	lw	s2, 0x60(sp)
300028e0: 05c12983     	lw	s3, 0x5c(sp)
300028e4: 05812a03     	lw	s4, 0x58(sp)
300028e8: 05412a83     	lw	s5, 0x54(sp)
300028ec: 05012b03     	lw	s6, 0x50(sp)
300028f0: 04c12b83     	lw	s7, 0x4c(sp)
300028f4: 04812c03     	lw	s8, 0x48(sp)
300028f8: 04412c83     	lw	s9, 0x44(sp)
300028fc: 04012d03     	lw	s10, 0x40(sp)
30002900: 03c12d83     	lw	s11, 0x3c(sp)
30002904: 07010113     	addi	sp, sp, 0x70
30002908: 00008067     	ret

3000290c <st7735_wr_data32x32>:
3000290c: f1010113     	addi	sp, sp, -0xf0
30002910: 0e112623     	sw	ra, 0xec(sp)
30002914: 0e812423     	sw	s0, 0xe8(sp)
30002918: 0e912223     	sw	s1, 0xe4(sp)
3000291c: 0f212023     	sw	s2, 0xe0(sp)
30002920: 0d312e23     	sw	s3, 0xdc(sp)
30002924: 0d412c23     	sw	s4, 0xd8(sp)
30002928: 0d512a23     	sw	s5, 0xd4(sp)
3000292c: 0d612823     	sw	s6, 0xd0(sp)
30002930: 0d712623     	sw	s7, 0xcc(sp)
30002934: 0d812423     	sw	s8, 0xc8(sp)
30002938: 0d912223     	sw	s9, 0xc4(sp)
3000293c: 0da12023     	sw	s10, 0xc0(sp)
30002940: 0bb12e23     	sw	s11, 0xbc(sp)
30002944: 0b112c23     	sw	a7, 0xb8(sp)
30002948: 0b012a23     	sw	a6, 0xb4(sp)
3000294c: 0af12823     	sw	a5, 0xb0(sp)
30002950: 0ae12623     	sw	a4, 0xac(sp)
30002954: 0ad12223     	sw	a3, 0xa4(sp)
30002958: 0ac12023     	sw	a2, 0xa0(sp)
3000295c: 0f012603     	lw	a2, 0xf0(sp)
30002960: 0ac12423     	sw	a2, 0xa8(sp)
30002964: 0f412603     	lw	a2, 0xf4(sp)
30002968: 08c12e23     	sw	a2, 0x9c(sp)
3000296c: 0f812603     	lw	a2, 0xf8(sp)
30002970: 08c12c23     	sw	a2, 0x98(sp)
30002974: 0fc12603     	lw	a2, 0xfc(sp)
30002978: 08c12a23     	sw	a2, 0x94(sp)
3000297c: 10012603     	lw	a2, 0x100(sp)
30002980: 08c12823     	sw	a2, 0x90(sp)
30002984: 10412603     	lw	a2, 0x104(sp)
30002988: 08c12623     	sw	a2, 0x8c(sp)
3000298c: 10812603     	lw	a2, 0x108(sp)
30002990: 08c12423     	sw	a2, 0x88(sp)
30002994: 10c12603     	lw	a2, 0x10c(sp)
30002998: 08c12223     	sw	a2, 0x84(sp)
3000299c: 11012603     	lw	a2, 0x110(sp)
300029a0: 08c12023     	sw	a2, 0x80(sp)
300029a4: 11412603     	lw	a2, 0x114(sp)
300029a8: 06c12e23     	sw	a2, 0x7c(sp)
300029ac: 11812603     	lw	a2, 0x118(sp)
300029b0: 06c12c23     	sw	a2, 0x78(sp)
300029b4: 11c12603     	lw	a2, 0x11c(sp)
300029b8: 06c12a23     	sw	a2, 0x74(sp)
300029bc: 12012603     	lw	a2, 0x120(sp)
300029c0: 06c12823     	sw	a2, 0x70(sp)
300029c4: 12412c83     	lw	s9, 0x124(sp)
300029c8: 12812d03     	lw	s10, 0x128(sp)
300029cc: 12c12d83     	lw	s11, 0x12c(sp)
300029d0: 13012403     	lw	s0, 0x130(sp)
300029d4: 13412483     	lw	s1, 0x134(sp)
300029d8: 13812903     	lw	s2, 0x138(sp)
300029dc: 13c12983     	lw	s3, 0x13c(sp)
300029e0: 00052503     	lw	a0, 0x0(a0)
300029e4: 14012a03     	lw	s4, 0x140(sp)
300029e8: 14412a83     	lw	s5, 0x144(sp)
300029ec: 14812b03     	lw	s6, 0x148(sp)
300029f0: 14c12c03     	lw	s8, 0x14c(sp)
300029f4: 15012b83     	lw	s7, 0x150(sp)
300029f8: 06b12623     	sw	a1, 0x6c(sp)
300029fc: 00100593     	li	a1, 0x1
30002a00: ae0ff0ef     	jal	0x30001ce0 <gpio_set_level>
30002a04: 05512823     	sw	s5, 0x50(sp)
30002a08: 05612a23     	sw	s6, 0x54(sp)
30002a0c: 05812c23     	sw	s8, 0x58(sp)
30002a10: 05712e23     	sw	s7, 0x5c(sp)
30002a14: 04912023     	sw	s1, 0x40(sp)
30002a18: 05212223     	sw	s2, 0x44(sp)
30002a1c: 05312423     	sw	s3, 0x48(sp)
30002a20: 05412623     	sw	s4, 0x4c(sp)
30002a24: 03912823     	sw	s9, 0x30(sp)
30002a28: 03a12a23     	sw	s10, 0x34(sp)
30002a2c: 03b12c23     	sw	s11, 0x38(sp)
30002a30: 02812e23     	sw	s0, 0x3c(sp)
30002a34: 07c12503     	lw	a0, 0x7c(sp)
30002a38: 02a12023     	sw	a0, 0x20(sp)
30002a3c: 07812503     	lw	a0, 0x78(sp)
30002a40: 02a12223     	sw	a0, 0x24(sp)
30002a44: 07412503     	lw	a0, 0x74(sp)
30002a48: 02a12423     	sw	a0, 0x28(sp)
30002a4c: 07012503     	lw	a0, 0x70(sp)
30002a50: 02a12623     	sw	a0, 0x2c(sp)
30002a54: 08c12503     	lw	a0, 0x8c(sp)
30002a58: 00a12823     	sw	a0, 0x10(sp)
30002a5c: 08812503     	lw	a0, 0x88(sp)
30002a60: 00a12a23     	sw	a0, 0x14(sp)
30002a64: 08412503     	lw	a0, 0x84(sp)
30002a68: 00a12c23     	sw	a0, 0x18(sp)
30002a6c: 08012503     	lw	a0, 0x80(sp)
30002a70: 00a12e23     	sw	a0, 0x1c(sp)
30002a74: 09c12503     	lw	a0, 0x9c(sp)
30002a78: 00a12023     	sw	a0, 0x0(sp)
30002a7c: 09812503     	lw	a0, 0x98(sp)
30002a80: 00a12223     	sw	a0, 0x4(sp)
30002a84: 09412503     	lw	a0, 0x94(sp)
30002a88: 00a12423     	sw	a0, 0x8(sp)
30002a8c: 09012503     	lw	a0, 0x90(sp)
30002a90: 00a12623     	sw	a0, 0xc(sp)
30002a94: 06c12503     	lw	a0, 0x6c(sp)
30002a98: 0a012583     	lw	a1, 0xa0(sp)
30002a9c: 0a412603     	lw	a2, 0xa4(sp)
30002aa0: 0ac12683     	lw	a3, 0xac(sp)
30002aa4: 0b012703     	lw	a4, 0xb0(sp)
30002aa8: 0b412783     	lw	a5, 0xb4(sp)
30002aac: 0b812803     	lw	a6, 0xb8(sp)
30002ab0: 0a812883     	lw	a7, 0xa8(sp)
30002ab4: c8cff0ef     	jal	0x30001f40 <qspi_write_32x32>
30002ab8: 0ec12083     	lw	ra, 0xec(sp)
30002abc: 0e812403     	lw	s0, 0xe8(sp)
30002ac0: 0e412483     	lw	s1, 0xe4(sp)
30002ac4: 0e012903     	lw	s2, 0xe0(sp)
30002ac8: 0dc12983     	lw	s3, 0xdc(sp)
30002acc: 0d812a03     	lw	s4, 0xd8(sp)
30002ad0: 0d412a83     	lw	s5, 0xd4(sp)
30002ad4: 0d012b03     	lw	s6, 0xd0(sp)
30002ad8: 0cc12b83     	lw	s7, 0xcc(sp)
30002adc: 0c812c03     	lw	s8, 0xc8(sp)
30002ae0: 0c412c83     	lw	s9, 0xc4(sp)
30002ae4: 0c012d03     	lw	s10, 0xc0(sp)
30002ae8: 0bc12d83     	lw	s11, 0xbc(sp)
30002aec: 0f010113     	addi	sp, sp, 0xf0
30002af0: 00008067     	ret

30002af4 <st7735_wr_cmd>:
30002af4: ff010113     	addi	sp, sp, -0x10
30002af8: 00112623     	sw	ra, 0xc(sp)
30002afc: 00812423     	sw	s0, 0x8(sp)
30002b00: 00052503     	lw	a0, 0x0(a0)
30002b04: 00058413     	mv	s0, a1
30002b08: 00000593     	li	a1, 0x0
30002b0c: 9d4ff0ef     	jal	0x30001ce0 <gpio_set_level>
30002b10: 00040513     	mv	a0, s0
30002b14: 00c12083     	lw	ra, 0xc(sp)
30002b18: 00812403     	lw	s0, 0x8(sp)
30002b1c: 01010113     	addi	sp, sp, 0x10
30002b20: a8cff06f     	j	0x30001dac <qspi_write_8>

30002b24 <st7735_init>:
30002b24: fe010113     	addi	sp, sp, -0x20
30002b28: 00112e23     	sw	ra, 0x1c(sp)
30002b2c: 00812c23     	sw	s0, 0x18(sp)
30002b30: 00912a23     	sw	s1, 0x14(sp)
30002b34: 00050413     	mv	s0, a0
30002b38: 00052503     	lw	a0, 0x0(a0)
30002b3c: 00100593     	li	a1, 0x1
30002b40: 00a59533     	sll	a0, a1, a0
30002b44: 00a12623     	sw	a0, 0xc(sp)
30002b48: 00b12823     	sw	a1, 0x10(sp)
30002b4c: 00c10513     	addi	a0, sp, 0xc
30002b50: 898ff0ef     	jal	0x30001be8 <gpio_config>
30002b54: 00042503     	lw	a0, 0x0(s0)
30002b58: 00000593     	li	a1, 0x0
30002b5c: 984ff0ef     	jal	0x30001ce0 <gpio_set_level>
30002b60: 07800513     	li	a0, 0x78
30002b64: d14ff0ef     	jal	0x30002078 <delay_ms>
30002b68: 00042503     	lw	a0, 0x0(s0)
30002b6c: 00000593     	li	a1, 0x0
30002b70: 970ff0ef     	jal	0x30001ce0 <gpio_set_level>
30002b74: 01100513     	li	a0, 0x11
30002b78: a34ff0ef     	jal	0x30001dac <qspi_write_8>
30002b7c: 07800513     	li	a0, 0x78
30002b80: cf8ff0ef     	jal	0x30002078 <delay_ms>
30002b84: 00042503     	lw	a0, 0x0(s0)
30002b88: 00000593     	li	a1, 0x0
30002b8c: 954ff0ef     	jal	0x30001ce0 <gpio_set_level>
30002b90: 0b100513     	li	a0, 0xb1
30002b94: a18ff0ef     	jal	0x30001dac <qspi_write_8>
30002b98: 00042503     	lw	a0, 0x0(s0)
30002b9c: 00100593     	li	a1, 0x1
30002ba0: 940ff0ef     	jal	0x30001ce0 <gpio_set_level>
30002ba4: 00100513     	li	a0, 0x1
30002ba8: a04ff0ef     	jal	0x30001dac <qspi_write_8>
30002bac: 00042503     	lw	a0, 0x0(s0)
30002bb0: 00100593     	li	a1, 0x1
30002bb4: 92cff0ef     	jal	0x30001ce0 <gpio_set_level>
30002bb8: 02c00513     	li	a0, 0x2c
30002bbc: 9f0ff0ef     	jal	0x30001dac <qspi_write_8>
30002bc0: 00042503     	lw	a0, 0x0(s0)
30002bc4: 00100593     	li	a1, 0x1
30002bc8: 918ff0ef     	jal	0x30001ce0 <gpio_set_level>
30002bcc: 02d00513     	li	a0, 0x2d
30002bd0: 9dcff0ef     	jal	0x30001dac <qspi_write_8>
30002bd4: 00042503     	lw	a0, 0x0(s0)
30002bd8: 00000593     	li	a1, 0x0
30002bdc: 904ff0ef     	jal	0x30001ce0 <gpio_set_level>
30002be0: 0b200513     	li	a0, 0xb2
30002be4: 9c8ff0ef     	jal	0x30001dac <qspi_write_8>
30002be8: 00042503     	lw	a0, 0x0(s0)
30002bec: 00100593     	li	a1, 0x1
30002bf0: 8f0ff0ef     	jal	0x30001ce0 <gpio_set_level>
30002bf4: 00100513     	li	a0, 0x1
30002bf8: 9b4ff0ef     	jal	0x30001dac <qspi_write_8>
30002bfc: 00042503     	lw	a0, 0x0(s0)
30002c00: 00100593     	li	a1, 0x1
30002c04: 8dcff0ef     	jal	0x30001ce0 <gpio_set_level>
30002c08: 02c00513     	li	a0, 0x2c
30002c0c: 9a0ff0ef     	jal	0x30001dac <qspi_write_8>
30002c10: 00042503     	lw	a0, 0x0(s0)
30002c14: 00100593     	li	a1, 0x1
30002c18: 8c8ff0ef     	jal	0x30001ce0 <gpio_set_level>
30002c1c: 02d00513     	li	a0, 0x2d
30002c20: 98cff0ef     	jal	0x30001dac <qspi_write_8>
30002c24: 00042503     	lw	a0, 0x0(s0)
30002c28: 00000593     	li	a1, 0x0
30002c2c: 8b4ff0ef     	jal	0x30001ce0 <gpio_set_level>
30002c30: 0b300513     	li	a0, 0xb3
30002c34: 978ff0ef     	jal	0x30001dac <qspi_write_8>
30002c38: 00042503     	lw	a0, 0x0(s0)
30002c3c: 00100593     	li	a1, 0x1
30002c40: 8a0ff0ef     	jal	0x30001ce0 <gpio_set_level>
30002c44: 00100513     	li	a0, 0x1
30002c48: 964ff0ef     	jal	0x30001dac <qspi_write_8>
30002c4c: 00042503     	lw	a0, 0x0(s0)
30002c50: 00100593     	li	a1, 0x1
30002c54: 88cff0ef     	jal	0x30001ce0 <gpio_set_level>
30002c58: 02c00513     	li	a0, 0x2c
30002c5c: 950ff0ef     	jal	0x30001dac <qspi_write_8>
30002c60: 00042503     	lw	a0, 0x0(s0)
30002c64: 00100593     	li	a1, 0x1
30002c68: 878ff0ef     	jal	0x30001ce0 <gpio_set_level>
30002c6c: 02d00513     	li	a0, 0x2d
30002c70: 93cff0ef     	jal	0x30001dac <qspi_write_8>
30002c74: 00042503     	lw	a0, 0x0(s0)
30002c78: 00100593     	li	a1, 0x1
30002c7c: 864ff0ef     	jal	0x30001ce0 <gpio_set_level>
30002c80: 00100513     	li	a0, 0x1
30002c84: 928ff0ef     	jal	0x30001dac <qspi_write_8>
30002c88: 00042503     	lw	a0, 0x0(s0)
30002c8c: 00100593     	li	a1, 0x1
30002c90: 850ff0ef     	jal	0x30001ce0 <gpio_set_level>
30002c94: 02c00513     	li	a0, 0x2c
30002c98: 914ff0ef     	jal	0x30001dac <qspi_write_8>
30002c9c: 00042503     	lw	a0, 0x0(s0)
30002ca0: 00100593     	li	a1, 0x1
30002ca4: 83cff0ef     	jal	0x30001ce0 <gpio_set_level>
30002ca8: 02d00513     	li	a0, 0x2d
30002cac: 900ff0ef     	jal	0x30001dac <qspi_write_8>
30002cb0: 00042503     	lw	a0, 0x0(s0)
30002cb4: 00000593     	li	a1, 0x0
30002cb8: 828ff0ef     	jal	0x30001ce0 <gpio_set_level>
30002cbc: 0b400513     	li	a0, 0xb4
30002cc0: 8ecff0ef     	jal	0x30001dac <qspi_write_8>
30002cc4: 00042503     	lw	a0, 0x0(s0)
30002cc8: 00100593     	li	a1, 0x1
30002ccc: 814ff0ef     	jal	0x30001ce0 <gpio_set_level>
30002cd0: 00700513     	li	a0, 0x7
30002cd4: 8d8ff0ef     	jal	0x30001dac <qspi_write_8>
30002cd8: 30005537     	lui	a0, 0x30005
30002cdc: c0550513     	addi	a0, a0, -0x3fb
30002ce0: d61fe0ef     	jal	0x30001a40 <printf>
30002ce4: 00042503     	lw	a0, 0x0(s0)
30002ce8: 00000593     	li	a1, 0x0
30002cec: ff5fe0ef     	jal	0x30001ce0 <gpio_set_level>
30002cf0: 0c000513     	li	a0, 0xc0
30002cf4: 8b8ff0ef     	jal	0x30001dac <qspi_write_8>
30002cf8: 00042503     	lw	a0, 0x0(s0)
30002cfc: 00100593     	li	a1, 0x1
30002d00: fe1fe0ef     	jal	0x30001ce0 <gpio_set_level>
30002d04: 0a200513     	li	a0, 0xa2
30002d08: 8a4ff0ef     	jal	0x30001dac <qspi_write_8>
30002d0c: 00042503     	lw	a0, 0x0(s0)
30002d10: 00100593     	li	a1, 0x1
30002d14: fcdfe0ef     	jal	0x30001ce0 <gpio_set_level>
30002d18: 00200513     	li	a0, 0x2
30002d1c: 890ff0ef     	jal	0x30001dac <qspi_write_8>
30002d20: 00042503     	lw	a0, 0x0(s0)
30002d24: 00100593     	li	a1, 0x1
30002d28: fb9fe0ef     	jal	0x30001ce0 <gpio_set_level>
30002d2c: 08400513     	li	a0, 0x84
30002d30: 87cff0ef     	jal	0x30001dac <qspi_write_8>
30002d34: 00042503     	lw	a0, 0x0(s0)
30002d38: 00000593     	li	a1, 0x0
30002d3c: fa5fe0ef     	jal	0x30001ce0 <gpio_set_level>
30002d40: 0c100513     	li	a0, 0xc1
30002d44: 868ff0ef     	jal	0x30001dac <qspi_write_8>
30002d48: 00042503     	lw	a0, 0x0(s0)
30002d4c: 00100593     	li	a1, 0x1
30002d50: f91fe0ef     	jal	0x30001ce0 <gpio_set_level>
30002d54: 0c500513     	li	a0, 0xc5
30002d58: 854ff0ef     	jal	0x30001dac <qspi_write_8>
30002d5c: 00042503     	lw	a0, 0x0(s0)
30002d60: 00000593     	li	a1, 0x0
30002d64: f7dfe0ef     	jal	0x30001ce0 <gpio_set_level>
30002d68: 0c200513     	li	a0, 0xc2
30002d6c: 840ff0ef     	jal	0x30001dac <qspi_write_8>
30002d70: 00042503     	lw	a0, 0x0(s0)
30002d74: 00100593     	li	a1, 0x1
30002d78: f69fe0ef     	jal	0x30001ce0 <gpio_set_level>
30002d7c: 00a00513     	li	a0, 0xa
30002d80: 82cff0ef     	jal	0x30001dac <qspi_write_8>
30002d84: 00042503     	lw	a0, 0x0(s0)
30002d88: 00100593     	li	a1, 0x1
30002d8c: f55fe0ef     	jal	0x30001ce0 <gpio_set_level>
30002d90: 00000513     	li	a0, 0x0
30002d94: 818ff0ef     	jal	0x30001dac <qspi_write_8>
30002d98: 00042503     	lw	a0, 0x0(s0)
30002d9c: 00000593     	li	a1, 0x0
30002da0: f41fe0ef     	jal	0x30001ce0 <gpio_set_level>
30002da4: 0c300513     	li	a0, 0xc3
30002da8: 804ff0ef     	jal	0x30001dac <qspi_write_8>
30002dac: 00042503     	lw	a0, 0x0(s0)
30002db0: 00100593     	li	a1, 0x1
30002db4: f2dfe0ef     	jal	0x30001ce0 <gpio_set_level>
30002db8: 08a00513     	li	a0, 0x8a
30002dbc: ff1fe0ef     	jal	0x30001dac <qspi_write_8>
30002dc0: 00042503     	lw	a0, 0x0(s0)
30002dc4: 00100593     	li	a1, 0x1
30002dc8: f19fe0ef     	jal	0x30001ce0 <gpio_set_level>
30002dcc: 02a00513     	li	a0, 0x2a
30002dd0: fddfe0ef     	jal	0x30001dac <qspi_write_8>
30002dd4: 00042503     	lw	a0, 0x0(s0)
30002dd8: 00000593     	li	a1, 0x0
30002ddc: f05fe0ef     	jal	0x30001ce0 <gpio_set_level>
30002de0: 0c400513     	li	a0, 0xc4
30002de4: fc9fe0ef     	jal	0x30001dac <qspi_write_8>
30002de8: 00042503     	lw	a0, 0x0(s0)
30002dec: 00100593     	li	a1, 0x1
30002df0: ef1fe0ef     	jal	0x30001ce0 <gpio_set_level>
30002df4: 08a00513     	li	a0, 0x8a
30002df8: fb5fe0ef     	jal	0x30001dac <qspi_write_8>
30002dfc: 00042503     	lw	a0, 0x0(s0)
30002e00: 00100593     	li	a1, 0x1
30002e04: eddfe0ef     	jal	0x30001ce0 <gpio_set_level>
30002e08: 0ee00513     	li	a0, 0xee
30002e0c: fa1fe0ef     	jal	0x30001dac <qspi_write_8>
30002e10: 00042503     	lw	a0, 0x0(s0)
30002e14: 00000593     	li	a1, 0x0
30002e18: ec9fe0ef     	jal	0x30001ce0 <gpio_set_level>
30002e1c: 0c500513     	li	a0, 0xc5
30002e20: f8dfe0ef     	jal	0x30001dac <qspi_write_8>
30002e24: 00042503     	lw	a0, 0x0(s0)
30002e28: 00100593     	li	a1, 0x1
30002e2c: eb5fe0ef     	jal	0x30001ce0 <gpio_set_level>
30002e30: 00e00513     	li	a0, 0xe
30002e34: f79fe0ef     	jal	0x30001dac <qspi_write_8>
30002e38: 00042503     	lw	a0, 0x0(s0)
30002e3c: 00000593     	li	a1, 0x0
30002e40: ea1fe0ef     	jal	0x30001ce0 <gpio_set_level>
30002e44: 03600513     	li	a0, 0x36
30002e48: f65fe0ef     	jal	0x30001dac <qspi_write_8>
30002e4c: 30005537     	lui	a0, 0x30005
30002e50: ad850513     	addi	a0, a0, -0x528
30002e54: bedfe0ef     	jal	0x30001a40 <printf>
30002e58: 00042503     	lw	a0, 0x0(s0)
30002e5c: 00c42483     	lw	s1, 0xc(s0)
30002e60: 00100593     	li	a1, 0x1
30002e64: e7dfe0ef     	jal	0x30001ce0 <gpio_set_level>
30002e68: 00300513     	li	a0, 0x3
30002e6c: 00a4e663     	bltu	s1, a0, 0x30002e78 <st7735_init+0x354>
30002e70: 06800513     	li	a0, 0x68
30002e74: 0140006f     	j	0x30002e88 <st7735_init+0x364>
30002e78: 00349493     	slli	s1, s1, 0x3
30002e7c: 0008b537     	lui	a0, 0x8b
30002e80: 8c850513     	addi	a0, a0, -0x738
30002e84: 00955533     	srl	a0, a0, s1
30002e88: 0e857513     	andi	a0, a0, 0xe8
30002e8c: f21fe0ef     	jal	0x30001dac <qspi_write_8>
30002e90: 00042503     	lw	a0, 0x0(s0)
30002e94: 00000593     	li	a1, 0x0
30002e98: e49fe0ef     	jal	0x30001ce0 <gpio_set_level>
30002e9c: 0e000513     	li	a0, 0xe0
30002ea0: f0dfe0ef     	jal	0x30001dac <qspi_write_8>
30002ea4: 00042503     	lw	a0, 0x0(s0)
30002ea8: 00100593     	li	a1, 0x1
30002eac: e35fe0ef     	jal	0x30001ce0 <gpio_set_level>
30002eb0: 00f00513     	li	a0, 0xf
30002eb4: ef9fe0ef     	jal	0x30001dac <qspi_write_8>
30002eb8: 00042503     	lw	a0, 0x0(s0)
30002ebc: 00100593     	li	a1, 0x1
30002ec0: e21fe0ef     	jal	0x30001ce0 <gpio_set_level>
30002ec4: 01a00513     	li	a0, 0x1a
30002ec8: ee5fe0ef     	jal	0x30001dac <qspi_write_8>
30002ecc: 00042503     	lw	a0, 0x0(s0)
30002ed0: 00100593     	li	a1, 0x1
30002ed4: e0dfe0ef     	jal	0x30001ce0 <gpio_set_level>
30002ed8: 00f00513     	li	a0, 0xf
30002edc: ed1fe0ef     	jal	0x30001dac <qspi_write_8>
30002ee0: 00042503     	lw	a0, 0x0(s0)
30002ee4: 00100593     	li	a1, 0x1
30002ee8: df9fe0ef     	jal	0x30001ce0 <gpio_set_level>
30002eec: 01800513     	li	a0, 0x18
30002ef0: ebdfe0ef     	jal	0x30001dac <qspi_write_8>
30002ef4: 00042503     	lw	a0, 0x0(s0)
30002ef8: 00100593     	li	a1, 0x1
30002efc: de5fe0ef     	jal	0x30001ce0 <gpio_set_level>
30002f00: 02f00513     	li	a0, 0x2f
30002f04: ea9fe0ef     	jal	0x30001dac <qspi_write_8>
30002f08: 00042503     	lw	a0, 0x0(s0)
30002f0c: 00100593     	li	a1, 0x1
30002f10: dd1fe0ef     	jal	0x30001ce0 <gpio_set_level>
30002f14: 02800513     	li	a0, 0x28
30002f18: e95fe0ef     	jal	0x30001dac <qspi_write_8>
30002f1c: 00042503     	lw	a0, 0x0(s0)
30002f20: 00100593     	li	a1, 0x1
30002f24: dbdfe0ef     	jal	0x30001ce0 <gpio_set_level>
30002f28: 02000513     	li	a0, 0x20
30002f2c: e81fe0ef     	jal	0x30001dac <qspi_write_8>
30002f30: 00042503     	lw	a0, 0x0(s0)
30002f34: 00100593     	li	a1, 0x1
30002f38: da9fe0ef     	jal	0x30001ce0 <gpio_set_level>
30002f3c: 02200513     	li	a0, 0x22
30002f40: e6dfe0ef     	jal	0x30001dac <qspi_write_8>
30002f44: 00042503     	lw	a0, 0x0(s0)
30002f48: 00100593     	li	a1, 0x1
30002f4c: d95fe0ef     	jal	0x30001ce0 <gpio_set_level>
30002f50: 01f00513     	li	a0, 0x1f
30002f54: e59fe0ef     	jal	0x30001dac <qspi_write_8>
30002f58: 00042503     	lw	a0, 0x0(s0)
30002f5c: 00100593     	li	a1, 0x1
30002f60: d81fe0ef     	jal	0x30001ce0 <gpio_set_level>
30002f64: 01b00513     	li	a0, 0x1b
30002f68: e45fe0ef     	jal	0x30001dac <qspi_write_8>
30002f6c: 00042503     	lw	a0, 0x0(s0)
30002f70: 00100593     	li	a1, 0x1
30002f74: d6dfe0ef     	jal	0x30001ce0 <gpio_set_level>
30002f78: 02300513     	li	a0, 0x23
30002f7c: e31fe0ef     	jal	0x30001dac <qspi_write_8>
30002f80: 00042503     	lw	a0, 0x0(s0)
30002f84: 00100593     	li	a1, 0x1
30002f88: d59fe0ef     	jal	0x30001ce0 <gpio_set_level>
30002f8c: 03700513     	li	a0, 0x37
30002f90: e1dfe0ef     	jal	0x30001dac <qspi_write_8>
30002f94: 00042503     	lw	a0, 0x0(s0)
30002f98: 00100593     	li	a1, 0x1
30002f9c: d45fe0ef     	jal	0x30001ce0 <gpio_set_level>
30002fa0: 00000513     	li	a0, 0x0
30002fa4: e09fe0ef     	jal	0x30001dac <qspi_write_8>
30002fa8: 00042503     	lw	a0, 0x0(s0)
30002fac: 00100593     	li	a1, 0x1
30002fb0: d31fe0ef     	jal	0x30001ce0 <gpio_set_level>
30002fb4: 00700513     	li	a0, 0x7
30002fb8: df5fe0ef     	jal	0x30001dac <qspi_write_8>
30002fbc: 00042503     	lw	a0, 0x0(s0)
30002fc0: 00100593     	li	a1, 0x1
30002fc4: d1dfe0ef     	jal	0x30001ce0 <gpio_set_level>
30002fc8: 00200513     	li	a0, 0x2
30002fcc: de1fe0ef     	jal	0x30001dac <qspi_write_8>
30002fd0: 00042503     	lw	a0, 0x0(s0)
30002fd4: 00100593     	li	a1, 0x1
30002fd8: d09fe0ef     	jal	0x30001ce0 <gpio_set_level>
30002fdc: 01000513     	li	a0, 0x10
30002fe0: dcdfe0ef     	jal	0x30001dac <qspi_write_8>
30002fe4: 00042503     	lw	a0, 0x0(s0)
30002fe8: 00000593     	li	a1, 0x0
30002fec: cf5fe0ef     	jal	0x30001ce0 <gpio_set_level>
30002ff0: 0e100513     	li	a0, 0xe1
30002ff4: db9fe0ef     	jal	0x30001dac <qspi_write_8>
30002ff8: 00042503     	lw	a0, 0x0(s0)
30002ffc: 00100593     	li	a1, 0x1
30003000: ce1fe0ef     	jal	0x30001ce0 <gpio_set_level>
30003004: 00f00513     	li	a0, 0xf
30003008: da5fe0ef     	jal	0x30001dac <qspi_write_8>
3000300c: 00042503     	lw	a0, 0x0(s0)
30003010: 00100593     	li	a1, 0x1
30003014: ccdfe0ef     	jal	0x30001ce0 <gpio_set_level>
30003018: 01b00513     	li	a0, 0x1b
3000301c: d91fe0ef     	jal	0x30001dac <qspi_write_8>
30003020: 00042503     	lw	a0, 0x0(s0)
30003024: 00100593     	li	a1, 0x1
30003028: cb9fe0ef     	jal	0x30001ce0 <gpio_set_level>
3000302c: 00f00513     	li	a0, 0xf
30003030: d7dfe0ef     	jal	0x30001dac <qspi_write_8>
30003034: 00042503     	lw	a0, 0x0(s0)
30003038: 00100593     	li	a1, 0x1
3000303c: ca5fe0ef     	jal	0x30001ce0 <gpio_set_level>
30003040: 01700513     	li	a0, 0x17
30003044: d69fe0ef     	jal	0x30001dac <qspi_write_8>
30003048: 00042503     	lw	a0, 0x0(s0)
3000304c: 00100593     	li	a1, 0x1
30003050: c91fe0ef     	jal	0x30001ce0 <gpio_set_level>
30003054: 03300513     	li	a0, 0x33
30003058: d55fe0ef     	jal	0x30001dac <qspi_write_8>
3000305c: 00042503     	lw	a0, 0x0(s0)
30003060: 00100593     	li	a1, 0x1
30003064: c7dfe0ef     	jal	0x30001ce0 <gpio_set_level>
30003068: 02c00513     	li	a0, 0x2c
3000306c: d41fe0ef     	jal	0x30001dac <qspi_write_8>
30003070: 00042503     	lw	a0, 0x0(s0)
30003074: 00100593     	li	a1, 0x1
30003078: c69fe0ef     	jal	0x30001ce0 <gpio_set_level>
3000307c: 02900513     	li	a0, 0x29
30003080: d2dfe0ef     	jal	0x30001dac <qspi_write_8>
30003084: 00042503     	lw	a0, 0x0(s0)
30003088: 00100593     	li	a1, 0x1
3000308c: c55fe0ef     	jal	0x30001ce0 <gpio_set_level>
30003090: 02e00513     	li	a0, 0x2e
30003094: d19fe0ef     	jal	0x30001dac <qspi_write_8>
30003098: 00042503     	lw	a0, 0x0(s0)
3000309c: 00100593     	li	a1, 0x1
300030a0: c41fe0ef     	jal	0x30001ce0 <gpio_set_level>
300030a4: 03000513     	li	a0, 0x30
300030a8: d05fe0ef     	jal	0x30001dac <qspi_write_8>
300030ac: 00042503     	lw	a0, 0x0(s0)
300030b0: 00100593     	li	a1, 0x1
300030b4: c2dfe0ef     	jal	0x30001ce0 <gpio_set_level>
300030b8: 03000513     	li	a0, 0x30
300030bc: cf1fe0ef     	jal	0x30001dac <qspi_write_8>
300030c0: 00042503     	lw	a0, 0x0(s0)
300030c4: 00100593     	li	a1, 0x1
300030c8: c19fe0ef     	jal	0x30001ce0 <gpio_set_level>
300030cc: 03900513     	li	a0, 0x39
300030d0: cddfe0ef     	jal	0x30001dac <qspi_write_8>
300030d4: 00042503     	lw	a0, 0x0(s0)
300030d8: 00100593     	li	a1, 0x1
300030dc: c05fe0ef     	jal	0x30001ce0 <gpio_set_level>
300030e0: 03f00513     	li	a0, 0x3f
300030e4: cc9fe0ef     	jal	0x30001dac <qspi_write_8>
300030e8: 00042503     	lw	a0, 0x0(s0)
300030ec: 00100593     	li	a1, 0x1
300030f0: bf1fe0ef     	jal	0x30001ce0 <gpio_set_level>
300030f4: 00000513     	li	a0, 0x0
300030f8: cb5fe0ef     	jal	0x30001dac <qspi_write_8>
300030fc: 00042503     	lw	a0, 0x0(s0)
30003100: 00100593     	li	a1, 0x1
30003104: bddfe0ef     	jal	0x30001ce0 <gpio_set_level>
30003108: 00700513     	li	a0, 0x7
3000310c: ca1fe0ef     	jal	0x30001dac <qspi_write_8>
30003110: 00042503     	lw	a0, 0x0(s0)
30003114: 00100593     	li	a1, 0x1
30003118: bc9fe0ef     	jal	0x30001ce0 <gpio_set_level>
3000311c: 00300513     	li	a0, 0x3
30003120: c8dfe0ef     	jal	0x30001dac <qspi_write_8>
30003124: 00042503     	lw	a0, 0x0(s0)
30003128: 00100593     	li	a1, 0x1
3000312c: bb5fe0ef     	jal	0x30001ce0 <gpio_set_level>
30003130: 01000513     	li	a0, 0x10
30003134: c79fe0ef     	jal	0x30001dac <qspi_write_8>
30003138: 30005537     	lui	a0, 0x30005
3000313c: c7850513     	addi	a0, a0, -0x388
30003140: 901fe0ef     	jal	0x30001a40 <printf>
30003144: 00042503     	lw	a0, 0x0(s0)
30003148: 00000593     	li	a1, 0x0
3000314c: b95fe0ef     	jal	0x30001ce0 <gpio_set_level>
30003150: 0f000513     	li	a0, 0xf0
30003154: c59fe0ef     	jal	0x30001dac <qspi_write_8>
30003158: 00042503     	lw	a0, 0x0(s0)
3000315c: 00100593     	li	a1, 0x1
30003160: b81fe0ef     	jal	0x30001ce0 <gpio_set_level>
30003164: 00100513     	li	a0, 0x1
30003168: c45fe0ef     	jal	0x30001dac <qspi_write_8>
3000316c: 00042503     	lw	a0, 0x0(s0)
30003170: 00000593     	li	a1, 0x0
30003174: b6dfe0ef     	jal	0x30001ce0 <gpio_set_level>
30003178: 0f600513     	li	a0, 0xf6
3000317c: c31fe0ef     	jal	0x30001dac <qspi_write_8>
30003180: 00042503     	lw	a0, 0x0(s0)
30003184: 00100593     	li	a1, 0x1
30003188: b59fe0ef     	jal	0x30001ce0 <gpio_set_level>
3000318c: 00000513     	li	a0, 0x0
30003190: c1dfe0ef     	jal	0x30001dac <qspi_write_8>
30003194: 00042503     	lw	a0, 0x0(s0)
30003198: 00000593     	li	a1, 0x0
3000319c: b45fe0ef     	jal	0x30001ce0 <gpio_set_level>
300031a0: 03a00513     	li	a0, 0x3a
300031a4: c09fe0ef     	jal	0x30001dac <qspi_write_8>
300031a8: 00042503     	lw	a0, 0x0(s0)
300031ac: 00100593     	li	a1, 0x1
300031b0: b31fe0ef     	jal	0x30001ce0 <gpio_set_level>
300031b4: 00500513     	li	a0, 0x5
300031b8: bf5fe0ef     	jal	0x30001dac <qspi_write_8>
300031bc: 00042503     	lw	a0, 0x0(s0)
300031c0: 00000593     	li	a1, 0x0
300031c4: b1dfe0ef     	jal	0x30001ce0 <gpio_set_level>
300031c8: 02900513     	li	a0, 0x29
300031cc: be1fe0ef     	jal	0x30001dac <qspi_write_8>
300031d0: 08000693     	li	a3, 0x80
300031d4: 08000713     	li	a4, 0x80
300031d8: fff00793     	li	a5, -0x1
300031dc: 00040513     	mv	a0, s0
300031e0: 00000593     	li	a1, 0x0
300031e4: 00000613     	li	a2, 0x0
300031e8: 024000ef     	jal	0x3000320c <st7735_fill>
300031ec: 30005537     	lui	a0, 0x30005
300031f0: aa850513     	addi	a0, a0, -0x558
300031f4: 84dfe0ef     	jal	0x30001a40 <printf>
300031f8: 01c12083     	lw	ra, 0x1c(sp)
300031fc: 01812403     	lw	s0, 0x18(sp)
30003200: 01412483     	lw	s1, 0x14(sp)
30003204: 02010113     	addi	sp, sp, 0x20
30003208: 00008067     	ret

3000320c <st7735_fill>:
3000320c: f8010113     	addi	sp, sp, -0x80
30003210: 06112e23     	sw	ra, 0x7c(sp)
30003214: 06812c23     	sw	s0, 0x78(sp)
30003218: 06912a23     	sw	s1, 0x74(sp)
3000321c: 07212823     	sw	s2, 0x70(sp)
30003220: 07312623     	sw	s3, 0x6c(sp)
30003224: 07412423     	sw	s4, 0x68(sp)
30003228: 07512223     	sw	s5, 0x64(sp)
3000322c: 07612023     	sw	s6, 0x60(sp)
30003230: 00078413     	mv	s0, a5
30003234: 00070493     	mv	s1, a4
30003238: 00068913     	mv	s2, a3
3000323c: 00060993     	mv	s3, a2
30003240: 00058a13     	mv	s4, a1
30003244: 00050a93     	mv	s5, a0
30003248: fff68513     	addi	a0, a3, -0x1
3000324c: fff70593     	addi	a1, a4, -0x1
30003250: 00010637     	lui	a2, 0x10
30003254: fff60613     	addi	a2, a2, -0x1
30003258: 00c576b3     	and	a3, a0, a2
3000325c: 00c5f733     	and	a4, a1, a2
30003260: 000a8513     	mv	a0, s5
30003264: 000a0593     	mv	a1, s4
30003268: 00098613     	mv	a2, s3
3000326c: 0e8000ef     	jal	0x30003354 <st7735_addr_set>
30003270: 0a99fe63     	bgeu	s3, s1, 0x3000332c <st7735_fill+0x120>
30003274: 0b2a7c63     	bgeu	s4, s2, 0x3000332c <st7735_fill+0x120>
30003278: 000a0b13     	mv	s6, s4
3000327c: 000aa503     	lw	a0, 0x0(s5)
30003280: 00100593     	li	a1, 0x1
30003284: a5dfe0ef     	jal	0x30001ce0 <gpio_set_level>
30003288: 04812823     	sw	s0, 0x50(sp)
3000328c: 04812a23     	sw	s0, 0x54(sp)
30003290: 04812c23     	sw	s0, 0x58(sp)
30003294: 04812e23     	sw	s0, 0x5c(sp)
30003298: 04812023     	sw	s0, 0x40(sp)
3000329c: 04812223     	sw	s0, 0x44(sp)
300032a0: 04812423     	sw	s0, 0x48(sp)
300032a4: 04812623     	sw	s0, 0x4c(sp)
300032a8: 02812823     	sw	s0, 0x30(sp)
300032ac: 02812a23     	sw	s0, 0x34(sp)
300032b0: 02812c23     	sw	s0, 0x38(sp)
300032b4: 02812e23     	sw	s0, 0x3c(sp)
300032b8: 02812023     	sw	s0, 0x20(sp)
300032bc: 02812223     	sw	s0, 0x24(sp)
300032c0: 02812423     	sw	s0, 0x28(sp)
300032c4: 02812623     	sw	s0, 0x2c(sp)
300032c8: 00812823     	sw	s0, 0x10(sp)
300032cc: 00812a23     	sw	s0, 0x14(sp)
300032d0: 00812c23     	sw	s0, 0x18(sp)
300032d4: 00812e23     	sw	s0, 0x1c(sp)
300032d8: 00812023     	sw	s0, 0x0(sp)
300032dc: 00812223     	sw	s0, 0x4(sp)
300032e0: 00812423     	sw	s0, 0x8(sp)
300032e4: 00812623     	sw	s0, 0xc(sp)
300032e8: 00040513     	mv	a0, s0
300032ec: 00040593     	mv	a1, s0
300032f0: 00040613     	mv	a2, s0
300032f4: 00040693     	mv	a3, s0
300032f8: 00040713     	mv	a4, s0
300032fc: 00040793     	mv	a5, s0
30003300: 00040813     	mv	a6, s0
30003304: 00040893     	mv	a7, s0
30003308: c39fe0ef     	jal	0x30001f40 <qspi_write_32x32>
3000330c: 040b0b13     	addi	s6, s6, 0x40
30003310: 010b1513     	slli	a0, s6, 0x10
30003314: 01055513     	srli	a0, a0, 0x10
30003318: f72562e3     	bltu	a0, s2, 0x3000327c <st7735_fill+0x70>
3000331c: 00198993     	addi	s3, s3, 0x1
30003320: 01099513     	slli	a0, s3, 0x10
30003324: 01055513     	srli	a0, a0, 0x10
30003328: f49568e3     	bltu	a0, s1, 0x30003278 <st7735_fill+0x6c>
3000332c: 07c12083     	lw	ra, 0x7c(sp)
30003330: 07812403     	lw	s0, 0x78(sp)
30003334: 07412483     	lw	s1, 0x74(sp)
30003338: 07012903     	lw	s2, 0x70(sp)
3000333c: 06c12983     	lw	s3, 0x6c(sp)
30003340: 06812a03     	lw	s4, 0x68(sp)
30003344: 06412a83     	lw	s5, 0x64(sp)
30003348: 06012b03     	lw	s6, 0x60(sp)
3000334c: 08010113     	addi	sp, sp, 0x80
30003350: 00008067     	ret

30003354 <st7735_addr_set>:
30003354: fe010113     	addi	sp, sp, -0x20
30003358: 00112e23     	sw	ra, 0x1c(sp)
3000335c: 00812c23     	sw	s0, 0x18(sp)
30003360: 00912a23     	sw	s1, 0x14(sp)
30003364: 01212823     	sw	s2, 0x10(sp)
30003368: 01312623     	sw	s3, 0xc(sp)
3000336c: 01412423     	sw	s4, 0x8(sp)
30003370: 01512223     	sw	s5, 0x4(sp)
30003374: 00070493     	mv	s1, a4
30003378: 00068993     	mv	s3, a3
3000337c: 00060913     	mv	s2, a2
30003380: 00050413     	mv	s0, a0
30003384: 00052503     	lw	a0, 0x0(a0)
30003388: 00058a13     	mv	s4, a1
3000338c: 00000593     	li	a1, 0x0
30003390: 951fe0ef     	jal	0x30001ce0 <gpio_set_level>
30003394: 02a00513     	li	a0, 0x2a
30003398: a15fe0ef     	jal	0x30001dac <qspi_write_8>
3000339c: 01044583     	lbu	a1, 0x10(s0)
300033a0: 00042503     	lw	a0, 0x0(s0)
300033a4: 00ba0a33     	add	s4, s4, a1
300033a8: 00100593     	li	a1, 0x1
300033ac: 935fe0ef     	jal	0x30001ce0 <gpio_set_level>
300033b0: 00010537     	lui	a0, 0x10
300033b4: fff50a93     	addi	s5, a0, -0x1
300033b8: 015a7533     	and	a0, s4, s5
300033bc: a1dfe0ef     	jal	0x30001dd8 <qspi_write_16>
300033c0: 01044583     	lbu	a1, 0x10(s0)
300033c4: 00042503     	lw	a0, 0x0(s0)
300033c8: 00b989b3     	add	s3, s3, a1
300033cc: 00100593     	li	a1, 0x1
300033d0: 911fe0ef     	jal	0x30001ce0 <gpio_set_level>
300033d4: 0159f533     	and	a0, s3, s5
300033d8: a01fe0ef     	jal	0x30001dd8 <qspi_write_16>
300033dc: 00042503     	lw	a0, 0x0(s0)
300033e0: 00000593     	li	a1, 0x0
300033e4: 8fdfe0ef     	jal	0x30001ce0 <gpio_set_level>
300033e8: 02b00513     	li	a0, 0x2b
300033ec: 9c1fe0ef     	jal	0x30001dac <qspi_write_8>
300033f0: 01144583     	lbu	a1, 0x11(s0)
300033f4: 00042503     	lw	a0, 0x0(s0)
300033f8: 00b90933     	add	s2, s2, a1
300033fc: 00100593     	li	a1, 0x1
30003400: 8e1fe0ef     	jal	0x30001ce0 <gpio_set_level>
30003404: 01597533     	and	a0, s2, s5
30003408: 9d1fe0ef     	jal	0x30001dd8 <qspi_write_16>
3000340c: 01144583     	lbu	a1, 0x11(s0)
30003410: 00042503     	lw	a0, 0x0(s0)
30003414: 00b484b3     	add	s1, s1, a1
30003418: 00100593     	li	a1, 0x1
3000341c: 8c5fe0ef     	jal	0x30001ce0 <gpio_set_level>
30003420: 0154f533     	and	a0, s1, s5
30003424: 9b5fe0ef     	jal	0x30001dd8 <qspi_write_16>
30003428: 00042503     	lw	a0, 0x0(s0)
3000342c: 00000593     	li	a1, 0x0
30003430: 8b1fe0ef     	jal	0x30001ce0 <gpio_set_level>
30003434: 02c00513     	li	a0, 0x2c
30003438: 01c12083     	lw	ra, 0x1c(sp)
3000343c: 01812403     	lw	s0, 0x18(sp)
30003440: 01412483     	lw	s1, 0x14(sp)
30003444: 01012903     	lw	s2, 0x10(sp)
30003448: 00c12983     	lw	s3, 0xc(sp)
3000344c: 00812a03     	lw	s4, 0x8(sp)
30003450: 00412a83     	lw	s5, 0x4(sp)
30003454: 02010113     	addi	sp, sp, 0x20
30003458: 955fe06f     	j	0x30001dac <qspi_write_8>

3000345c <st7735_fill_img>:
3000345c: f1010113     	addi	sp, sp, -0xf0
30003460: 0e112623     	sw	ra, 0xec(sp)
30003464: 0e812423     	sw	s0, 0xe8(sp)
30003468: 0e912223     	sw	s1, 0xe4(sp)
3000346c: 0f212023     	sw	s2, 0xe0(sp)
30003470: 0d312e23     	sw	s3, 0xdc(sp)
30003474: 0d412c23     	sw	s4, 0xd8(sp)
30003478: 0d512a23     	sw	s5, 0xd4(sp)
3000347c: 0d612823     	sw	s6, 0xd0(sp)
30003480: 0d712623     	sw	s7, 0xcc(sp)
30003484: 0d812423     	sw	s8, 0xc8(sp)
30003488: 0d912223     	sw	s9, 0xc4(sp)
3000348c: 0da12023     	sw	s10, 0xc0(sp)
30003490: 0bb12e23     	sw	s11, 0xbc(sp)
30003494: 00078493     	mv	s1, a5
30003498: 00d586b3     	add	a3, a1, a3
3000349c: 00e60733     	add	a4, a2, a4
300034a0: 000107b7     	lui	a5, 0x10
300034a4: fff68693     	addi	a3, a3, -0x1
300034a8: fff70713     	addi	a4, a4, -0x1
300034ac: fff78793     	addi	a5, a5, -0x1
300034b0: 00f6f6b3     	and	a3, a3, a5
300034b4: 00f77733     	and	a4, a4, a5
300034b8: 06a12223     	sw	a0, 0x64(sp)
300034bc: e99ff0ef     	jal	0x30003354 <st7735_addr_set>
300034c0: 04048c93     	addi	s9, s1, 0x40
300034c4: 00008537     	lui	a0, 0x8
300034c8: 04050513     	addi	a0, a0, 0x40
300034cc: 00a48533     	add	a0, s1, a0
300034d0: 06a12023     	sw	a0, 0x60(sp)
300034d4: fc0ca503     	lw	a0, -0x40(s9)
300034d8: 0aa12c23     	sw	a0, 0xb8(sp)
300034dc: fc4ca503     	lw	a0, -0x3c(s9)
300034e0: 0aa12a23     	sw	a0, 0xb4(sp)
300034e4: fc8ca503     	lw	a0, -0x38(s9)
300034e8: 0aa12823     	sw	a0, 0xb0(sp)
300034ec: fccca503     	lw	a0, -0x34(s9)
300034f0: 0aa12623     	sw	a0, 0xac(sp)
300034f4: fd0ca503     	lw	a0, -0x30(s9)
300034f8: 0aa12423     	sw	a0, 0xa8(sp)
300034fc: fd4ca503     	lw	a0, -0x2c(s9)
30003500: 0aa12223     	sw	a0, 0xa4(sp)
30003504: fd8ca503     	lw	a0, -0x28(s9)
30003508: 0aa12023     	sw	a0, 0xa0(sp)
3000350c: fdcca503     	lw	a0, -0x24(s9)
30003510: 08a12e23     	sw	a0, 0x9c(sp)
30003514: fe0ca503     	lw	a0, -0x20(s9)
30003518: 08a12c23     	sw	a0, 0x98(sp)
3000351c: fe4ca503     	lw	a0, -0x1c(s9)
30003520: 08a12a23     	sw	a0, 0x94(sp)
30003524: fe8ca503     	lw	a0, -0x18(s9)
30003528: 08a12823     	sw	a0, 0x90(sp)
3000352c: fecca503     	lw	a0, -0x14(s9)
30003530: 08a12623     	sw	a0, 0x8c(sp)
30003534: ff0ca503     	lw	a0, -0x10(s9)
30003538: 08a12423     	sw	a0, 0x88(sp)
3000353c: ff4ca503     	lw	a0, -0xc(s9)
30003540: 08a12223     	sw	a0, 0x84(sp)
30003544: ff8ca503     	lw	a0, -0x8(s9)
30003548: 08a12023     	sw	a0, 0x80(sp)
3000354c: ffcca503     	lw	a0, -0x4(s9)
30003550: 06a12e23     	sw	a0, 0x7c(sp)
30003554: 000ca503     	lw	a0, 0x0(s9)
30003558: 06a12c23     	sw	a0, 0x78(sp)
3000355c: 004ca503     	lw	a0, 0x4(s9)
30003560: 06a12a23     	sw	a0, 0x74(sp)
30003564: 008ca503     	lw	a0, 0x8(s9)
30003568: 06a12823     	sw	a0, 0x70(sp)
3000356c: 00cca503     	lw	a0, 0xc(s9)
30003570: 06a12623     	sw	a0, 0x6c(sp)
30003574: 010ca503     	lw	a0, 0x10(s9)
30003578: 06a12423     	sw	a0, 0x68(sp)
3000357c: 014cad03     	lw	s10, 0x14(s9)
30003580: 018cad83     	lw	s11, 0x18(s9)
30003584: 01cca903     	lw	s2, 0x1c(s9)
30003588: 020ca983     	lw	s3, 0x20(s9)
3000358c: 024caa03     	lw	s4, 0x24(s9)
30003590: 028caa83     	lw	s5, 0x28(s9)
30003594: 02cca403     	lw	s0, 0x2c(s9)
30003598: 030cab03     	lw	s6, 0x30(s9)
3000359c: 034cab83     	lw	s7, 0x34(s9)
300035a0: 038cac03     	lw	s8, 0x38(s9)
300035a4: 03cca483     	lw	s1, 0x3c(s9)
300035a8: 06412503     	lw	a0, 0x64(sp)
300035ac: 00052503     	lw	a0, 0x0(a0)
300035b0: 00100593     	li	a1, 0x1
300035b4: f2cfe0ef     	jal	0x30001ce0 <gpio_set_level>
300035b8: 05612823     	sw	s6, 0x50(sp)
300035bc: 05712a23     	sw	s7, 0x54(sp)
300035c0: 05812c23     	sw	s8, 0x58(sp)
300035c4: 04912e23     	sw	s1, 0x5c(sp)
300035c8: 05312023     	sw	s3, 0x40(sp)
300035cc: 05412223     	sw	s4, 0x44(sp)
300035d0: 05512423     	sw	s5, 0x48(sp)
300035d4: 04812623     	sw	s0, 0x4c(sp)
300035d8: 06812503     	lw	a0, 0x68(sp)
300035dc: 02a12823     	sw	a0, 0x30(sp)
300035e0: 03a12a23     	sw	s10, 0x34(sp)
300035e4: 03b12c23     	sw	s11, 0x38(sp)
300035e8: 03212e23     	sw	s2, 0x3c(sp)
300035ec: 07812503     	lw	a0, 0x78(sp)
300035f0: 02a12023     	sw	a0, 0x20(sp)
300035f4: 07412503     	lw	a0, 0x74(sp)
300035f8: 02a12223     	sw	a0, 0x24(sp)
300035fc: 07012503     	lw	a0, 0x70(sp)
30003600: 02a12423     	sw	a0, 0x28(sp)
30003604: 06c12503     	lw	a0, 0x6c(sp)
30003608: 02a12623     	sw	a0, 0x2c(sp)
3000360c: 08812503     	lw	a0, 0x88(sp)
30003610: 00a12823     	sw	a0, 0x10(sp)
30003614: 08412503     	lw	a0, 0x84(sp)
30003618: 00a12a23     	sw	a0, 0x14(sp)
3000361c: 08012503     	lw	a0, 0x80(sp)
30003620: 00a12c23     	sw	a0, 0x18(sp)
30003624: 07c12503     	lw	a0, 0x7c(sp)
30003628: 00a12e23     	sw	a0, 0x1c(sp)
3000362c: 09812503     	lw	a0, 0x98(sp)
30003630: 00a12023     	sw	a0, 0x0(sp)
30003634: 09412503     	lw	a0, 0x94(sp)
30003638: 00a12223     	sw	a0, 0x4(sp)
3000363c: 09012503     	lw	a0, 0x90(sp)
30003640: 00a12423     	sw	a0, 0x8(sp)
30003644: 08c12503     	lw	a0, 0x8c(sp)
30003648: 00a12623     	sw	a0, 0xc(sp)
3000364c: 0b812503     	lw	a0, 0xb8(sp)
30003650: 0b412583     	lw	a1, 0xb4(sp)
30003654: 0b012603     	lw	a2, 0xb0(sp)
30003658: 0ac12683     	lw	a3, 0xac(sp)
3000365c: 0a812703     	lw	a4, 0xa8(sp)
30003660: 0a412783     	lw	a5, 0xa4(sp)
30003664: 0a012803     	lw	a6, 0xa0(sp)
30003668: 09c12883     	lw	a7, 0x9c(sp)
3000366c: 8d5fe0ef     	jal	0x30001f40 <qspi_write_32x32>
30003670: 080c8c93     	addi	s9, s9, 0x80
30003674: 06012503     	lw	a0, 0x60(sp)
30003678: e4ac9ee3     	bne	s9, a0, 0x300034d4 <st7735_fill_img+0x78>
3000367c: 0ec12083     	lw	ra, 0xec(sp)
30003680: 0e812403     	lw	s0, 0xe8(sp)
30003684: 0e412483     	lw	s1, 0xe4(sp)
30003688: 0e012903     	lw	s2, 0xe0(sp)
3000368c: 0dc12983     	lw	s3, 0xdc(sp)
30003690: 0d812a03     	lw	s4, 0xd8(sp)
30003694: 0d412a83     	lw	s5, 0xd4(sp)
30003698: 0d012b03     	lw	s6, 0xd0(sp)
3000369c: 0cc12b83     	lw	s7, 0xcc(sp)
300036a0: 0c812c03     	lw	s8, 0xc8(sp)
300036a4: 0c412c83     	lw	s9, 0xc4(sp)
300036a8: 0c012d03     	lw	s10, 0xc0(sp)
300036ac: 0bc12d83     	lw	s11, 0xbc(sp)
300036b0: 0f010113     	addi	sp, sp, 0xf0
300036b4: 00008067     	ret

300036b8 <sgp30_read_serial_id>:
300036b8: 46050463     	beqz	a0, 0x30003b20 <sgp30_read_serial_id+0x468>
300036bc: fe010113     	addi	sp, sp, -0x20
300036c0: 00112e23     	sw	ra, 0x1c(sp)
300036c4: 00812c23     	sw	s0, 0x18(sp)
300036c8: 00050413     	mv	s0, a0
300036cc: 00012623     	sw	zero, 0xc(sp)
300036d0: 00012823     	sw	zero, 0x10(sp)
300036d4: 00010a23     	sb	zero, 0x14(sp)
300036d8: 000035b7     	lui	a1, 0x3
300036dc: 05800513     	li	a0, 0x58
300036e0: 01000613     	li	a2, 0x10
300036e4: 00c10693     	addi	a3, sp, 0xc
300036e8: 68258593     	addi	a1, a1, 0x682
300036ec: 00900713     	li	a4, 0x9
300036f0: c51fe0ef     	jal	0x30002340 <i2c_read_nbyte>
300036f4: 00c10503     	lb	a0, 0xc(sp)
300036f8: 00d14583     	lbu	a1, 0xd(sp)
300036fc: 00e14603     	lbu	a2, 0xe(sp)
30003700: fff54693     	not	a3, a0
30003704: 00052713     	slti	a4, a0, 0x0
30003708: 01969793     	slli	a5, a3, 0x19
3000370c: 00169813     	slli	a6, a3, 0x1
30003710: fff70713     	addi	a4, a4, -0x1
30003714: 01a69693     	slli	a3, a3, 0x1a
30003718: 03177713     	andi	a4, a4, 0x31
3000371c: 41f7d793     	srai	a5, a5, 0x1f
30003720: 41f6d693     	srai	a3, a3, 0x1f
30003724: 00e84733     	xor	a4, a6, a4
30003728: 0317f793     	andi	a5, a5, 0x31
3000372c: 0316f693     	andi	a3, a3, 0x31
30003730: 00171813     	slli	a6, a4, 0x1
30003734: 01a71713     	slli	a4, a4, 0x1a
30003738: 00f847b3     	xor	a5, a6, a5
3000373c: 41f75713     	srai	a4, a4, 0x1f
30003740: 00179813     	slli	a6, a5, 0x1
30003744: 01a79793     	slli	a5, a5, 0x1a
30003748: 03177713     	andi	a4, a4, 0x31
3000374c: 00d846b3     	xor	a3, a6, a3
30003750: 41f7d793     	srai	a5, a5, 0x1f
30003754: 00169813     	slli	a6, a3, 0x1
30003758: 01a69693     	slli	a3, a3, 0x1a
3000375c: 0317f793     	andi	a5, a5, 0x31
30003760: 00e84733     	xor	a4, a6, a4
30003764: 41f6d693     	srai	a3, a3, 0x1f
30003768: 00171813     	slli	a6, a4, 0x1
3000376c: 01a71713     	slli	a4, a4, 0x1a
30003770: 0c46f693     	andi	a3, a3, 0xc4
30003774: 00f847b3     	xor	a5, a6, a5
30003778: 41f75713     	srai	a4, a4, 0x1f
3000377c: 01a79813     	slli	a6, a5, 0x1a
30003780: 00379793     	slli	a5, a5, 0x3
30003784: 06277713     	andi	a4, a4, 0x62
30003788: 00d7c6b3     	xor	a3, a5, a3
3000378c: 41f85793     	srai	a5, a6, 0x1f
30003790: 00e6c6b3     	xor	a3, a3, a4
30003794: 0317f713     	andi	a4, a5, 0x31
30003798: 00e6c6b3     	xor	a3, a3, a4
3000379c: 00b6c6b3     	xor	a3, a3, a1
300037a0: 01869713     	slli	a4, a3, 0x18
300037a4: 01969793     	slli	a5, a3, 0x19
300037a8: 00169813     	slli	a6, a3, 0x1
300037ac: 01a69693     	slli	a3, a3, 0x1a
300037b0: 41f75713     	srai	a4, a4, 0x1f
300037b4: 41f7d793     	srai	a5, a5, 0x1f
300037b8: 41f6d693     	srai	a3, a3, 0x1f
300037bc: 03177713     	andi	a4, a4, 0x31
300037c0: 0317f793     	andi	a5, a5, 0x31
300037c4: 0316f693     	andi	a3, a3, 0x31
300037c8: 00e84733     	xor	a4, a6, a4
300037cc: 00171813     	slli	a6, a4, 0x1
300037d0: 01a71713     	slli	a4, a4, 0x1a
300037d4: 00f847b3     	xor	a5, a6, a5
300037d8: 41f75713     	srai	a4, a4, 0x1f
300037dc: 00179813     	slli	a6, a5, 0x1
300037e0: 01a79793     	slli	a5, a5, 0x1a
300037e4: 03177713     	andi	a4, a4, 0x31
300037e8: 00d846b3     	xor	a3, a6, a3
300037ec: 41f7d793     	srai	a5, a5, 0x1f
300037f0: 00169813     	slli	a6, a3, 0x1
300037f4: 01a69693     	slli	a3, a3, 0x1a
300037f8: 0317f793     	andi	a5, a5, 0x31
300037fc: 00e84733     	xor	a4, a6, a4
30003800: 41f6d693     	srai	a3, a3, 0x1f
30003804: 00171813     	slli	a6, a4, 0x1
30003808: 0c46f693     	andi	a3, a3, 0xc4
3000380c: 00f847b3     	xor	a5, a6, a5
30003810: 00379813     	slli	a6, a5, 0x3
30003814: 00d846b3     	xor	a3, a6, a3
30003818: 01a71713     	slli	a4, a4, 0x1a
3000381c: 41f75713     	srai	a4, a4, 0x1f
30003820: 01a79793     	slli	a5, a5, 0x1a
30003824: 06277713     	andi	a4, a4, 0x62
30003828: 41f7d793     	srai	a5, a5, 0x1f
3000382c: 00e6c6b3     	xor	a3, a3, a4
30003830: 0317f713     	andi	a4, a5, 0x31
30003834: 00e6c6b3     	xor	a3, a3, a4
30003838: 0ff6f693     	zext.b	a3, a3
3000383c: 2cc69a63     	bne	a3, a2, 0x30003b10 <sgp30_read_serial_id+0x458>
30003840: 00f10603     	lb	a2, 0xf(sp)
30003844: 01014683     	lbu	a3, 0x10(sp)
30003848: 01114703     	lbu	a4, 0x11(sp)
3000384c: fff64793     	not	a5, a2
30003850: 00062813     	slti	a6, a2, 0x0
30003854: 01979893     	slli	a7, a5, 0x19
30003858: 00179293     	slli	t0, a5, 0x1
3000385c: fff80813     	addi	a6, a6, -0x1
30003860: 01a79793     	slli	a5, a5, 0x1a
30003864: 03187813     	andi	a6, a6, 0x31
30003868: 41f8d893     	srai	a7, a7, 0x1f
3000386c: 41f7d793     	srai	a5, a5, 0x1f
30003870: 0102c833     	xor	a6, t0, a6
30003874: 0318f893     	andi	a7, a7, 0x31
30003878: 0317f793     	andi	a5, a5, 0x31
3000387c: 00181293     	slli	t0, a6, 0x1
30003880: 01a81813     	slli	a6, a6, 0x1a
30003884: 0112c8b3     	xor	a7, t0, a7
30003888: 41f85813     	srai	a6, a6, 0x1f
3000388c: 00189293     	slli	t0, a7, 0x1
30003890: 01a89893     	slli	a7, a7, 0x1a
30003894: 03187813     	andi	a6, a6, 0x31
30003898: 00f2c7b3     	xor	a5, t0, a5
3000389c: 41f8d893     	srai	a7, a7, 0x1f
300038a0: 00179293     	slli	t0, a5, 0x1
300038a4: 01a79793     	slli	a5, a5, 0x1a
300038a8: 0318f893     	andi	a7, a7, 0x31
300038ac: 0102c833     	xor	a6, t0, a6
300038b0: 41f7d793     	srai	a5, a5, 0x1f
300038b4: 00181293     	slli	t0, a6, 0x1
300038b8: 01a81813     	slli	a6, a6, 0x1a
300038bc: 0c47f793     	andi	a5, a5, 0xc4
300038c0: 0112c8b3     	xor	a7, t0, a7
300038c4: 41f85813     	srai	a6, a6, 0x1f
300038c8: 01a89293     	slli	t0, a7, 0x1a
300038cc: 00389893     	slli	a7, a7, 0x3
300038d0: 06287813     	andi	a6, a6, 0x62
300038d4: 00f8c7b3     	xor	a5, a7, a5
300038d8: 41f2d893     	srai	a7, t0, 0x1f
300038dc: 0107c7b3     	xor	a5, a5, a6
300038e0: 0318f813     	andi	a6, a7, 0x31
300038e4: 0107c7b3     	xor	a5, a5, a6
300038e8: 00d7c7b3     	xor	a5, a5, a3
300038ec: 01879813     	slli	a6, a5, 0x18
300038f0: 01979893     	slli	a7, a5, 0x19
300038f4: 00179293     	slli	t0, a5, 0x1
300038f8: 01a79793     	slli	a5, a5, 0x1a
300038fc: 41f85813     	srai	a6, a6, 0x1f
30003900: 41f8d893     	srai	a7, a7, 0x1f
30003904: 41f7d793     	srai	a5, a5, 0x1f
30003908: 03187813     	andi	a6, a6, 0x31
3000390c: 0318f893     	andi	a7, a7, 0x31
30003910: 0317f793     	andi	a5, a5, 0x31
30003914: 0102c833     	xor	a6, t0, a6
30003918: 00181293     	slli	t0, a6, 0x1
3000391c: 01a81813     	slli	a6, a6, 0x1a
30003920: 0112c8b3     	xor	a7, t0, a7
30003924: 41f85813     	srai	a6, a6, 0x1f
30003928: 00189293     	slli	t0, a7, 0x1
3000392c: 01a89893     	slli	a7, a7, 0x1a
30003930: 03187813     	andi	a6, a6, 0x31
30003934: 00f2c7b3     	xor	a5, t0, a5
30003938: 41f8d893     	srai	a7, a7, 0x1f
3000393c: 00179293     	slli	t0, a5, 0x1
30003940: 01a79793     	slli	a5, a5, 0x1a
30003944: 0318f893     	andi	a7, a7, 0x31
30003948: 0102c833     	xor	a6, t0, a6
3000394c: 41f7d793     	srai	a5, a5, 0x1f
30003950: 00181293     	slli	t0, a6, 0x1
30003954: 0c47f793     	andi	a5, a5, 0xc4
30003958: 0112c8b3     	xor	a7, t0, a7
3000395c: 00389293     	slli	t0, a7, 0x3
30003960: 00f2c7b3     	xor	a5, t0, a5
30003964: 01a81813     	slli	a6, a6, 0x1a
30003968: 41f85813     	srai	a6, a6, 0x1f
3000396c: 01a89893     	slli	a7, a7, 0x1a
30003970: 06287813     	andi	a6, a6, 0x62
30003974: 41f8d893     	srai	a7, a7, 0x1f
30003978: 0107c7b3     	xor	a5, a5, a6
3000397c: 0318f813     	andi	a6, a7, 0x31
30003980: 0107c7b3     	xor	a5, a5, a6
30003984: 0ff7f793     	zext.b	a5, a5
30003988: 18e79463     	bne	a5, a4, 0x30003b10 <sgp30_read_serial_id+0x458>
3000398c: 01210703     	lb	a4, 0x12(sp)
30003990: 01314783     	lbu	a5, 0x13(sp)
30003994: 01414803     	lbu	a6, 0x14(sp)
30003998: fff74893     	not	a7, a4
3000399c: 00072293     	slti	t0, a4, 0x0
300039a0: 01989313     	slli	t1, a7, 0x19
300039a4: 00189393     	slli	t2, a7, 0x1
300039a8: fff28293     	addi	t0, t0, -0x1
300039ac: 01a89893     	slli	a7, a7, 0x1a
300039b0: 0312f293     	andi	t0, t0, 0x31
300039b4: 41f35313     	srai	t1, t1, 0x1f
300039b8: 41f8d893     	srai	a7, a7, 0x1f
300039bc: 0053c2b3     	xor	t0, t2, t0
300039c0: 03137313     	andi	t1, t1, 0x31
300039c4: 0318f893     	andi	a7, a7, 0x31
300039c8: 00129393     	slli	t2, t0, 0x1
300039cc: 01a29293     	slli	t0, t0, 0x1a
300039d0: 0063c333     	xor	t1, t2, t1
300039d4: 41f2d293     	srai	t0, t0, 0x1f
300039d8: 00131393     	slli	t2, t1, 0x1
300039dc: 01a31313     	slli	t1, t1, 0x1a
300039e0: 0312f293     	andi	t0, t0, 0x31
300039e4: 0113c8b3     	xor	a7, t2, a7
300039e8: 41f35313     	srai	t1, t1, 0x1f
300039ec: 00189393     	slli	t2, a7, 0x1
300039f0: 01a89893     	slli	a7, a7, 0x1a
300039f4: 03137313     	andi	t1, t1, 0x31
300039f8: 0053c2b3     	xor	t0, t2, t0
300039fc: 41f8d893     	srai	a7, a7, 0x1f
30003a00: 00129393     	slli	t2, t0, 0x1
30003a04: 01a29293     	slli	t0, t0, 0x1a
30003a08: 0c48f893     	andi	a7, a7, 0xc4
30003a0c: 0063c333     	xor	t1, t2, t1
30003a10: 41f2d293     	srai	t0, t0, 0x1f
30003a14: 01a31393     	slli	t2, t1, 0x1a
30003a18: 00331313     	slli	t1, t1, 0x3
30003a1c: 0622f293     	andi	t0, t0, 0x62
30003a20: 011348b3     	xor	a7, t1, a7
30003a24: 41f3d313     	srai	t1, t2, 0x1f
30003a28: 0058c8b3     	xor	a7, a7, t0
30003a2c: 03137293     	andi	t0, t1, 0x31
30003a30: 0058c8b3     	xor	a7, a7, t0
30003a34: 00f8c8b3     	xor	a7, a7, a5
30003a38: 01889293     	slli	t0, a7, 0x18
30003a3c: 01989313     	slli	t1, a7, 0x19
30003a40: 00189393     	slli	t2, a7, 0x1
30003a44: 01a89893     	slli	a7, a7, 0x1a
30003a48: 41f2d293     	srai	t0, t0, 0x1f
30003a4c: 41f35313     	srai	t1, t1, 0x1f
30003a50: 41f8d893     	srai	a7, a7, 0x1f
30003a54: 0312f293     	andi	t0, t0, 0x31
30003a58: 03137313     	andi	t1, t1, 0x31
30003a5c: 0318f893     	andi	a7, a7, 0x31
30003a60: 0053c2b3     	xor	t0, t2, t0
30003a64: 00129393     	slli	t2, t0, 0x1
30003a68: 01a29293     	slli	t0, t0, 0x1a
30003a6c: 0063c333     	xor	t1, t2, t1
30003a70: 41f2d293     	srai	t0, t0, 0x1f
30003a74: 00131393     	slli	t2, t1, 0x1
30003a78: 01a31313     	slli	t1, t1, 0x1a
30003a7c: 0312f293     	andi	t0, t0, 0x31
30003a80: 0113c8b3     	xor	a7, t2, a7
30003a84: 41f35313     	srai	t1, t1, 0x1f
30003a88: 00189393     	slli	t2, a7, 0x1
30003a8c: 01a89893     	slli	a7, a7, 0x1a
30003a90: 03137313     	andi	t1, t1, 0x31
30003a94: 0053c2b3     	xor	t0, t2, t0
30003a98: 41f8d893     	srai	a7, a7, 0x1f
30003a9c: 00129393     	slli	t2, t0, 0x1
30003aa0: 0c48f893     	andi	a7, a7, 0xc4
30003aa4: 0063c333     	xor	t1, t2, t1
30003aa8: 00331393     	slli	t2, t1, 0x3
30003aac: 0113c8b3     	xor	a7, t2, a7
30003ab0: 01a29293     	slli	t0, t0, 0x1a
30003ab4: 41f2d293     	srai	t0, t0, 0x1f
30003ab8: 01a31313     	slli	t1, t1, 0x1a
30003abc: 0622f293     	andi	t0, t0, 0x62
30003ac0: 41f35313     	srai	t1, t1, 0x1f
30003ac4: 0058c8b3     	xor	a7, a7, t0
30003ac8: 03137293     	andi	t0, t1, 0x31
30003acc: 0058c8b3     	xor	a7, a7, t0
30003ad0: 0ff8f893     	zext.b	a7, a7
30003ad4: 03089e63     	bne	a7, a6, 0x30003b10 <sgp30_read_serial_id+0x458>
30003ad8: 0ff57513     	zext.b	a0, a0
30003adc: 01861613     	slli	a2, a2, 0x18
30003ae0: 01069693     	slli	a3, a3, 0x10
30003ae4: 0ff77713     	zext.b	a4, a4
30003ae8: 00851513     	slli	a0, a0, 0x8
30003aec: 00871713     	slli	a4, a4, 0x8
30003af0: 00d66633     	or	a2, a2, a3
30003af4: 00a5e533     	or	a0, a1, a0
30003af8: 00f66633     	or	a2, a2, a5
30003afc: 00e66633     	or	a2, a2, a4
30003b00: 00c42023     	sw	a2, 0x0(s0)
30003b04: 00a42223     	sw	a0, 0x4(s0)
30003b08: 00100513     	li	a0, 0x1
30003b0c: 0080006f     	j	0x30003b14 <sgp30_read_serial_id+0x45c>
30003b10: 00000513     	li	a0, 0x0
30003b14: 01c12083     	lw	ra, 0x1c(sp)
30003b18: 01812403     	lw	s0, 0x18(sp)
30003b1c: 02010113     	addi	sp, sp, 0x20
30003b20: 00008067     	ret

30003b24 <sgp30_read_feature_set>:
30003b24: 1a050263     	beqz	a0, 0x30003cc8 <sgp30_read_feature_set+0x1a4>
30003b28: ff010113     	addi	sp, sp, -0x10
30003b2c: 00112623     	sw	ra, 0xc(sp)
30003b30: 00812423     	sw	s0, 0x8(sp)
30003b34: 00050413     	mv	s0, a0
30003b38: 00011223     	sh	zero, 0x4(sp)
30003b3c: 00010323     	sb	zero, 0x6(sp)
30003b40: 000025b7     	lui	a1, 0x2
30003b44: 05800513     	li	a0, 0x58
30003b48: 01000613     	li	a2, 0x10
30003b4c: 00410693     	addi	a3, sp, 0x4
30003b50: 02f58593     	addi	a1, a1, 0x2f
30003b54: 00300713     	li	a4, 0x3
30003b58: fe8fe0ef     	jal	0x30002340 <i2c_read_nbyte>
30003b5c: 00410503     	lb	a0, 0x4(sp)
30003b60: 00514583     	lbu	a1, 0x5(sp)
30003b64: 00614603     	lbu	a2, 0x6(sp)
30003b68: fff54693     	not	a3, a0
30003b6c: 00052713     	slti	a4, a0, 0x0
30003b70: 01969793     	slli	a5, a3, 0x19
30003b74: 00169813     	slli	a6, a3, 0x1
30003b78: fff70713     	addi	a4, a4, -0x1
30003b7c: 01a69693     	slli	a3, a3, 0x1a
30003b80: 03177713     	andi	a4, a4, 0x31
30003b84: 41f7d793     	srai	a5, a5, 0x1f
30003b88: 41f6d693     	srai	a3, a3, 0x1f
30003b8c: 00e84733     	xor	a4, a6, a4
30003b90: 0317f793     	andi	a5, a5, 0x31
30003b94: 0316f693     	andi	a3, a3, 0x31
30003b98: 00171813     	slli	a6, a4, 0x1
30003b9c: 01a71713     	slli	a4, a4, 0x1a
30003ba0: 00f847b3     	xor	a5, a6, a5
30003ba4: 41f75713     	srai	a4, a4, 0x1f
30003ba8: 00179813     	slli	a6, a5, 0x1
30003bac: 01a79793     	slli	a5, a5, 0x1a
30003bb0: 03177713     	andi	a4, a4, 0x31
30003bb4: 00d846b3     	xor	a3, a6, a3
30003bb8: 41f7d793     	srai	a5, a5, 0x1f
30003bbc: 00169813     	slli	a6, a3, 0x1
30003bc0: 01a69693     	slli	a3, a3, 0x1a
30003bc4: 0317f793     	andi	a5, a5, 0x31
30003bc8: 00e84733     	xor	a4, a6, a4
30003bcc: 41f6d693     	srai	a3, a3, 0x1f
30003bd0: 00171813     	slli	a6, a4, 0x1
30003bd4: 01a71713     	slli	a4, a4, 0x1a
30003bd8: 0c46f693     	andi	a3, a3, 0xc4
30003bdc: 00f847b3     	xor	a5, a6, a5
30003be0: 41f75713     	srai	a4, a4, 0x1f
30003be4: 01a79813     	slli	a6, a5, 0x1a
30003be8: 00379793     	slli	a5, a5, 0x3
30003bec: 06277713     	andi	a4, a4, 0x62
30003bf0: 00d7c6b3     	xor	a3, a5, a3
30003bf4: 41f85793     	srai	a5, a6, 0x1f
30003bf8: 00e6c6b3     	xor	a3, a3, a4
30003bfc: 0317f713     	andi	a4, a5, 0x31
30003c00: 00e6c6b3     	xor	a3, a3, a4
30003c04: 00b6c6b3     	xor	a3, a3, a1
30003c08: 01869713     	slli	a4, a3, 0x18
30003c0c: 01969793     	slli	a5, a3, 0x19
30003c10: 00169813     	slli	a6, a3, 0x1
30003c14: 01a69693     	slli	a3, a3, 0x1a
30003c18: 41f75713     	srai	a4, a4, 0x1f
30003c1c: 41f7d793     	srai	a5, a5, 0x1f
30003c20: 41f6d693     	srai	a3, a3, 0x1f
30003c24: 03177713     	andi	a4, a4, 0x31
30003c28: 0317f793     	andi	a5, a5, 0x31
30003c2c: 0316f693     	andi	a3, a3, 0x31
30003c30: 00e84733     	xor	a4, a6, a4
30003c34: 00171813     	slli	a6, a4, 0x1
30003c38: 01a71713     	slli	a4, a4, 0x1a
30003c3c: 00f847b3     	xor	a5, a6, a5
30003c40: 41f75713     	srai	a4, a4, 0x1f
30003c44: 00179813     	slli	a6, a5, 0x1
30003c48: 01a79793     	slli	a5, a5, 0x1a
30003c4c: 03177713     	andi	a4, a4, 0x31
30003c50: 00d846b3     	xor	a3, a6, a3
30003c54: 41f7d793     	srai	a5, a5, 0x1f
30003c58: 00169813     	slli	a6, a3, 0x1
30003c5c: 01a69693     	slli	a3, a3, 0x1a
30003c60: 0317f793     	andi	a5, a5, 0x31
30003c64: 00e84733     	xor	a4, a6, a4
30003c68: 41f6d693     	srai	a3, a3, 0x1f
30003c6c: 00171813     	slli	a6, a4, 0x1
30003c70: 0c46f693     	andi	a3, a3, 0xc4
30003c74: 00f847b3     	xor	a5, a6, a5
30003c78: 00379813     	slli	a6, a5, 0x3
30003c7c: 00d846b3     	xor	a3, a6, a3
30003c80: 01a71713     	slli	a4, a4, 0x1a
30003c84: 41f75713     	srai	a4, a4, 0x1f
30003c88: 01a79793     	slli	a5, a5, 0x1a
30003c8c: 06277713     	andi	a4, a4, 0x62
30003c90: 41f7d793     	srai	a5, a5, 0x1f
30003c94: 00e6c6b3     	xor	a3, a3, a4
30003c98: 0317f713     	andi	a4, a5, 0x31
30003c9c: 00e6c6b3     	xor	a3, a3, a4
30003ca0: 0ff6f713     	zext.b	a4, a3
30003ca4: 00c746b3     	xor	a3, a4, a2
30003ca8: 00c71863     	bne	a4, a2, 0x30003cb8 <sgp30_read_feature_set+0x194>
30003cac: 00851513     	slli	a0, a0, 0x8
30003cb0: 00b56533     	or	a0, a0, a1
30003cb4: 00a41023     	sh	a0, 0x0(s0)
30003cb8: 0016b513     	seqz	a0, a3
30003cbc: 00c12083     	lw	ra, 0xc(sp)
30003cc0: 00812403     	lw	s0, 0x8(sp)
30003cc4: 01010113     	addi	sp, sp, 0x10
30003cc8: 00008067     	ret

30003ccc <sgp30_init_air_quality>:
30003ccc: ff010113     	addi	sp, sp, -0x10
30003cd0: 00112623     	sw	ra, 0xc(sp)
30003cd4: 000025b7     	lui	a1, 0x2
30003cd8: 05800513     	li	a0, 0x58
30003cdc: 00358593     	addi	a1, a1, 0x3
30003ce0: 01000613     	li	a2, 0x10
30003ce4: 00000693     	li	a3, 0x0
30003ce8: 00000713     	li	a4, 0x0
30003cec: c94fe0ef     	jal	0x30002180 <i2c_write_nbyte>
30003cf0: 00100513     	li	a0, 0x1
30003cf4: 00c12083     	lw	ra, 0xc(sp)
30003cf8: 01010113     	addi	sp, sp, 0x10
30003cfc: 00008067     	ret

30003d00 <sgp30_measure_air_quality>:
30003d00: 30050463     	beqz	a0, 0x30004008 <sgp30_measure_air_quality+0x308>
30003d04: ff010113     	addi	sp, sp, -0x10
30003d08: 00112623     	sw	ra, 0xc(sp)
30003d0c: 00812423     	sw	s0, 0x8(sp)
30003d10: 00050413     	mv	s0, a0
30003d14: 00012023     	sw	zero, 0x0(sp)
30003d18: 00011223     	sh	zero, 0x4(sp)
30003d1c: 00c00513     	li	a0, 0xc
30003d20: b58fe0ef     	jal	0x30002078 <delay_ms>
30003d24: 000025b7     	lui	a1, 0x2
30003d28: 05800513     	li	a0, 0x58
30003d2c: 01000613     	li	a2, 0x10
30003d30: 00010693     	mv	a3, sp
30003d34: 00858593     	addi	a1, a1, 0x8
30003d38: 00600713     	li	a4, 0x6
30003d3c: e04fe0ef     	jal	0x30002340 <i2c_read_nbyte>
30003d40: 00010503     	lb	a0, 0x0(sp)
30003d44: 00114583     	lbu	a1, 0x1(sp)
30003d48: 00214603     	lbu	a2, 0x2(sp)
30003d4c: fff54693     	not	a3, a0
30003d50: 00052713     	slti	a4, a0, 0x0
30003d54: 01969793     	slli	a5, a3, 0x19
30003d58: 00169813     	slli	a6, a3, 0x1
30003d5c: fff70713     	addi	a4, a4, -0x1
30003d60: 01a69693     	slli	a3, a3, 0x1a
30003d64: 03177713     	andi	a4, a4, 0x31
30003d68: 41f7d793     	srai	a5, a5, 0x1f
30003d6c: 41f6d693     	srai	a3, a3, 0x1f
30003d70: 00e84733     	xor	a4, a6, a4
30003d74: 0317f793     	andi	a5, a5, 0x31
30003d78: 0316f693     	andi	a3, a3, 0x31
30003d7c: 00171813     	slli	a6, a4, 0x1
30003d80: 01a71713     	slli	a4, a4, 0x1a
30003d84: 00f847b3     	xor	a5, a6, a5
30003d88: 41f75713     	srai	a4, a4, 0x1f
30003d8c: 00179813     	slli	a6, a5, 0x1
30003d90: 01a79793     	slli	a5, a5, 0x1a
30003d94: 03177713     	andi	a4, a4, 0x31
30003d98: 00d846b3     	xor	a3, a6, a3
30003d9c: 41f7d793     	srai	a5, a5, 0x1f
30003da0: 00169813     	slli	a6, a3, 0x1
30003da4: 01a69693     	slli	a3, a3, 0x1a
30003da8: 0317f793     	andi	a5, a5, 0x31
30003dac: 00e84733     	xor	a4, a6, a4
30003db0: 41f6d693     	srai	a3, a3, 0x1f
30003db4: 00171813     	slli	a6, a4, 0x1
30003db8: 01a71713     	slli	a4, a4, 0x1a
30003dbc: 0c46f693     	andi	a3, a3, 0xc4
30003dc0: 00f847b3     	xor	a5, a6, a5
30003dc4: 41f75713     	srai	a4, a4, 0x1f
30003dc8: 01a79813     	slli	a6, a5, 0x1a
30003dcc: 00379793     	slli	a5, a5, 0x3
30003dd0: 06277713     	andi	a4, a4, 0x62
30003dd4: 00d7c6b3     	xor	a3, a5, a3
30003dd8: 41f85793     	srai	a5, a6, 0x1f
30003ddc: 00e6c6b3     	xor	a3, a3, a4
30003de0: 0317f713     	andi	a4, a5, 0x31
30003de4: 00e6c6b3     	xor	a3, a3, a4
30003de8: 00b6c6b3     	xor	a3, a3, a1
30003dec: 01869713     	slli	a4, a3, 0x18
30003df0: 01969793     	slli	a5, a3, 0x19
30003df4: 00169813     	slli	a6, a3, 0x1
30003df8: 01a69693     	slli	a3, a3, 0x1a
30003dfc: 41f75713     	srai	a4, a4, 0x1f
30003e00: 41f7d793     	srai	a5, a5, 0x1f
30003e04: 41f6d693     	srai	a3, a3, 0x1f
30003e08: 03177713     	andi	a4, a4, 0x31
30003e0c: 0317f793     	andi	a5, a5, 0x31
30003e10: 0316f693     	andi	a3, a3, 0x31
30003e14: 00e84733     	xor	a4, a6, a4
30003e18: 00171813     	slli	a6, a4, 0x1
30003e1c: 01a71713     	slli	a4, a4, 0x1a
30003e20: 00f847b3     	xor	a5, a6, a5
30003e24: 41f75713     	srai	a4, a4, 0x1f
30003e28: 00179813     	slli	a6, a5, 0x1
30003e2c: 01a79793     	slli	a5, a5, 0x1a
30003e30: 03177713     	andi	a4, a4, 0x31
30003e34: 00d846b3     	xor	a3, a6, a3
30003e38: 41f7d793     	srai	a5, a5, 0x1f
30003e3c: 00169813     	slli	a6, a3, 0x1
30003e40: 01a69693     	slli	a3, a3, 0x1a
30003e44: 0317f793     	andi	a5, a5, 0x31
30003e48: 00e84733     	xor	a4, a6, a4
30003e4c: 41f6d693     	srai	a3, a3, 0x1f
30003e50: 00171813     	slli	a6, a4, 0x1
30003e54: 0c46f693     	andi	a3, a3, 0xc4
30003e58: 00f847b3     	xor	a5, a6, a5
30003e5c: 00379813     	slli	a6, a5, 0x3
30003e60: 00d846b3     	xor	a3, a6, a3
30003e64: 01a71713     	slli	a4, a4, 0x1a
30003e68: 41f75713     	srai	a4, a4, 0x1f
30003e6c: 01a79793     	slli	a5, a5, 0x1a
30003e70: 06277713     	andi	a4, a4, 0x62
30003e74: 41f7d793     	srai	a5, a5, 0x1f
30003e78: 00e6c6b3     	xor	a3, a3, a4
30003e7c: 0317f713     	andi	a4, a5, 0x31
30003e80: 00e6c6b3     	xor	a3, a3, a4
30003e84: 0ff6f693     	zext.b	a3, a3
30003e88: 16c69863     	bne	a3, a2, 0x30003ff8 <sgp30_measure_air_quality+0x2f8>
30003e8c: 00310603     	lb	a2, 0x3(sp)
30003e90: 00414683     	lbu	a3, 0x4(sp)
30003e94: 00514703     	lbu	a4, 0x5(sp)
30003e98: fff64793     	not	a5, a2
30003e9c: 00062813     	slti	a6, a2, 0x0
30003ea0: 01979893     	slli	a7, a5, 0x19
30003ea4: 00179293     	slli	t0, a5, 0x1
30003ea8: fff80813     	addi	a6, a6, -0x1
30003eac: 01a79793     	slli	a5, a5, 0x1a
30003eb0: 03187813     	andi	a6, a6, 0x31
30003eb4: 41f8d893     	srai	a7, a7, 0x1f
30003eb8: 41f7d793     	srai	a5, a5, 0x1f
30003ebc: 0102c833     	xor	a6, t0, a6
30003ec0: 0318f893     	andi	a7, a7, 0x31
30003ec4: 0317f793     	andi	a5, a5, 0x31
30003ec8: 00181293     	slli	t0, a6, 0x1
30003ecc: 01a81813     	slli	a6, a6, 0x1a
30003ed0: 0112c8b3     	xor	a7, t0, a7
30003ed4: 41f85813     	srai	a6, a6, 0x1f
30003ed8: 00189293     	slli	t0, a7, 0x1
30003edc: 01a89893     	slli	a7, a7, 0x1a
30003ee0: 03187813     	andi	a6, a6, 0x31
30003ee4: 00f2c7b3     	xor	a5, t0, a5
30003ee8: 41f8d893     	srai	a7, a7, 0x1f
30003eec: 00179293     	slli	t0, a5, 0x1
30003ef0: 01a79793     	slli	a5, a5, 0x1a
30003ef4: 0318f893     	andi	a7, a7, 0x31
30003ef8: 0102c833     	xor	a6, t0, a6
30003efc: 41f7d793     	srai	a5, a5, 0x1f
30003f00: 00181293     	slli	t0, a6, 0x1
30003f04: 01a81813     	slli	a6, a6, 0x1a
30003f08: 0c47f793     	andi	a5, a5, 0xc4
30003f0c: 0112c8b3     	xor	a7, t0, a7
30003f10: 41f85813     	srai	a6, a6, 0x1f
30003f14: 01a89293     	slli	t0, a7, 0x1a
30003f18: 00389893     	slli	a7, a7, 0x3
30003f1c: 06287813     	andi	a6, a6, 0x62
30003f20: 00f8c7b3     	xor	a5, a7, a5
30003f24: 41f2d893     	srai	a7, t0, 0x1f
30003f28: 0107c7b3     	xor	a5, a5, a6
30003f2c: 0318f813     	andi	a6, a7, 0x31
30003f30: 0107c7b3     	xor	a5, a5, a6
30003f34: 00d7c7b3     	xor	a5, a5, a3
30003f38: 01879813     	slli	a6, a5, 0x18
30003f3c: 01979893     	slli	a7, a5, 0x19
30003f40: 00179293     	slli	t0, a5, 0x1
30003f44: 01a79793     	slli	a5, a5, 0x1a
30003f48: 41f85813     	srai	a6, a6, 0x1f
30003f4c: 41f8d893     	srai	a7, a7, 0x1f
30003f50: 41f7d793     	srai	a5, a5, 0x1f
30003f54: 03187813     	andi	a6, a6, 0x31
30003f58: 0318f893     	andi	a7, a7, 0x31
30003f5c: 0317f793     	andi	a5, a5, 0x31
30003f60: 0102c833     	xor	a6, t0, a6
30003f64: 00181293     	slli	t0, a6, 0x1
30003f68: 01a81813     	slli	a6, a6, 0x1a
30003f6c: 0112c8b3     	xor	a7, t0, a7
30003f70: 41f85813     	srai	a6, a6, 0x1f
30003f74: 00189293     	slli	t0, a7, 0x1
30003f78: 01a89893     	slli	a7, a7, 0x1a
30003f7c: 03187813     	andi	a6, a6, 0x31
30003f80: 00f2c7b3     	xor	a5, t0, a5
30003f84: 41f8d893     	srai	a7, a7, 0x1f
30003f88: 00179293     	slli	t0, a5, 0x1
30003f8c: 01a79793     	slli	a5, a5, 0x1a
30003f90: 0318f893     	andi	a7, a7, 0x31
30003f94: 0102c833     	xor	a6, t0, a6
30003f98: 41f7d793     	srai	a5, a5, 0x1f
30003f9c: 00181293     	slli	t0, a6, 0x1
30003fa0: 0c47f793     	andi	a5, a5, 0xc4
30003fa4: 0112c8b3     	xor	a7, t0, a7
30003fa8: 00389293     	slli	t0, a7, 0x3
30003fac: 00f2c7b3     	xor	a5, t0, a5
30003fb0: 01a81813     	slli	a6, a6, 0x1a
30003fb4: 41f85813     	srai	a6, a6, 0x1f
30003fb8: 01a89893     	slli	a7, a7, 0x1a
30003fbc: 06287813     	andi	a6, a6, 0x62
30003fc0: 41f8d893     	srai	a7, a7, 0x1f
30003fc4: 0107c7b3     	xor	a5, a5, a6
30003fc8: 0318f813     	andi	a6, a7, 0x31
30003fcc: 0107c7b3     	xor	a5, a5, a6
30003fd0: 0ff7f793     	zext.b	a5, a5
30003fd4: 02e79263     	bne	a5, a4, 0x30003ff8 <sgp30_measure_air_quality+0x2f8>
30003fd8: 00851513     	slli	a0, a0, 0x8
30003fdc: 00861613     	slli	a2, a2, 0x8
30003fe0: 00b56533     	or	a0, a0, a1
30003fe4: 00d66633     	or	a2, a2, a3
30003fe8: 00a41023     	sh	a0, 0x0(s0)
30003fec: 00c41123     	sh	a2, 0x2(s0)
30003ff0: 00100513     	li	a0, 0x1
30003ff4: 0080006f     	j	0x30003ffc <sgp30_measure_air_quality+0x2fc>
30003ff8: 00000513     	li	a0, 0x0
30003ffc: 00c12083     	lw	ra, 0xc(sp)
30004000: 00812403     	lw	s0, 0x8(sp)
30004004: 01010113     	addi	sp, sp, 0x10
30004008: 00008067     	ret

3000400c <sgp30_get_baseline>:
3000400c: 30050463     	beqz	a0, 0x30004314 <sgp30_get_baseline+0x308>
30004010: ff010113     	addi	sp, sp, -0x10
30004014: 00112623     	sw	ra, 0xc(sp)
30004018: 00812423     	sw	s0, 0x8(sp)
3000401c: 00050413     	mv	s0, a0
30004020: 00012023     	sw	zero, 0x0(sp)
30004024: 00011223     	sh	zero, 0x4(sp)
30004028: 00a00513     	li	a0, 0xa
3000402c: 84cfe0ef     	jal	0x30002078 <delay_ms>
30004030: 000025b7     	lui	a1, 0x2
30004034: 05800513     	li	a0, 0x58
30004038: 01000613     	li	a2, 0x10
3000403c: 00010693     	mv	a3, sp
30004040: 01558593     	addi	a1, a1, 0x15
30004044: 00600713     	li	a4, 0x6
30004048: af8fe0ef     	jal	0x30002340 <i2c_read_nbyte>
3000404c: 00010503     	lb	a0, 0x0(sp)
30004050: 00114583     	lbu	a1, 0x1(sp)
30004054: 00214603     	lbu	a2, 0x2(sp)
30004058: fff54693     	not	a3, a0
3000405c: 00052713     	slti	a4, a0, 0x0
30004060: 01969793     	slli	a5, a3, 0x19
30004064: 00169813     	slli	a6, a3, 0x1
30004068: fff70713     	addi	a4, a4, -0x1
3000406c: 01a69693     	slli	a3, a3, 0x1a
30004070: 03177713     	andi	a4, a4, 0x31
30004074: 41f7d793     	srai	a5, a5, 0x1f
30004078: 41f6d693     	srai	a3, a3, 0x1f
3000407c: 00e84733     	xor	a4, a6, a4
30004080: 0317f793     	andi	a5, a5, 0x31
30004084: 0316f693     	andi	a3, a3, 0x31
30004088: 00171813     	slli	a6, a4, 0x1
3000408c: 01a71713     	slli	a4, a4, 0x1a
30004090: 00f847b3     	xor	a5, a6, a5
30004094: 41f75713     	srai	a4, a4, 0x1f
30004098: 00179813     	slli	a6, a5, 0x1
3000409c: 01a79793     	slli	a5, a5, 0x1a
300040a0: 03177713     	andi	a4, a4, 0x31
300040a4: 00d846b3     	xor	a3, a6, a3
300040a8: 41f7d793     	srai	a5, a5, 0x1f
300040ac: 00169813     	slli	a6, a3, 0x1
300040b0: 01a69693     	slli	a3, a3, 0x1a
300040b4: 0317f793     	andi	a5, a5, 0x31
300040b8: 00e84733     	xor	a4, a6, a4
300040bc: 41f6d693     	srai	a3, a3, 0x1f
300040c0: 00171813     	slli	a6, a4, 0x1
300040c4: 01a71713     	slli	a4, a4, 0x1a
300040c8: 0c46f693     	andi	a3, a3, 0xc4
300040cc: 00f847b3     	xor	a5, a6, a5
300040d0: 41f75713     	srai	a4, a4, 0x1f
300040d4: 01a79813     	slli	a6, a5, 0x1a
300040d8: 00379793     	slli	a5, a5, 0x3
300040dc: 06277713     	andi	a4, a4, 0x62
300040e0: 00d7c6b3     	xor	a3, a5, a3
300040e4: 41f85793     	srai	a5, a6, 0x1f
300040e8: 00e6c6b3     	xor	a3, a3, a4
300040ec: 0317f713     	andi	a4, a5, 0x31
300040f0: 00e6c6b3     	xor	a3, a3, a4
300040f4: 00b6c6b3     	xor	a3, a3, a1
300040f8: 01869713     	slli	a4, a3, 0x18
300040fc: 01969793     	slli	a5, a3, 0x19
30004100: 00169813     	slli	a6, a3, 0x1
30004104: 01a69693     	slli	a3, a3, 0x1a
30004108: 41f75713     	srai	a4, a4, 0x1f
3000410c: 41f7d793     	srai	a5, a5, 0x1f
30004110: 41f6d693     	srai	a3, a3, 0x1f
30004114: 03177713     	andi	a4, a4, 0x31
30004118: 0317f793     	andi	a5, a5, 0x31
3000411c: 0316f693     	andi	a3, a3, 0x31
30004120: 00e84733     	xor	a4, a6, a4
30004124: 00171813     	slli	a6, a4, 0x1
30004128: 01a71713     	slli	a4, a4, 0x1a
3000412c: 00f847b3     	xor	a5, a6, a5
30004130: 41f75713     	srai	a4, a4, 0x1f
30004134: 00179813     	slli	a6, a5, 0x1
30004138: 01a79793     	slli	a5, a5, 0x1a
3000413c: 03177713     	andi	a4, a4, 0x31
30004140: 00d846b3     	xor	a3, a6, a3
30004144: 41f7d793     	srai	a5, a5, 0x1f
30004148: 00169813     	slli	a6, a3, 0x1
3000414c: 01a69693     	slli	a3, a3, 0x1a
30004150: 0317f793     	andi	a5, a5, 0x31
30004154: 00e84733     	xor	a4, a6, a4
30004158: 41f6d693     	srai	a3, a3, 0x1f
3000415c: 00171813     	slli	a6, a4, 0x1
30004160: 0c46f693     	andi	a3, a3, 0xc4
30004164: 00f847b3     	xor	a5, a6, a5
30004168: 00379813     	slli	a6, a5, 0x3
3000416c: 00d846b3     	xor	a3, a6, a3
30004170: 01a71713     	slli	a4, a4, 0x1a
30004174: 41f75713     	srai	a4, a4, 0x1f
30004178: 01a79793     	slli	a5, a5, 0x1a
3000417c: 06277713     	andi	a4, a4, 0x62
30004180: 41f7d793     	srai	a5, a5, 0x1f
30004184: 00e6c6b3     	xor	a3, a3, a4
30004188: 0317f713     	andi	a4, a5, 0x31
3000418c: 00e6c6b3     	xor	a3, a3, a4
30004190: 0ff6f693     	zext.b	a3, a3
30004194: 16c69863     	bne	a3, a2, 0x30004304 <sgp30_get_baseline+0x2f8>
30004198: 00310603     	lb	a2, 0x3(sp)
3000419c: 00414683     	lbu	a3, 0x4(sp)
300041a0: 00514703     	lbu	a4, 0x5(sp)
300041a4: fff64793     	not	a5, a2
300041a8: 00062813     	slti	a6, a2, 0x0
300041ac: 01979893     	slli	a7, a5, 0x19
300041b0: 00179293     	slli	t0, a5, 0x1
300041b4: fff80813     	addi	a6, a6, -0x1
300041b8: 01a79793     	slli	a5, a5, 0x1a
300041bc: 03187813     	andi	a6, a6, 0x31
300041c0: 41f8d893     	srai	a7, a7, 0x1f
300041c4: 41f7d793     	srai	a5, a5, 0x1f
300041c8: 0102c833     	xor	a6, t0, a6
300041cc: 0318f893     	andi	a7, a7, 0x31
300041d0: 0317f793     	andi	a5, a5, 0x31
300041d4: 00181293     	slli	t0, a6, 0x1
300041d8: 01a81813     	slli	a6, a6, 0x1a
300041dc: 0112c8b3     	xor	a7, t0, a7
300041e0: 41f85813     	srai	a6, a6, 0x1f
300041e4: 00189293     	slli	t0, a7, 0x1
300041e8: 01a89893     	slli	a7, a7, 0x1a
300041ec: 03187813     	andi	a6, a6, 0x31
300041f0: 00f2c7b3     	xor	a5, t0, a5
300041f4: 41f8d893     	srai	a7, a7, 0x1f
300041f8: 00179293     	slli	t0, a5, 0x1
300041fc: 01a79793     	slli	a5, a5, 0x1a
30004200: 0318f893     	andi	a7, a7, 0x31
30004204: 0102c833     	xor	a6, t0, a6
30004208: 41f7d793     	srai	a5, a5, 0x1f
3000420c: 00181293     	slli	t0, a6, 0x1
30004210: 01a81813     	slli	a6, a6, 0x1a
30004214: 0c47f793     	andi	a5, a5, 0xc4
30004218: 0112c8b3     	xor	a7, t0, a7
3000421c: 41f85813     	srai	a6, a6, 0x1f
30004220: 01a89293     	slli	t0, a7, 0x1a
30004224: 00389893     	slli	a7, a7, 0x3
30004228: 06287813     	andi	a6, a6, 0x62
3000422c: 00f8c7b3     	xor	a5, a7, a5
30004230: 41f2d893     	srai	a7, t0, 0x1f
30004234: 0107c7b3     	xor	a5, a5, a6
30004238: 0318f813     	andi	a6, a7, 0x31
3000423c: 0107c7b3     	xor	a5, a5, a6
30004240: 00d7c7b3     	xor	a5, a5, a3
30004244: 01879813     	slli	a6, a5, 0x18
30004248: 01979893     	slli	a7, a5, 0x19
3000424c: 00179293     	slli	t0, a5, 0x1
30004250: 01a79793     	slli	a5, a5, 0x1a
30004254: 41f85813     	srai	a6, a6, 0x1f
30004258: 41f8d893     	srai	a7, a7, 0x1f
3000425c: 41f7d793     	srai	a5, a5, 0x1f
30004260: 03187813     	andi	a6, a6, 0x31
30004264: 0318f893     	andi	a7, a7, 0x31
30004268: 0317f793     	andi	a5, a5, 0x31
3000426c: 0102c833     	xor	a6, t0, a6
30004270: 00181293     	slli	t0, a6, 0x1
30004274: 01a81813     	slli	a6, a6, 0x1a
30004278: 0112c8b3     	xor	a7, t0, a7
3000427c: 41f85813     	srai	a6, a6, 0x1f
30004280: 00189293     	slli	t0, a7, 0x1
30004284: 01a89893     	slli	a7, a7, 0x1a
30004288: 03187813     	andi	a6, a6, 0x31
3000428c: 00f2c7b3     	xor	a5, t0, a5
30004290: 41f8d893     	srai	a7, a7, 0x1f
30004294: 00179293     	slli	t0, a5, 0x1
30004298: 01a79793     	slli	a5, a5, 0x1a
3000429c: 0318f893     	andi	a7, a7, 0x31
300042a0: 0102c833     	xor	a6, t0, a6
300042a4: 41f7d793     	srai	a5, a5, 0x1f
300042a8: 00181293     	slli	t0, a6, 0x1
300042ac: 0c47f793     	andi	a5, a5, 0xc4
300042b0: 0112c8b3     	xor	a7, t0, a7
300042b4: 00389293     	slli	t0, a7, 0x3
300042b8: 00f2c7b3     	xor	a5, t0, a5
300042bc: 01a81813     	slli	a6, a6, 0x1a
300042c0: 41f85813     	srai	a6, a6, 0x1f
300042c4: 01a89893     	slli	a7, a7, 0x1a
300042c8: 06287813     	andi	a6, a6, 0x62
300042cc: 41f8d893     	srai	a7, a7, 0x1f
300042d0: 0107c7b3     	xor	a5, a5, a6
300042d4: 0318f813     	andi	a6, a7, 0x31
300042d8: 0107c7b3     	xor	a5, a5, a6
300042dc: 0ff7f793     	zext.b	a5, a5
300042e0: 02e79263     	bne	a5, a4, 0x30004304 <sgp30_get_baseline+0x2f8>
300042e4: 00851513     	slli	a0, a0, 0x8
300042e8: 00861613     	slli	a2, a2, 0x8
300042ec: 00b56533     	or	a0, a0, a1
300042f0: 00d66633     	or	a2, a2, a3
300042f4: 00a41023     	sh	a0, 0x0(s0)
300042f8: 00c41123     	sh	a2, 0x2(s0)
300042fc: 00100513     	li	a0, 0x1
30004300: 0080006f     	j	0x30004308 <sgp30_get_baseline+0x2fc>
30004304: 00000513     	li	a0, 0x0
30004308: 00c12083     	lw	ra, 0xc(sp)
3000430c: 00812403     	lw	s0, 0x8(sp)
30004310: 01010113     	addi	sp, sp, 0x10
30004314: 00008067     	ret

30004318 <sgp30_set_baseline>:
30004318: ff010113     	addi	sp, sp, -0x10
3000431c: 00112623     	sw	ra, 0xc(sp)
30004320: 00812423     	sw	s0, 0x8(sp)
30004324: 00050413     	mv	s0, a0
30004328: 2c050263     	beqz	a0, 0x300045ec <sgp30_set_baseline+0x2d4>
3000432c: 00241503     	lh	a0, 0x2(s0)
30004330: 00045583     	lhu	a1, 0x0(s0)
30004334: 01051693     	slli	a3, a0, 0x10
30004338: 00052713     	slti	a4, a0, 0x0
3000433c: 01059793     	slli	a5, a1, 0x10
30004340: 0085d613     	srli	a2, a1, 0x8
30004344: 0186d693     	srli	a3, a3, 0x18
30004348: fff70713     	addi	a4, a4, -0x1
3000434c: 4107d793     	srai	a5, a5, 0x10
30004350: fff64813     	not	a6, a2
30004354: fff6c893     	not	a7, a3
30004358: 03177713     	andi	a4, a4, 0x31
3000435c: 01981293     	slli	t0, a6, 0x19
30004360: 00181313     	slli	t1, a6, 0x1
30004364: 0007a793     	slti	a5, a5, 0x0
30004368: 01a81813     	slli	a6, a6, 0x1a
3000436c: 00189393     	slli	t2, a7, 0x1
30004370: 00e3c733     	xor	a4, t2, a4
30004374: 01989393     	slli	t2, a7, 0x19
30004378: 01a89893     	slli	a7, a7, 0x1a
3000437c: fff78793     	addi	a5, a5, -0x1
30004380: 41f2d293     	srai	t0, t0, 0x1f
30004384: 41f85813     	srai	a6, a6, 0x1f
30004388: 41f3d393     	srai	t2, t2, 0x1f
3000438c: 41f8d893     	srai	a7, a7, 0x1f
30004390: 0317f793     	andi	a5, a5, 0x31
30004394: 0312f293     	andi	t0, t0, 0x31
30004398: 03187813     	andi	a6, a6, 0x31
3000439c: 00f347b3     	xor	a5, t1, a5
300043a0: 00171313     	slli	t1, a4, 0x1
300043a4: 0313f393     	andi	t2, t2, 0x31
300043a8: 01a71713     	slli	a4, a4, 0x1a
300043ac: 0318f893     	andi	a7, a7, 0x31
300043b0: 00734333     	xor	t1, t1, t2
300043b4: 41f75713     	srai	a4, a4, 0x1f
300043b8: 00179393     	slli	t2, a5, 0x1
300043bc: 01a79793     	slli	a5, a5, 0x1a
300043c0: 0053c2b3     	xor	t0, t2, t0
300043c4: 00131393     	slli	t2, t1, 0x1
300043c8: 01a31313     	slli	t1, t1, 0x1a
300043cc: 03177713     	andi	a4, a4, 0x31
300043d0: 41f7d793     	srai	a5, a5, 0x1f
300043d4: 0113c8b3     	xor	a7, t2, a7
300043d8: 41f35313     	srai	t1, t1, 0x1f
300043dc: 00129393     	slli	t2, t0, 0x1
300043e0: 01a29293     	slli	t0, t0, 0x1a
300043e4: 0317f793     	andi	a5, a5, 0x31
300043e8: 0103c833     	xor	a6, t2, a6
300043ec: 00189393     	slli	t2, a7, 0x1
300043f0: 01a89893     	slli	a7, a7, 0x1a
300043f4: 03137313     	andi	t1, t1, 0x31
300043f8: 41f2d293     	srai	t0, t0, 0x1f
300043fc: 00e3c733     	xor	a4, t2, a4
30004400: 41f8d893     	srai	a7, a7, 0x1f
30004404: 00181393     	slli	t2, a6, 0x1
30004408: 01a81813     	slli	a6, a6, 0x1a
3000440c: 0312f293     	andi	t0, t0, 0x31
30004410: 00f3c7b3     	xor	a5, t2, a5
30004414: 00171393     	slli	t2, a4, 0x1
30004418: 01a71713     	slli	a4, a4, 0x1a
3000441c: 0c48f893     	andi	a7, a7, 0xc4
30004420: 41f85813     	srai	a6, a6, 0x1f
30004424: 0063c333     	xor	t1, t2, t1
30004428: 41f75713     	srai	a4, a4, 0x1f
3000442c: 00179393     	slli	t2, a5, 0x1
30004430: 01a79793     	slli	a5, a5, 0x1a
30004434: 0c487813     	andi	a6, a6, 0xc4
30004438: 0053c2b3     	xor	t0, t2, t0
3000443c: 01a31393     	slli	t2, t1, 0x1a
30004440: 00331313     	slli	t1, t1, 0x3
30004444: 06277713     	andi	a4, a4, 0x62
30004448: 41f7d793     	srai	a5, a5, 0x1f
3000444c: 011348b3     	xor	a7, t1, a7
30004450: 41f3d313     	srai	t1, t2, 0x1f
30004454: 01a29393     	slli	t2, t0, 0x1a
30004458: 00329293     	slli	t0, t0, 0x3
3000445c: 0627f793     	andi	a5, a5, 0x62
30004460: 00e8c733     	xor	a4, a7, a4
30004464: 03137893     	andi	a7, t1, 0x31
30004468: 0102c833     	xor	a6, t0, a6
3000446c: 41f3d293     	srai	t0, t2, 0x1f
30004470: 01174733     	xor	a4, a4, a7
30004474: 00f847b3     	xor	a5, a6, a5
30004478: 0312f813     	andi	a6, t0, 0x31
3000447c: 00a74733     	xor	a4, a4, a0
30004480: 0107c7b3     	xor	a5, a5, a6
30004484: 01871813     	slli	a6, a4, 0x18
30004488: 01971893     	slli	a7, a4, 0x19
3000448c: 00171293     	slli	t0, a4, 0x1
30004490: 01a71713     	slli	a4, a4, 0x1a
30004494: 00b7c7b3     	xor	a5, a5, a1
30004498: 41f85813     	srai	a6, a6, 0x1f
3000449c: 41f8d893     	srai	a7, a7, 0x1f
300044a0: 41f75713     	srai	a4, a4, 0x1f
300044a4: 01879313     	slli	t1, a5, 0x18
300044a8: 01979393     	slli	t2, a5, 0x19
300044ac: 03187813     	andi	a6, a6, 0x31
300044b0: 0102c833     	xor	a6, t0, a6
300044b4: 00179293     	slli	t0, a5, 0x1
300044b8: 01a79793     	slli	a5, a5, 0x1a
300044bc: 0318f893     	andi	a7, a7, 0x31
300044c0: 03177713     	andi	a4, a4, 0x31
300044c4: 41f35313     	srai	t1, t1, 0x1f
300044c8: 41f3d393     	srai	t2, t2, 0x1f
300044cc: 41f7d793     	srai	a5, a5, 0x1f
300044d0: 03137313     	andi	t1, t1, 0x31
300044d4: 0313f393     	andi	t2, t2, 0x31
300044d8: 0317f793     	andi	a5, a5, 0x31
300044dc: 0062c2b3     	xor	t0, t0, t1
300044e0: 00181313     	slli	t1, a6, 0x1
300044e4: 01a81813     	slli	a6, a6, 0x1a
300044e8: 011348b3     	xor	a7, t1, a7
300044ec: 41f85813     	srai	a6, a6, 0x1f
300044f0: 00129313     	slli	t1, t0, 0x1
300044f4: 01a29293     	slli	t0, t0, 0x1a
300044f8: 00734333     	xor	t1, t1, t2
300044fc: 00189393     	slli	t2, a7, 0x1
30004500: 01a89893     	slli	a7, a7, 0x1a
30004504: 03187813     	andi	a6, a6, 0x31
30004508: 41f2d293     	srai	t0, t0, 0x1f
3000450c: 00e3c733     	xor	a4, t2, a4
30004510: 41f8d893     	srai	a7, a7, 0x1f
30004514: 00131393     	slli	t2, t1, 0x1
30004518: 01a31313     	slli	t1, t1, 0x1a
3000451c: 0312f293     	andi	t0, t0, 0x31
30004520: 00f3c7b3     	xor	a5, t2, a5
30004524: 00171393     	slli	t2, a4, 0x1
30004528: 01a71713     	slli	a4, a4, 0x1a
3000452c: 0318f893     	andi	a7, a7, 0x31
30004530: 41f35313     	srai	t1, t1, 0x1f
30004534: 0103c833     	xor	a6, t2, a6
30004538: 41f75713     	srai	a4, a4, 0x1f
3000453c: 00179393     	slli	t2, a5, 0x1
30004540: 03137313     	andi	t1, t1, 0x31
30004544: 0053c2b3     	xor	t0, t2, t0
30004548: 00181393     	slli	t2, a6, 0x1
3000454c: 0c477713     	andi	a4, a4, 0xc4
30004550: 0113c8b3     	xor	a7, t2, a7
30004554: 00129393     	slli	t2, t0, 0x1
30004558: 0063c333     	xor	t1, t2, t1
3000455c: 00389393     	slli	t2, a7, 0x3
30004560: 00e3c733     	xor	a4, t2, a4
30004564: 01a79793     	slli	a5, a5, 0x1a
30004568: 01a81813     	slli	a6, a6, 0x1a
3000456c: 41f7d793     	srai	a5, a5, 0x1f
30004570: 41f85813     	srai	a6, a6, 0x1f
30004574: 0c47f793     	andi	a5, a5, 0xc4
30004578: 06287813     	andi	a6, a6, 0x62
3000457c: 01074733     	xor	a4, a4, a6
30004580: 00331813     	slli	a6, t1, 0x3
30004584: 00f847b3     	xor	a5, a6, a5
30004588: 01a89893     	slli	a7, a7, 0x1a
3000458c: 41f8d813     	srai	a6, a7, 0x1f
30004590: 03187813     	andi	a6, a6, 0x31
30004594: 01074733     	xor	a4, a4, a6
30004598: 01a29293     	slli	t0, t0, 0x1a
3000459c: 41f2d813     	srai	a6, t0, 0x1f
300045a0: 06287813     	andi	a6, a6, 0x62
300045a4: 0107c7b3     	xor	a5, a5, a6
300045a8: 01a31313     	slli	t1, t1, 0x1a
300045ac: 41f35813     	srai	a6, t1, 0x1f
300045b0: 03187813     	andi	a6, a6, 0x31
300045b4: 00d10123     	sb	a3, 0x2(sp)
300045b8: 00a101a3     	sb	a0, 0x3(sp)
300045bc: 00e10223     	sb	a4, 0x4(sp)
300045c0: 00c102a3     	sb	a2, 0x5(sp)
300045c4: 0107c533     	xor	a0, a5, a6
300045c8: 00b10323     	sb	a1, 0x6(sp)
300045cc: 00a103a3     	sb	a0, 0x7(sp)
300045d0: 000025b7     	lui	a1, 0x2
300045d4: 05800513     	li	a0, 0x58
300045d8: 01000613     	li	a2, 0x10
300045dc: 00210693     	addi	a3, sp, 0x2
300045e0: 01e58593     	addi	a1, a1, 0x1e
300045e4: 00600713     	li	a4, 0x6
300045e8: b99fd0ef     	jal	0x30002180 <i2c_write_nbyte>
300045ec: 00803533     	snez	a0, s0
300045f0: 00c12083     	lw	ra, 0xc(sp)
300045f4: 00812403     	lw	s0, 0x8(sp)
300045f8: 01010113     	addi	sp, sp, 0x10
300045fc: 00008067     	ret

30004600 <sgp30_set_humidity>:
30004600: ff010113     	addi	sp, sp, -0x10
30004604: 00112623     	sw	ra, 0xc(sp)
30004608: 01051613     	slli	a2, a0, 0x10
3000460c: 00855593     	srli	a1, a0, 0x8
30004610: 41065613     	srai	a2, a2, 0x10
30004614: fff5c693     	not	a3, a1
30004618: 01969713     	slli	a4, a3, 0x19
3000461c: 00169793     	slli	a5, a3, 0x1
30004620: 00062613     	slti	a2, a2, 0x0
30004624: 01a69693     	slli	a3, a3, 0x1a
30004628: fff60613     	addi	a2, a2, -0x1
3000462c: 41f75713     	srai	a4, a4, 0x1f
30004630: 41f6d693     	srai	a3, a3, 0x1f
30004634: 03167613     	andi	a2, a2, 0x31
30004638: 03177713     	andi	a4, a4, 0x31
3000463c: 0316f693     	andi	a3, a3, 0x31
30004640: 00c7c633     	xor	a2, a5, a2
30004644: 00161793     	slli	a5, a2, 0x1
30004648: 01a61613     	slli	a2, a2, 0x1a
3000464c: 00e7c733     	xor	a4, a5, a4
30004650: 41f65613     	srai	a2, a2, 0x1f
30004654: 00171793     	slli	a5, a4, 0x1
30004658: 01a71713     	slli	a4, a4, 0x1a
3000465c: 03167613     	andi	a2, a2, 0x31
30004660: 00d7c6b3     	xor	a3, a5, a3
30004664: 41f75713     	srai	a4, a4, 0x1f
30004668: 00169793     	slli	a5, a3, 0x1
3000466c: 01a69693     	slli	a3, a3, 0x1a
30004670: 03177713     	andi	a4, a4, 0x31
30004674: 00c7c633     	xor	a2, a5, a2
30004678: 41f6d693     	srai	a3, a3, 0x1f
3000467c: 00161793     	slli	a5, a2, 0x1
30004680: 01a61613     	slli	a2, a2, 0x1a
30004684: 0c46f693     	andi	a3, a3, 0xc4
30004688: 00e7c733     	xor	a4, a5, a4
3000468c: 41f65613     	srai	a2, a2, 0x1f
30004690: 01a71793     	slli	a5, a4, 0x1a
30004694: 00371713     	slli	a4, a4, 0x3
30004698: 06267613     	andi	a2, a2, 0x62
3000469c: 00d746b3     	xor	a3, a4, a3
300046a0: 41f7d793     	srai	a5, a5, 0x1f
300046a4: 00c6c633     	xor	a2, a3, a2
300046a8: 0317f693     	andi	a3, a5, 0x31
300046ac: 00d64633     	xor	a2, a2, a3
300046b0: 00a64633     	xor	a2, a2, a0
300046b4: 01861693     	slli	a3, a2, 0x18
300046b8: 01961713     	slli	a4, a2, 0x19
300046bc: 00161793     	slli	a5, a2, 0x1
300046c0: 01a61613     	slli	a2, a2, 0x1a
300046c4: 41f6d693     	srai	a3, a3, 0x1f
300046c8: 41f75713     	srai	a4, a4, 0x1f
300046cc: 41f65613     	srai	a2, a2, 0x1f
300046d0: 0316f693     	andi	a3, a3, 0x31
300046d4: 03177713     	andi	a4, a4, 0x31
300046d8: 03167613     	andi	a2, a2, 0x31
300046dc: 00d7c6b3     	xor	a3, a5, a3
300046e0: 00169793     	slli	a5, a3, 0x1
300046e4: 01a69693     	slli	a3, a3, 0x1a
300046e8: 00e7c733     	xor	a4, a5, a4
300046ec: 41f6d693     	srai	a3, a3, 0x1f
300046f0: 00171793     	slli	a5, a4, 0x1
300046f4: 01a71713     	slli	a4, a4, 0x1a
300046f8: 0316f693     	andi	a3, a3, 0x31
300046fc: 00c7c633     	xor	a2, a5, a2
30004700: 41f75713     	srai	a4, a4, 0x1f
30004704: 00161793     	slli	a5, a2, 0x1
30004708: 01a61613     	slli	a2, a2, 0x1a
3000470c: 03177713     	andi	a4, a4, 0x31
30004710: 00d7c6b3     	xor	a3, a5, a3
30004714: 41f65613     	srai	a2, a2, 0x1f
30004718: 00169793     	slli	a5, a3, 0x1
3000471c: 0c467613     	andi	a2, a2, 0xc4
30004720: 00e7c733     	xor	a4, a5, a4
30004724: 00371793     	slli	a5, a4, 0x3
30004728: 00c7c633     	xor	a2, a5, a2
3000472c: 01a69693     	slli	a3, a3, 0x1a
30004730: 41f6d693     	srai	a3, a3, 0x1f
30004734: 01a71713     	slli	a4, a4, 0x1a
30004738: 0626f693     	andi	a3, a3, 0x62
3000473c: 41f75713     	srai	a4, a4, 0x1f
30004740: 00d64633     	xor	a2, a2, a3
30004744: 03177693     	andi	a3, a4, 0x31
30004748: 00d64633     	xor	a2, a2, a3
3000474c: 00b104a3     	sb	a1, 0x9(sp)
30004750: 00a10523     	sb	a0, 0xa(sp)
30004754: 00c105a3     	sb	a2, 0xb(sp)
30004758: 000025b7     	lui	a1, 0x2
3000475c: 05800513     	li	a0, 0x58
30004760: 01000613     	li	a2, 0x10
30004764: 00910693     	addi	a3, sp, 0x9
30004768: 06158593     	addi	a1, a1, 0x61
3000476c: 00300713     	li	a4, 0x3
30004770: a11fd0ef     	jal	0x30002180 <i2c_write_nbyte>
30004774: 00100513     	li	a0, 0x1
30004778: 00c12083     	lw	ra, 0xc(sp)
3000477c: 01010113     	addi	sp, sp, 0x10
30004780: 00008067     	ret

30004784 <sgp30_measure_test>:
30004784: 1a050663     	beqz	a0, 0x30004930 <sgp30_measure_test+0x1ac>
30004788: ff010113     	addi	sp, sp, -0x10
3000478c: 00112623     	sw	ra, 0xc(sp)
30004790: 00812423     	sw	s0, 0x8(sp)
30004794: 00050413     	mv	s0, a0
30004798: 00011223     	sh	zero, 0x4(sp)
3000479c: 00010323     	sb	zero, 0x6(sp)
300047a0: 0dc00513     	li	a0, 0xdc
300047a4: 8d5fd0ef     	jal	0x30002078 <delay_ms>
300047a8: 000025b7     	lui	a1, 0x2
300047ac: 05800513     	li	a0, 0x58
300047b0: 01000613     	li	a2, 0x10
300047b4: 00410693     	addi	a3, sp, 0x4
300047b8: 03258593     	addi	a1, a1, 0x32
300047bc: 00300713     	li	a4, 0x3
300047c0: b81fd0ef     	jal	0x30002340 <i2c_read_nbyte>
300047c4: 00410503     	lb	a0, 0x4(sp)
300047c8: 00514583     	lbu	a1, 0x5(sp)
300047cc: 00614603     	lbu	a2, 0x6(sp)
300047d0: fff54693     	not	a3, a0
300047d4: 00052713     	slti	a4, a0, 0x0
300047d8: 01969793     	slli	a5, a3, 0x19
300047dc: 00169813     	slli	a6, a3, 0x1
300047e0: fff70713     	addi	a4, a4, -0x1
300047e4: 01a69693     	slli	a3, a3, 0x1a
300047e8: 03177713     	andi	a4, a4, 0x31
300047ec: 41f7d793     	srai	a5, a5, 0x1f
300047f0: 41f6d693     	srai	a3, a3, 0x1f
300047f4: 00e84733     	xor	a4, a6, a4
300047f8: 0317f793     	andi	a5, a5, 0x31
300047fc: 0316f693     	andi	a3, a3, 0x31
30004800: 00171813     	slli	a6, a4, 0x1
30004804: 01a71713     	slli	a4, a4, 0x1a
30004808: 00f847b3     	xor	a5, a6, a5
3000480c: 41f75713     	srai	a4, a4, 0x1f
30004810: 00179813     	slli	a6, a5, 0x1
30004814: 01a79793     	slli	a5, a5, 0x1a
30004818: 03177713     	andi	a4, a4, 0x31
3000481c: 00d846b3     	xor	a3, a6, a3
30004820: 41f7d793     	srai	a5, a5, 0x1f
30004824: 00169813     	slli	a6, a3, 0x1
30004828: 01a69693     	slli	a3, a3, 0x1a
3000482c: 0317f793     	andi	a5, a5, 0x31
30004830: 00e84733     	xor	a4, a6, a4
30004834: 41f6d693     	srai	a3, a3, 0x1f
30004838: 00171813     	slli	a6, a4, 0x1
3000483c: 01a71713     	slli	a4, a4, 0x1a
30004840: 0c46f693     	andi	a3, a3, 0xc4
30004844: 00f847b3     	xor	a5, a6, a5
30004848: 41f75713     	srai	a4, a4, 0x1f
3000484c: 01a79813     	slli	a6, a5, 0x1a
30004850: 00379793     	slli	a5, a5, 0x3
30004854: 06277713     	andi	a4, a4, 0x62
30004858: 00d7c6b3     	xor	a3, a5, a3
3000485c: 41f85793     	srai	a5, a6, 0x1f
30004860: 00e6c6b3     	xor	a3, a3, a4
30004864: 0317f713     	andi	a4, a5, 0x31
30004868: 00e6c6b3     	xor	a3, a3, a4
3000486c: 00b6c6b3     	xor	a3, a3, a1
30004870: 01869713     	slli	a4, a3, 0x18
30004874: 01969793     	slli	a5, a3, 0x19
30004878: 00169813     	slli	a6, a3, 0x1
3000487c: 01a69693     	slli	a3, a3, 0x1a
30004880: 41f75713     	srai	a4, a4, 0x1f
30004884: 41f7d793     	srai	a5, a5, 0x1f
30004888: 41f6d693     	srai	a3, a3, 0x1f
3000488c: 03177713     	andi	a4, a4, 0x31
30004890: 0317f793     	andi	a5, a5, 0x31
30004894: 0316f693     	andi	a3, a3, 0x31
30004898: 00e84733     	xor	a4, a6, a4
3000489c: 00171813     	slli	a6, a4, 0x1
300048a0: 01a71713     	slli	a4, a4, 0x1a
300048a4: 00f847b3     	xor	a5, a6, a5
300048a8: 41f75713     	srai	a4, a4, 0x1f
300048ac: 00179813     	slli	a6, a5, 0x1
300048b0: 01a79793     	slli	a5, a5, 0x1a
300048b4: 03177713     	andi	a4, a4, 0x31
300048b8: 00d846b3     	xor	a3, a6, a3
300048bc: 41f7d793     	srai	a5, a5, 0x1f
300048c0: 00169813     	slli	a6, a3, 0x1
300048c4: 01a69693     	slli	a3, a3, 0x1a
300048c8: 0317f793     	andi	a5, a5, 0x31
300048cc: 00e84733     	xor	a4, a6, a4
300048d0: 41f6d693     	srai	a3, a3, 0x1f
300048d4: 00171813     	slli	a6, a4, 0x1
300048d8: 0c46f693     	andi	a3, a3, 0xc4
300048dc: 00f847b3     	xor	a5, a6, a5
300048e0: 00379813     	slli	a6, a5, 0x3
300048e4: 00d846b3     	xor	a3, a6, a3
300048e8: 01a71713     	slli	a4, a4, 0x1a
300048ec: 41f75713     	srai	a4, a4, 0x1f
300048f0: 01a79793     	slli	a5, a5, 0x1a
300048f4: 06277713     	andi	a4, a4, 0x62
300048f8: 41f7d793     	srai	a5, a5, 0x1f
300048fc: 00e6c6b3     	xor	a3, a3, a4
30004900: 0317f713     	andi	a4, a5, 0x31
30004904: 00e6c6b3     	xor	a3, a3, a4
30004908: 0ff6f713     	zext.b	a4, a3
3000490c: 00c746b3     	xor	a3, a4, a2
30004910: 00c71863     	bne	a4, a2, 0x30004920 <sgp30_measure_test+0x19c>
30004914: 00851513     	slli	a0, a0, 0x8
30004918: 00b56533     	or	a0, a0, a1
3000491c: 00a41023     	sh	a0, 0x0(s0)
30004920: 0016b513     	seqz	a0, a3
30004924: 00c12083     	lw	ra, 0xc(sp)
30004928: 00812403     	lw	s0, 0x8(sp)
3000492c: 01010113     	addi	sp, sp, 0x10
30004930: 00008067     	ret
30004934: 10dc         	<unknown>
30004936: 3000         	<unknown>
30004938: 11cc         	<unknown>
3000493a: 3000         	<unknown>
3000493c: 10dc         	<unknown>
3000493e: 3000         	<unknown>
30004940: 1180         	<unknown>
30004942: 3000         	<unknown>
30004944: 1480         	<unknown>
30004946: 3000         	<unknown>
30004948: 1180         	<unknown>
3000494a: 3000         	<unknown>
3000494c: 1180         	<unknown>
3000494e: 3000         	<unknown>
30004950: 1180         	<unknown>
30004952: 3000         	<unknown>
30004954: 10dc         	<unknown>
30004956: 3000         	<unknown>
30004958: 1724         	<unknown>
3000495a: 3000         	<unknown>
3000495c: 1644         	<unknown>
3000495e: 3000         	<unknown>
30004960: 1644         	<unknown>
30004962: 3000         	<unknown>
30004964: 1644         	<unknown>
30004966: 3000         	<unknown>
30004968: 1644         	<unknown>
3000496a: 3000         	<unknown>
3000496c: 1644         	<unknown>
3000496e: 3000         	<unknown>
30004970: 1644         	<unknown>
30004972: 3000         	<unknown>
30004974: 1644         	<unknown>
30004976: 3000         	<unknown>
30004978: 1644         	<unknown>
3000497a: 3000         	<unknown>
3000497c: 1644         	<unknown>
3000497e: 3000         	<unknown>
30004980: 1644         	<unknown>
30004982: 3000         	<unknown>
30004984: 1644         	<unknown>
30004986: 3000         	<unknown>
30004988: 1644         	<unknown>
3000498a: 3000         	<unknown>
3000498c: 1644         	<unknown>
3000498e: 3000         	<unknown>
30004990: 1644         	<unknown>
30004992: 3000         	<unknown>
30004994: 1644         	<unknown>
30004996: 3000         	<unknown>
30004998: 1644         	<unknown>
3000499a: 3000         	<unknown>
3000499c: 1644         	<unknown>
3000499e: 3000         	<unknown>
300049a0: 1644         	<unknown>
300049a2: 3000         	<unknown>
300049a4: 1644         	<unknown>
300049a6: 3000         	<unknown>
300049a8: 1644         	<unknown>
300049aa: 3000         	<unknown>
300049ac: 1644         	<unknown>
300049ae: 3000         	<unknown>
300049b0: 1644         	<unknown>
300049b2: 3000         	<unknown>
300049b4: 1644         	<unknown>
300049b6: 3000         	<unknown>
300049b8: 1644         	<unknown>
300049ba: 3000         	<unknown>
300049bc: 1644         	<unknown>
300049be: 3000         	<unknown>
300049c0: 1644         	<unknown>
300049c2: 3000         	<unknown>
300049c4: 1644         	<unknown>
300049c6: 3000         	<unknown>
300049c8: 1644         	<unknown>
300049ca: 3000         	<unknown>
300049cc: 1644         	<unknown>
300049ce: 3000         	<unknown>
300049d0: 1644         	<unknown>
300049d2: 3000         	<unknown>
300049d4: 1644         	<unknown>
300049d6: 3000         	<unknown>
300049d8: 1644         	<unknown>
300049da: 3000         	<unknown>
300049dc: 1644         	<unknown>
300049de: 3000         	<unknown>
300049e0: 1644         	<unknown>
300049e2: 3000         	<unknown>
300049e4: 1644         	<unknown>
300049e6: 3000         	<unknown>
300049e8: 1644         	<unknown>
300049ea: 3000         	<unknown>
300049ec: 1644         	<unknown>
300049ee: 3000         	<unknown>
300049f0: 1644         	<unknown>
300049f2: 3000         	<unknown>
300049f4: 1644         	<unknown>
300049f6: 3000         	<unknown>
300049f8: 1644         	<unknown>
300049fa: 3000         	<unknown>
300049fc: 1644         	<unknown>
300049fe: 3000         	<unknown>
30004a00: 1644         	<unknown>
30004a02: 3000         	<unknown>
30004a04: 1644         	<unknown>
30004a06: 3000         	<unknown>
30004a08: 1644         	<unknown>
30004a0a: 3000         	<unknown>
30004a0c: 1644         	<unknown>
30004a0e: 3000         	<unknown>
30004a10: 1644         	<unknown>
30004a12: 3000         	<unknown>
30004a14: 1644         	<unknown>
30004a16: 3000         	<unknown>
30004a18: 1644         	<unknown>
30004a1a: 3000         	<unknown>
30004a1c: 1644         	<unknown>
30004a1e: 3000         	<unknown>
30004a20: 1644         	<unknown>
30004a22: 3000         	<unknown>
30004a24: 1738         	<unknown>
30004a26: 3000         	<unknown>
30004a28: 1644         	<unknown>
30004a2a: 3000         	<unknown>
30004a2c: 1644         	<unknown>
30004a2e: 3000         	<unknown>
30004a30: 1644         	<unknown>
30004a32: 3000         	<unknown>
30004a34: 1644         	<unknown>
30004a36: 3000         	<unknown>
30004a38: 1644         	<unknown>
30004a3a: 3000         	<unknown>
30004a3c: 1644         	<unknown>
30004a3e: 3000         	<unknown>
30004a40: 1644         	<unknown>
30004a42: 3000         	<unknown>
30004a44: 1644         	<unknown>
30004a46: 3000         	<unknown>
30004a48: 1644         	<unknown>
30004a4a: 3000         	<unknown>
30004a4c: 1644         	<unknown>
30004a4e: 3000         	<unknown>
30004a50: 16d8         	<unknown>
30004a52: 3000         	<unknown>
30004a54: 15e8         	<unknown>
30004a56: 3000         	<unknown>
30004a58: 1644         	<unknown>
30004a5a: 3000         	<unknown>
30004a5c: 1644         	<unknown>
30004a5e: 3000         	<unknown>
30004a60: 1644         	<unknown>
30004a62: 3000         	<unknown>
30004a64: 1644         	<unknown>
30004a66: 3000         	<unknown>
30004a68: 15e8         	<unknown>
30004a6a: 3000         	<unknown>
30004a6c: 1644         	<unknown>
30004a6e: 3000         	<unknown>
30004a70: 1644         	<unknown>
30004a72: 3000         	<unknown>
30004a74: 1644         	<unknown>
30004a76: 3000         	<unknown>
30004a78: 1644         	<unknown>
30004a7a: 3000         	<unknown>
30004a7c: 1644         	<unknown>
30004a7e: 3000         	<unknown>
30004a80: 1644         	<unknown>
30004a82: 3000         	<unknown>
30004a84: 1660         	<unknown>
30004a86: 3000         	<unknown>
30004a88: 1644         	<unknown>
30004a8a: 3000         	<unknown>
30004a8c: 1644         	<unknown>
30004a8e: 3000         	<unknown>
30004a90: 16e4         	<unknown>
30004a92: 3000         	<unknown>
30004a94: 1644         	<unknown>
30004a96: 3000         	<unknown>
30004a98: 1774         	<unknown>
30004a9a: 3000         	<unknown>
30004a9c: 1644         	<unknown>
30004a9e: 3000         	<unknown>
30004aa0: 1644         	<unknown>
30004aa2: 3000         	<unknown>
30004aa4: 16a4         	<unknown>
30004aa6: 3000         	<unknown>
30004aa8: 4654         	<unknown>
30004aaa: 2054         	<unknown>
30004aac: 6e69         	<unknown>
30004aae: 7469         	<unknown>
30004ab0: 6420         	<unknown>
30004ab2: 0a656e6f     	jal	t3, 0x3005ab58 <_sidata+0x55e84>
30004ab6: 3000         	<unknown>
30004ab8: 3231         	<unknown>
30004aba: 36353433     	<unknown>
30004abe: 41393837     	lui	a6, 0x41393
30004ac2: 4342         	<unknown>
30004ac4: 4544         	<unknown>
30004ac6: 0046         	<unknown>
30004ac8: 4155         	<unknown>
30004aca: 5452         	<unknown>
30004acc: 4c20         	<unknown>
30004ace: 203a5243     	<unknown>
30004ad2: 7830         	<unknown>
30004ad4: 7825         	<unknown>
30004ad6: 000a         	<unknown>
30004ad8: 6661         	<unknown>
30004ada: 6574         	<unknown>
30004adc: 2072         	<unknown>
30004ade: 6f70         	<unknown>
30004ae0: 20726577     	<unknown>
30004ae4: 75716573     	csrrsi	a0, mseccfgh, 0x2
30004ae8: 6e65         	<unknown>
30004aea: 69206563     	bltu	zero, s2, 0x30005174 <_sidata+0x4a0>
30004aee: 696e         	<unknown>
30004af0: 0a74         	<unknown>
30004af2: 4e00         	<unknown>
30004af4: 6d75         	<unknown>
30004af6: 6562         	<unknown>
30004af8: 2072         	<unknown>
30004afa: 6d20666f     	jal	a2, 0x3000b1cc <_sidata+0x64f8>
30004afe: 6e69         	<unknown>
30004b00: 7365         	<unknown>
30004b02: 6320         	<unknown>
30004b04: 6e61         	<unknown>
30004b06: 6f6e         	<unknown>
30004b08: 2074         	<unknown>
30004b0a: 7865         	<unknown>
30004b0c: 64656563     	bltu	a0, t1, 0x30005156 <_sidata+0x482>
30004b10: 6820         	<unknown>
30004b12: 6c61         	<unknown>
30004b14: 2066         	<unknown>
30004b16: 7420666f     	jal	a2, 0x3000b258 <_sidata+0x6584>
30004b1a: 6568         	<unknown>
30004b1c: 6e20         	<unknown>
30004b1e: 6d75         	<unknown>
30004b20: 6562         	<unknown>
30004b22: 2072         	<unknown>
30004b24: 6220666f     	jal	a2, 0x3000b146 <_sidata+0x6472>
30004b28: 6f6c         	<unknown>
30004b2a: 2e736b63     	bltu	t1, t2, 0x30004e20 <_sidata+0x14c>
30004b2e: 0a0d         	<unknown>
30004b30: 6700         	<unknown>
30004b32: 6970         	<unknown>
30004b34: 6425206f     	j	0x30057176 <_sidata+0x524a2>
30004b38: 7320         	<unknown>
30004b3a: 7465         	<unknown>
30004b3c: 6120         	<unknown>
30004b3e: 6e692073     	csrs	0x6e6, s2
30004b42: 7570         	<unknown>
30004b44: 0a74         	<unknown>
30004b46: 5500         	<unknown>
30004b48: 5241         	<unknown>
30004b4a: 2054         	<unknown>
30004b4c: 4944         	<unknown>
30004b4e: 3a56         	<unknown>
30004b50: 3020         	<unknown>
30004b52: 2578         	<unknown>
30004b54: 0a78         	<unknown>
30004b56: 5200         	<unknown>
30004b58: 4745         	<unknown>
30004b5a: 475f 4950 5f4f       	<unknown>
30004b60: 4e45         	<unknown>
30004b62: 3a42         	<unknown>
30004b64: 3020         	<unknown>
30004b66: 2578         	<unknown>
30004b68: 0a78         	<unknown>
30004b6a: 6700         	<unknown>
30004b6c: 6970         	<unknown>
30004b6e: 6425206f     	j	0x300571b0 <_sidata+0x524dc>
30004b72: 7320         	<unknown>
30004b74: 7465         	<unknown>
30004b76: 6120         	<unknown>
30004b78: 756f2073     	csrs	0x756, t5
30004b7c: 7074         	<unknown>
30004b7e: 7475         	<unknown>
30004b80: 000a         	<unknown>
30004b82: 3249         	<unknown>
30004b84: 73203a43     	<unknown>
30004b88: 6174         	<unknown>
30004b8a: 7472         	<unknown>
30004b8c: 7720         	<unknown>
30004b8e: 6972         	<unknown>
30004b90: 6574         	<unknown>
30004b92: 6e20         	<unknown>
30004b94: 6361206f     	j	0x300171ca <_sidata+0x124f6>
30004b98: 71000a6b     	<unknown>
30004b9c: 5f697073     	csrci	0x5f6, 0x12
30004ba0: 74617473     	csrrci	s0, 0x746, 0x2
30004ba4: 7375         	<unknown>
30004ba6: 203a         	<unknown>
30004ba8: 7825         	<unknown>
30004baa: 000a         	<unknown>
30004bac: 7375         	<unknown>
30004bae: 2065         	<unknown>
30004bb0: 6d6d6f63     	bltu	s10, s6, 0x3000528e <_sidata+0x5ba>
30004bb4: 6e61         	<unknown>
30004bb6: 2064         	<unknown>
30004bb8: 6e60         	<unknown>
30004bba: 2060         	<unknown>
30004bbc: 6f74         	<unknown>
30004bbe: 7320         	<unknown>
30004bc0: 6174         	<unknown>
30004bc2: 7472         	<unknown>
30004bc4: 6120         	<unknown>
30004bc6: 6e20         	<unknown>
30004bc8: 7765         	<unknown>
30004bca: 6720         	<unknown>
30004bcc: 6d61         	<unknown>
30004bce: 2c65         	<unknown>
30004bd0: 6f20         	<unknown>
30004bd2: 2072         	<unknown>
30004bd4: 7375         	<unknown>
30004bd6: 2065         	<unknown>
30004bd8: 6d6d6f63     	bltu	s10, s6, 0x300052b6 <_sidata+0x5e2>
30004bdc: 6e61         	<unknown>
30004bde: 2064         	<unknown>
30004be0: 7160         	<unknown>
30004be2: 2060         	<unknown>
30004be4: 6f74         	<unknown>
30004be6: 7120         	<unknown>
30004be8: 6975         	<unknown>
30004bea: 6574         	<unknown>
30004bec: 6720         	<unknown>
30004bee: 6d61         	<unknown>
30004bf0: 2e65         	<unknown>
30004bf2: 0a0d         	<unknown>
30004bf4: 5500         	<unknown>
30004bf6: 5241         	<unknown>
30004bf8: 2054         	<unknown>
30004bfa: 4346         	<unknown>
30004bfc: 3a52         	<unknown>
30004bfe: 3020         	<unknown>
30004c00: 2578         	<unknown>
30004c02: 0a78         	<unknown>
30004c04: 6100         	<unknown>
30004c06: 7466         	<unknown>
30004c08: 7265         	<unknown>
30004c0a: 6620         	<unknown>
30004c0c: 6172         	<unknown>
30004c0e: 656d         	<unknown>
30004c10: 7220         	<unknown>
30004c12: 7461         	<unknown>
30004c14: 2065         	<unknown>
30004c16: 6e69         	<unknown>
30004c18: 7469         	<unknown>
30004c1a: 000a         	<unknown>
30004c1c: 3249         	<unknown>
30004c1e: 72203a43     	<unknown>
30004c22: 6165         	<unknown>
30004c24: 2064         	<unknown>
30004c26: 7962         	<unknown>
30004c28: 6574         	<unknown>
30004c2a: 6e20         	<unknown>
30004c2c: 6361206f     	j	0x30017262 <_sidata+0x1258e>
30004c30: 55000a6b     	<unknown>
30004c34: 5241         	<unknown>
30004c36: 2054         	<unknown>
30004c38: 6e69         	<unknown>
30004c3a: 7469         	<unknown>
30004c3c: 6169         	<unknown>
30004c3e: 696c         	<unknown>
30004c40: 657a         	<unknown>
30004c42: 2064         	<unknown>
30004c44: 68746977     	<unknown>
30004c48: 6220         	<unknown>
30004c4a: 7561         	<unknown>
30004c4c: 7264         	<unknown>
30004c4e: 7461         	<unknown>
30004c50: 2065         	<unknown>
30004c52: 6425         	<unknown>
30004c54: 000a         	<unknown>
30004c56: 7371         	<unknown>
30004c58: 6970         	<unknown>
30004c5a: 695f 746e 6663       	<unknown>
30004c60: 25203a67     	<unknown>
30004c64: 0a78         	<unknown>
30004c66: 7100         	<unknown>
30004c68: 5f697073     	csrci	0x5f6, 0x12
30004c6c: 646b6c63     	bltu	s6, t1, 0x300052c4 <_sidata+0x5f0>
30004c70: 7669         	<unknown>
30004c72: 203a         	<unknown>
30004c74: 7825         	<unknown>
30004c76: 000a         	<unknown>
30004c78: 6661         	<unknown>
30004c7a: 6574         	<unknown>
30004c7c: 2072         	<unknown>
30004c7e: 6d6d6167     	<unknown>
30004c82: 2061         	<unknown>
30004c84: 75716573     	csrrsi	a0, mseccfgh, 0x2
30004c88: 6e65         	<unknown>
30004c8a: 69206563     	bltu	zero, s2, 0x30005314 <_sidata+0x640>
30004c8e: 696e         	<unknown>
30004c90: 0a74         	<unknown>
30004c92: 3000         	<unknown>
30004c94: 3231         	<unknown>
30004c96: 36353433     	<unknown>
30004c9a: 61393837     	lui	a6, 0x61393
30004c9e: 6362         	<unknown>
30004ca0: 6564         	<unknown>
30004ca2: 0066         	<unknown>
30004ca4: 6e28         	<unknown>
30004ca6: 6c75         	<unknown>
30004ca8: 296c         	<unknown>
30004caa: 7100         	<unknown>
30004cac: 5f697073     	csrci	0x5f6, 0x12
30004cb0: 7564         	<unknown>
30004cb2: 3a6d         	<unknown>
30004cb4: 2520         	<unknown>
30004cb6: 0a78         	<unknown>
30004cb8: 4900         	<unknown>
30004cba: 4332         	<unknown>
30004cbc: 203a         	<unknown>
30004cbe: 74697277     	<unknown>
30004cc2: 2065         	<unknown>
30004cc4: 7962         	<unknown>
30004cc6: 6574         	<unknown>
30004cc8: 6e20         	<unknown>
30004cca: 6361206f     	j	0x30017300 <_sidata+0x1262c>
30004cce: 00000a6b     	<unknown>
30004cd2: 0000         	<unknown>
