
build/retrosoc_fw:     file format elf32-littleriscv


Disassembly of section .text:

30000000 <start>:
30000000:	00000093          	li	ra,0
30000004:	00000193          	li	gp,0
30000008:	00000213          	li	tp,0
3000000c:	00000293          	li	t0,0
30000010:	00000313          	li	t1,0
30000014:	00000393          	li	t2,0
30000018:	00000413          	li	s0,0
3000001c:	00000493          	li	s1,0
30000020:	00000513          	li	a0,0
30000024:	00000593          	li	a1,0
30000028:	00000613          	li	a2,0
3000002c:	00000693          	li	a3,0
30000030:	00000713          	li	a4,0
30000034:	00000793          	li	a5,0
30000038:	00000813          	li	a6,0
3000003c:	00000893          	li	a7,0
30000040:	00000913          	li	s2,0
30000044:	00000993          	li	s3,0
30000048:	00000a13          	li	s4,0
3000004c:	00000a93          	li	s5,0
30000050:	00000b13          	li	s6,0
30000054:	00000b93          	li	s7,0
30000058:	00000c13          	li	s8,0
3000005c:	00000c93          	li	s9,0
30000060:	00000d13          	li	s10,0
30000064:	00000d93          	li	s11,0
30000068:	00000e13          	li	t3,0
3000006c:	00000e93          	li	t4,0
30000070:	00000f13          	li	t5,0
30000074:	00000f93          	li	t6,0
30000078:	00000513          	li	a0,0

3000007c <setmemloop>:
3000007c:	00a52023          	sw	a0,0(a0)
30000080:	00450513          	addi	a0,a0,4
30000084:	fe254ce3          	blt	a0,sp,3000007c <setmemloop>
30000088:	00002517          	auipc	a0,0x2
3000008c:	7cc50513          	addi	a0,a0,1996 # 30002854 <_etext>
30000090:	d4000597          	auipc	a1,0xd4000
30000094:	f7058593          	addi	a1,a1,-144 # 4000000 <pixel_buffer>
30000098:	d4000617          	auipc	a2,0xd4000
3000009c:	f6860613          	addi	a2,a2,-152 # 4000000 <pixel_buffer>
300000a0:	00c5dc63          	bge	a1,a2,300000b8 <end_init_data>

300000a4 <loop_init_data>:
300000a4:	00052683          	lw	a3,0(a0)
300000a8:	00d5a023          	sw	a3,0(a1)
300000ac:	00450513          	addi	a0,a0,4
300000b0:	00458593          	addi	a1,a1,4
300000b4:	fec5c8e3          	blt	a1,a2,300000a4 <loop_init_data>

300000b8 <end_init_data>:
300000b8:	d4000517          	auipc	a0,0xd4000
300000bc:	f4850513          	addi	a0,a0,-184 # 4000000 <pixel_buffer>
300000c0:	d4010597          	auipc	a1,0xd4010
300000c4:	44058593          	addi	a1,a1,1088 # 4010500 <_ebss>
300000c8:	00b55863          	bge	a0,a1,300000d8 <end_init_bss>

300000cc <loop_init_bss>:
300000cc:	00052023          	sw	zero,0(a0)
300000d0:	00450513          	addi	a0,a0,4
300000d4:	feb54ce3          	blt	a0,a1,300000cc <loop_init_bss>

300000d8 <end_init_bss>:
300000d8:	520020ef          	jal	300025f8 <main>

300000dc <loop>:
300000dc:	0000006f          	j	300000dc <loop>

300000e0 <flashio_worker_begin>:
300000e0:	020002b7          	lui	t0,0x2000
300000e4:	12000313          	li	t1,288
300000e8:	00629023          	sh	t1,0(t0) # 2000000 <pixel_buffer-0x2000000>
300000ec:	000281a3          	sb	zero,3(t0)
300000f0:	02060863          	beqz	a2,30000120 <flashio_worker_L1>
300000f4:	00800f13          	li	t5,8
300000f8:	0ff67393          	zext.b	t2,a2

300000fc <flashio_worker_L4>:
300000fc:	0073de93          	srli	t4,t2,0x7
30000100:	01d28023          	sb	t4,0(t0)
30000104:	010eee93          	ori	t4,t4,16
30000108:	01d28023          	sb	t4,0(t0)
3000010c:	00139393          	slli	t2,t2,0x1
30000110:	0ff3f393          	zext.b	t2,t2
30000114:	ffff0f13          	addi	t5,t5,-1
30000118:	fe0f12e3          	bnez	t5,300000fc <flashio_worker_L4>
3000011c:	00628023          	sb	t1,0(t0)

30000120 <flashio_worker_L1>:
30000120:	04058663          	beqz	a1,3000016c <flashio_worker_L3>
30000124:	00800f13          	li	t5,8
30000128:	00054383          	lbu	t2,0(a0)

3000012c <flashio_worker_L2>:
3000012c:	0073de93          	srli	t4,t2,0x7
30000130:	01d28023          	sb	t4,0(t0)
30000134:	010eee93          	ori	t4,t4,16
30000138:	01d28023          	sb	t4,0(t0)
3000013c:	0002ce83          	lbu	t4,0(t0)
30000140:	002efe93          	andi	t4,t4,2
30000144:	001ede93          	srli	t4,t4,0x1
30000148:	00139393          	slli	t2,t2,0x1
3000014c:	01d3e3b3          	or	t2,t2,t4
30000150:	0ff3f393          	zext.b	t2,t2
30000154:	ffff0f13          	addi	t5,t5,-1
30000158:	fc0f1ae3          	bnez	t5,3000012c <flashio_worker_L2>
3000015c:	00750023          	sb	t2,0(a0)
30000160:	00150513          	addi	a0,a0,1
30000164:	fff58593          	addi	a1,a1,-1
30000168:	fb9ff06f          	j	30000120 <flashio_worker_L1>

3000016c <flashio_worker_L3>:
3000016c:	08000313          	li	t1,128
30000170:	006281a3          	sb	t1,3(t0)
30000174:	00008067          	ret

30000178 <screen_clear>:
30000178:	04000537          	lui	a0,0x4000
3000017c:	00010637          	lui	a2,0x10
30000180:	00000593          	li	a1,0
30000184:	50050513          	addi	a0,a0,1280 # 4000500 <donut_framebuffer_32>
30000188:	58c0006f          	j	30000714 <memset>

3000018c <donut>:
3000018c:	fa010113          	addi	sp,sp,-96
30000190:	04812c23          	sw	s0,88(sp)
30000194:	40000413          	li	s0,1024
30000198:	04912a23          	sw	s1,84(sp)
3000019c:	05212823          	sw	s2,80(sp)
300001a0:	05312623          	sw	s3,76(sp)
300001a4:	05512223          	sw	s5,68(sp)
300001a8:	04112e23          	sw	ra,92(sp)
300001ac:	05412423          	sw	s4,72(sp)
300001b0:	05612023          	sw	s6,64(sp)
300001b4:	03712e23          	sw	s7,60(sp)
300001b8:	03812c23          	sw	s8,56(sp)
300001bc:	03912a23          	sw	s9,52(sp)
300001c0:	03a12823          	sw	s10,48(sp)
300001c4:	03b12623          	sw	s11,44(sp)
300001c8:	00a12a23          	sw	a0,20(sp)
300001cc:	00000993          	li	s3,0
300001d0:	00000913          	li	s2,0
300001d4:	00040493          	mv	s1,s0
300001d8:	04000ab7          	lui	s5,0x4000
300001dc:	04000837          	lui	a6,0x4000
300001e0:	00080293          	mv	t0,a6
300001e4:	00080793          	mv	a5,a6
300001e8:	20028713          	addi	a4,t0,512
300001ec:	00080813          	mv	a6,a6
300001f0:	0007a023          	sw	zero,0(a5)
300001f4:	00478793          	addi	a5,a5,4
300001f8:	fef71ce3          	bne	a4,a5,300001f0 <donut+0x64>
300001fc:	7f7f8737          	lui	a4,0x7f7f8
30000200:	40080793          	addi	a5,a6,1024 # 4000400 <z_buffer>
30000204:	50080693          	addi	a3,a6,1280
30000208:	f7f70713          	addi	a4,a4,-129 # 7f7f7f7f <_etext+0x4f7f572b>
3000020c:	00e7a023          	sw	a4,0(a5)
30000210:	00478793          	addi	a5,a5,4
30000214:	fef69ce3          	bne	a3,a5,3000020c <donut+0x80>
30000218:	500a8713          	addi	a4,s5,1280 # 4000500 <donut_framebuffer_32>
3000021c:	000086b7          	lui	a3,0x8
30000220:	00d706b3          	add	a3,a4,a3
30000224:	500a8793          	addi	a5,s5,1280
30000228:	00072023          	sw	zero,0(a4)
3000022c:	00470713          	addi	a4,a4,4
30000230:	fee69ce3          	bne	a3,a4,30000228 <donut+0x9c>
30000234:	41200733          	neg	a4,s2
30000238:	00e12c23          	sw	a4,24(sp)
3000023c:	40900733          	neg	a4,s1
30000240:	05a00893          	li	a7,90
30000244:	40000313          	li	t1,1024
30000248:	00000f93          	li	t6,0
3000024c:	00c00c13          	li	s8,12
30000250:	00e00c93          	li	s9,14
30000254:	00e12e23          	sw	a4,28(sp)
30000258:	00500613          	li	a2,5
3000025c:	003005b7          	lui	a1,0x300
30000260:	00900d13          	li	s10,9
30000264:	03f483b3          	mul	t2,s1,t6
30000268:	00001737          	lui	a4,0x1
3000026c:	40000f13          	li	t5,1024
30000270:	10000b13          	li	s6,256
30000274:	00000e93          	li	t4,0
30000278:	01e30bb3          	add	s7,t1,t5
3000027c:	40a3d393          	srai	t2,t2,0xa
30000280:	00e38733          	add	a4,t2,a4
30000284:	00a71713          	slli	a4,a4,0xa
30000288:	00e12623          	sw	a4,12(sp)
3000028c:	02640733          	mul	a4,s0,t1
30000290:	03f90a33          	mul	s4,s2,t6
30000294:	40a75713          	srai	a4,a4,0xa
30000298:	00e12823          	sw	a4,16(sp)
3000029c:	40aa5a13          	srai	s4,s4,0xa
300002a0:	03db86b3          	mul	a3,s7,t4
300002a4:	00c12503          	lw	a0,12(sp)
300002a8:	40a6d693          	srai	a3,a3,0xa
300002ac:	02d48733          	mul	a4,s1,a3
300002b0:	03eb8e33          	mul	t3,s7,t5
300002b4:	40a75713          	srai	a4,a4,0xa
300002b8:	40ea0733          	sub	a4,s4,a4
300002bc:	02d906b3          	mul	a3,s2,a3
300002c0:	40ae5e13          	srai	t3,t3,0xa
300002c4:	00a686b3          	add	a3,a3,a0
300002c8:	02e40db3          	mul	s11,s0,a4
300002cc:	03c98533          	mul	a0,s3,t3
300002d0:	02e98733          	mul	a4,s3,a4
300002d4:	41b50db3          	sub	s11,a0,s11
300002d8:	03c40e33          	mul	t3,s0,t3
300002dc:	01c70733          	add	a4,a4,t3
300002e0:	03870533          	mul	a0,a4,s8
300002e4:	02d54533          	div	a0,a0,a3
300002e8:	038d8db3          	mul	s11,s11,s8
300002ec:	00750713          	addi	a4,a0,7
300002f0:	02ddcdb3          	div	s11,s11,a3
300002f4:	0aece663          	bltu	s9,a4,300003a0 <donut+0x214>
300002f8:	007d8713          	addi	a4,s11,7
300002fc:	0aece263          	bltu	s9,a4,300003a0 <donut+0x214>
30000300:	00850513          	addi	a0,a0,8
30000304:	00451513          	slli	a0,a0,0x4
30000308:	008d8d93          	addi	s11,s11,8
3000030c:	ffc00737          	lui	a4,0xffc00
30000310:	01b50533          	add	a0,a0,s11
30000314:	00e686b3          	add	a3,a3,a4
30000318:	00a80e33          	add	t3,a6,a0
3000031c:	40f6d693          	srai	a3,a3,0xf
30000320:	400e0703          	lb	a4,1024(t3)
30000324:	01869693          	slli	a3,a3,0x18
30000328:	4186d693          	srai	a3,a3,0x18
3000032c:	06e6da63          	bge	a3,a4,300003a0 <donut+0x214>
30000330:	40de0023          	sb	a3,1024(t3)
30000334:	01c12d83          	lw	s11,28(sp)
30000338:	01812e03          	lw	t3,24(sp)
3000033c:	00251693          	slli	a3,a0,0x2
30000340:	30002537          	lui	a0,0x30002
30000344:	64050513          	addi	a0,a0,1600 # 30002640 <gray_colors>
30000348:	00d806b3          	add	a3,a6,a3
3000034c:	026e8733          	mul	a4,t4,t1
30000350:	40a75713          	srai	a4,a4,0xa
30000354:	02ee0e33          	mul	t3,t3,a4
30000358:	02ed8733          	mul	a4,s11,a4
3000035c:	40a75713          	srai	a4,a4,0xa
30000360:	01470733          	add	a4,a4,s4
30000364:	03370733          	mul	a4,a4,s3
30000368:	40ee0733          	sub	a4,t3,a4
3000036c:	01012e03          	lw	t3,16(sp)
30000370:	03ee0e33          	mul	t3,t3,t5
30000374:	41c70733          	sub	a4,a4,t3
30000378:	40a75713          	srai	a4,a4,0xa
3000037c:	40770733          	sub	a4,a4,t2
30000380:	40775713          	srai	a4,a4,0x7
30000384:	fff74e13          	not	t3,a4
30000388:	41fe5e13          	srai	t3,t3,0x1f
3000038c:	01c77733          	and	a4,a4,t3
30000390:	00271713          	slli	a4,a4,0x2
30000394:	00e50533          	add	a0,a0,a4
30000398:	00052703          	lw	a4,0(a0)
3000039c:	00e6a023          	sw	a4,0(a3) # 8000 <pixel_buffer-0x3ff8000>
300003a0:	02ce86b3          	mul	a3,t4,a2
300003a4:	fffb0b13          	addi	s6,s6,-1
300003a8:	02cf0733          	mul	a4,t5,a2
300003ac:	4086d693          	srai	a3,a3,0x8
300003b0:	40df06b3          	sub	a3,t5,a3
300003b4:	40875713          	srai	a4,a4,0x8
300003b8:	01d70733          	add	a4,a4,t4
300003bc:	02d68533          	mul	a0,a3,a3
300003c0:	02e70e33          	mul	t3,a4,a4
300003c4:	40a58533          	sub	a0,a1,a0
300003c8:	41c50533          	sub	a0,a0,t3
300003cc:	40b55513          	srai	a0,a0,0xb
300003d0:	02a686b3          	mul	a3,a3,a0
300003d4:	02a70733          	mul	a4,a4,a0
300003d8:	40a6df13          	srai	t5,a3,0xa
300003dc:	40a75e93          	srai	t4,a4,0xa
300003e0:	ec0b10e3          	bnez	s6,300002a0 <donut+0x114>
300003e4:	03af86b3          	mul	a3,t6,s10
300003e8:	fff88893          	addi	a7,a7,-1
300003ec:	03a30733          	mul	a4,t1,s10
300003f0:	4076d693          	srai	a3,a3,0x7
300003f4:	40d306b3          	sub	a3,t1,a3
300003f8:	40775713          	srai	a4,a4,0x7
300003fc:	01f70733          	add	a4,a4,t6
30000400:	02d68533          	mul	a0,a3,a3
30000404:	02e70333          	mul	t1,a4,a4
30000408:	40a58533          	sub	a0,a1,a0
3000040c:	40650533          	sub	a0,a0,t1
30000410:	40b55513          	srai	a0,a0,0xb
30000414:	02a686b3          	mul	a3,a3,a0
30000418:	02a70733          	mul	a4,a4,a0
3000041c:	40a6d313          	srai	t1,a3,0xa
30000420:	40a75f93          	srai	t6,a4,0xa
30000424:	e40890e3          	bnez	a7,30000264 <donut+0xd8>
30000428:	02c486b3          	mul	a3,s1,a2
3000042c:	10000313          	li	t1,256
30000430:	02c90733          	mul	a4,s2,a2
30000434:	4076d693          	srai	a3,a3,0x7
30000438:	40d906b3          	sub	a3,s2,a3
3000043c:	40775713          	srai	a4,a4,0x7
30000440:	00970733          	add	a4,a4,s1
30000444:	02d68533          	mul	a0,a3,a3
30000448:	02e70833          	mul	a6,a4,a4
3000044c:	40a58533          	sub	a0,a1,a0
30000450:	41050533          	sub	a0,a0,a6
30000454:	40b55513          	srai	a0,a0,0xb
30000458:	02a70733          	mul	a4,a4,a0
3000045c:	40a75493          	srai	s1,a4,0xa
30000460:	02c40733          	mul	a4,s0,a2
30000464:	02a686b3          	mul	a3,a3,a0
30000468:	40875713          	srai	a4,a4,0x8
3000046c:	40e98733          	sub	a4,s3,a4
30000470:	02c98633          	mul	a2,s3,a2
30000474:	40a6d913          	srai	s2,a3,0xa
30000478:	02e706b3          	mul	a3,a4,a4
3000047c:	40865613          	srai	a2,a2,0x8
30000480:	00860633          	add	a2,a2,s0
30000484:	40d585b3          	sub	a1,a1,a3
30000488:	02c606b3          	mul	a3,a2,a2
3000048c:	40d585b3          	sub	a1,a1,a3
30000490:	40b5d593          	srai	a1,a1,0xb
30000494:	02b70733          	mul	a4,a4,a1
30000498:	02b60633          	mul	a2,a2,a1
3000049c:	40a75993          	srai	s3,a4,0xa
300004a0:	40a65413          	srai	s0,a2,0xa
300004a4:	00689613          	slli	a2,a7,0x6
300004a8:	08060813          	addi	a6,a2,128 # 10080 <pixel_buffer-0x3feff80>
300004ac:	00028513          	mv	a0,t0
300004b0:	00052683          	lw	a3,0(a0)
300004b4:	20068263          	beqz	a3,300006b8 <donut+0x52c>
300004b8:	40165713          	srai	a4,a2,0x1
300004bc:	00271593          	slli	a1,a4,0x2
300004c0:	00b785b3          	add	a1,a5,a1
300004c4:	00d5a023          	sw	a3,0(a1) # 300000 <pixel_buffer-0x3d00000>
300004c8:	00170593          	addi	a1,a4,1 # ffc00001 <_etext+0xcfbfd7ad>
300004cc:	00259593          	slli	a1,a1,0x2
300004d0:	00b785b3          	add	a1,a5,a1
300004d4:	00d5a023          	sw	a3,0(a1)
300004d8:	00270593          	addi	a1,a4,2
300004dc:	00259593          	slli	a1,a1,0x2
300004e0:	00b785b3          	add	a1,a5,a1
300004e4:	00d5a023          	sw	a3,0(a1)
300004e8:	00370593          	addi	a1,a4,3
300004ec:	00259593          	slli	a1,a1,0x2
300004f0:	00b785b3          	add	a1,a5,a1
300004f4:	00d5a023          	sw	a3,0(a1)
300004f8:	04070593          	addi	a1,a4,64
300004fc:	00259593          	slli	a1,a1,0x2
30000500:	00b785b3          	add	a1,a5,a1
30000504:	00d5a023          	sw	a3,0(a1)
30000508:	04170593          	addi	a1,a4,65
3000050c:	00259593          	slli	a1,a1,0x2
30000510:	00b785b3          	add	a1,a5,a1
30000514:	00d5a023          	sw	a3,0(a1)
30000518:	04270593          	addi	a1,a4,66
3000051c:	00259593          	slli	a1,a1,0x2
30000520:	00b785b3          	add	a1,a5,a1
30000524:	00d5a023          	sw	a3,0(a1)
30000528:	04370593          	addi	a1,a4,67
3000052c:	00259593          	slli	a1,a1,0x2
30000530:	00b785b3          	add	a1,a5,a1
30000534:	00d5a023          	sw	a3,0(a1)
30000538:	08070593          	addi	a1,a4,128
3000053c:	00259593          	slli	a1,a1,0x2
30000540:	00b785b3          	add	a1,a5,a1
30000544:	00d5a023          	sw	a3,0(a1)
30000548:	08170593          	addi	a1,a4,129
3000054c:	00259593          	slli	a1,a1,0x2
30000550:	00b785b3          	add	a1,a5,a1
30000554:	00d5a023          	sw	a3,0(a1)
30000558:	08270593          	addi	a1,a4,130
3000055c:	00259593          	slli	a1,a1,0x2
30000560:	00b785b3          	add	a1,a5,a1
30000564:	00d5a023          	sw	a3,0(a1)
30000568:	08370593          	addi	a1,a4,131
3000056c:	00259593          	slli	a1,a1,0x2
30000570:	00b785b3          	add	a1,a5,a1
30000574:	00d5a023          	sw	a3,0(a1)
30000578:	0c070593          	addi	a1,a4,192
3000057c:	00259593          	slli	a1,a1,0x2
30000580:	00b785b3          	add	a1,a5,a1
30000584:	00d5a023          	sw	a3,0(a1)
30000588:	0c170593          	addi	a1,a4,193
3000058c:	00259593          	slli	a1,a1,0x2
30000590:	00b785b3          	add	a1,a5,a1
30000594:	00d5a023          	sw	a3,0(a1)
30000598:	0c270593          	addi	a1,a4,194
3000059c:	00259593          	slli	a1,a1,0x2
300005a0:	00b785b3          	add	a1,a5,a1
300005a4:	00d5a023          	sw	a3,0(a1)
300005a8:	0c370593          	addi	a1,a4,195
300005ac:	00259593          	slli	a1,a1,0x2
300005b0:	00b785b3          	add	a1,a5,a1
300005b4:	00d5a023          	sw	a3,0(a1)
300005b8:	10070593          	addi	a1,a4,256
300005bc:	00259593          	slli	a1,a1,0x2
300005c0:	00b785b3          	add	a1,a5,a1
300005c4:	00d5a023          	sw	a3,0(a1)
300005c8:	10170593          	addi	a1,a4,257
300005cc:	00259593          	slli	a1,a1,0x2
300005d0:	00b785b3          	add	a1,a5,a1
300005d4:	00d5a023          	sw	a3,0(a1)
300005d8:	10270593          	addi	a1,a4,258
300005dc:	00259593          	slli	a1,a1,0x2
300005e0:	00b785b3          	add	a1,a5,a1
300005e4:	00d5a023          	sw	a3,0(a1)
300005e8:	10370593          	addi	a1,a4,259
300005ec:	00259593          	slli	a1,a1,0x2
300005f0:	00b785b3          	add	a1,a5,a1
300005f4:	00d5a023          	sw	a3,0(a1)
300005f8:	14070593          	addi	a1,a4,320
300005fc:	00259593          	slli	a1,a1,0x2
30000600:	00b785b3          	add	a1,a5,a1
30000604:	00d5a023          	sw	a3,0(a1)
30000608:	14170593          	addi	a1,a4,321
3000060c:	00259593          	slli	a1,a1,0x2
30000610:	00b785b3          	add	a1,a5,a1
30000614:	00d5a023          	sw	a3,0(a1)
30000618:	14270593          	addi	a1,a4,322
3000061c:	00259593          	slli	a1,a1,0x2
30000620:	00b785b3          	add	a1,a5,a1
30000624:	00d5a023          	sw	a3,0(a1)
30000628:	14370593          	addi	a1,a4,323
3000062c:	00259593          	slli	a1,a1,0x2
30000630:	00b785b3          	add	a1,a5,a1
30000634:	00d5a023          	sw	a3,0(a1)
30000638:	18070593          	addi	a1,a4,384
3000063c:	00259593          	slli	a1,a1,0x2
30000640:	00b785b3          	add	a1,a5,a1
30000644:	00d5a023          	sw	a3,0(a1)
30000648:	18170593          	addi	a1,a4,385
3000064c:	00259593          	slli	a1,a1,0x2
30000650:	00b785b3          	add	a1,a5,a1
30000654:	00d5a023          	sw	a3,0(a1)
30000658:	18270593          	addi	a1,a4,386
3000065c:	00259593          	slli	a1,a1,0x2
30000660:	00b785b3          	add	a1,a5,a1
30000664:	00d5a023          	sw	a3,0(a1)
30000668:	18370593          	addi	a1,a4,387
3000066c:	00259593          	slli	a1,a1,0x2
30000670:	00b785b3          	add	a1,a5,a1
30000674:	00d5a023          	sw	a3,0(a1)
30000678:	1c070593          	addi	a1,a4,448
3000067c:	00259593          	slli	a1,a1,0x2
30000680:	00b785b3          	add	a1,a5,a1
30000684:	00d5a023          	sw	a3,0(a1)
30000688:	1c170593          	addi	a1,a4,449
3000068c:	00259593          	slli	a1,a1,0x2
30000690:	00b785b3          	add	a1,a5,a1
30000694:	00d5a023          	sw	a3,0(a1)
30000698:	1c270593          	addi	a1,a4,450
3000069c:	00259593          	slli	a1,a1,0x2
300006a0:	1c370713          	addi	a4,a4,451
300006a4:	00b785b3          	add	a1,a5,a1
300006a8:	00271713          	slli	a4,a4,0x2
300006ac:	00d5a023          	sw	a3,0(a1)
300006b0:	00e78733          	add	a4,a5,a4
300006b4:	00d72023          	sw	a3,0(a4)
300006b8:	00860613          	addi	a2,a2,8
300006bc:	00450513          	addi	a0,a0,4
300006c0:	dec818e3          	bne	a6,a2,300004b0 <donut+0x324>
300006c4:	01088893          	addi	a7,a7,16
300006c8:	04028293          	addi	t0,t0,64
300006cc:	dc689ce3          	bne	a7,t1,300004a4 <donut+0x318>
300006d0:	01412503          	lw	a0,20(sp)
300006d4:	08000713          	li	a4,128
300006d8:	500a8793          	addi	a5,s5,1280
300006dc:	00070693          	mv	a3,a4
300006e0:	00000613          	li	a2,0
300006e4:	00000593          	li	a1,0
300006e8:	0e9010ef          	jal	30001fd0 <st7735_fill_img>
300006ec:	af1ff06f          	j	300001dc <donut+0x50>

300006f0 <memcpy>:
300006f0:	00000793          	li	a5,0
300006f4:	00f61463          	bne	a2,a5,300006fc <memcpy+0xc>
300006f8:	00008067          	ret
300006fc:	00f58733          	add	a4,a1,a5
30000700:	00074683          	lbu	a3,0(a4)
30000704:	00f50733          	add	a4,a0,a5
30000708:	00178793          	addi	a5,a5,1
3000070c:	00d70023          	sb	a3,0(a4)
30000710:	fe5ff06f          	j	300006f4 <memcpy+0x4>

30000714 <memset>:
30000714:	00c50633          	add	a2,a0,a2
30000718:	00050793          	mv	a5,a0
3000071c:	00c79463          	bne	a5,a2,30000724 <memset+0x10>
30000720:	00008067          	ret
30000724:	00178793          	addi	a5,a5,1
30000728:	feb78fa3          	sb	a1,-1(a5)
3000072c:	ff1ff06f          	j	3000071c <memset+0x8>

30000730 <strlen>:
30000730:	00050793          	mv	a5,a0
30000734:	00000513          	li	a0,0
30000738:	00a78733          	add	a4,a5,a0
3000073c:	00074703          	lbu	a4,0(a4)
30000740:	00071463          	bnez	a4,30000748 <strlen+0x18>
30000744:	00008067          	ret
30000748:	00150513          	addi	a0,a0,1
3000074c:	fedff06f          	j	30000738 <strlen+0x8>

30000750 <puts_helper>:
30000750:	ff010113          	addi	sp,sp,-16
30000754:	00812423          	sw	s0,8(sp)
30000758:	00912223          	sw	s1,4(sp)
3000075c:	00112623          	sw	ra,12(sp)
30000760:	00050493          	mv	s1,a0
30000764:	00000413          	li	s0,0
30000768:	008487b3          	add	a5,s1,s0
3000076c:	0007c503          	lbu	a0,0(a5)
30000770:	00051e63          	bnez	a0,3000078c <puts_helper+0x3c>
30000774:	00c12083          	lw	ra,12(sp)
30000778:	00040513          	mv	a0,s0
3000077c:	00812403          	lw	s0,8(sp)
30000780:	00412483          	lw	s1,4(sp)
30000784:	01010113          	addi	sp,sp,16
30000788:	00008067          	ret
3000078c:	464000ef          	jal	30000bf0 <sys_putchar>
30000790:	00140413          	addi	s0,s0,1
30000794:	fd5ff06f          	j	30000768 <puts_helper+0x18>

30000798 <itoa_hex.isra.0>:
30000798:	ff010113          	addi	sp,sp,-16
3000079c:	04060863          	beqz	a2,300007ec <itoa_hex.isra.0+0x54>
300007a0:	300027b7          	lui	a5,0x30002
300007a4:	69478793          	addi	a5,a5,1684 # 30002694 <gray_colors+0x54>
300007a8:	00410813          	addi	a6,sp,4
300007ac:	04051663          	bnez	a0,300007f8 <itoa_hex.isra.0+0x60>
300007b0:	03000793          	li	a5,48
300007b4:	00f10223          	sb	a5,4(sp)
300007b8:	00100713          	li	a4,1
300007bc:	00058693          	mv	a3,a1
300007c0:	00070793          	mv	a5,a4
300007c4:	fff78793          	addi	a5,a5,-1
300007c8:	00f80633          	add	a2,a6,a5
300007cc:	00064603          	lbu	a2,0(a2)
300007d0:	00168693          	addi	a3,a3,1
300007d4:	fec68fa3          	sb	a2,-1(a3)
300007d8:	fe0796e3          	bnez	a5,300007c4 <itoa_hex.isra.0+0x2c>
300007dc:	00e585b3          	add	a1,a1,a4
300007e0:	00058023          	sb	zero,0(a1)
300007e4:	01010113          	addi	sp,sp,16
300007e8:	00008067          	ret
300007ec:	300027b7          	lui	a5,0x30002
300007f0:	6a878793          	addi	a5,a5,1704 # 300026a8 <gray_colors+0x68>
300007f4:	fb5ff06f          	j	300007a8 <itoa_hex.isra.0+0x10>
300007f8:	00080693          	mv	a3,a6
300007fc:	00000713          	li	a4,0
30000800:	00f57613          	andi	a2,a0,15
30000804:	00c78633          	add	a2,a5,a2
30000808:	00064603          	lbu	a2,0(a2)
3000080c:	00455513          	srli	a0,a0,0x4
30000810:	00170713          	addi	a4,a4,1
30000814:	00c68023          	sb	a2,0(a3)
30000818:	00168693          	addi	a3,a3,1
3000081c:	fe0512e3          	bnez	a0,30000800 <itoa_hex.isra.0+0x68>
30000820:	f9dff06f          	j	300007bc <itoa_hex.isra.0+0x24>

30000824 <itoa_decimal.isra.0>:
30000824:	ff010113          	addi	sp,sp,-16
30000828:	00410813          	addi	a6,sp,4
3000082c:	04055263          	bgez	a0,30000870 <itoa_decimal.isra.0+0x4c>
30000830:	40a00533          	neg	a0,a0
30000834:	00100713          	li	a4,1
30000838:	00080693          	mv	a3,a6
3000083c:	00000793          	li	a5,0
30000840:	00a00893          	li	a7,10
30000844:	03156633          	rem	a2,a0,a7
30000848:	00178793          	addi	a5,a5,1
3000084c:	00168693          	addi	a3,a3,1
30000850:	03154533          	div	a0,a0,a7
30000854:	03060613          	addi	a2,a2,48
30000858:	fec68fa3          	sb	a2,-1(a3)
3000085c:	fe0514e3          	bnez	a0,30000844 <itoa_decimal.isra.0+0x20>
30000860:	02070663          	beqz	a4,3000088c <itoa_decimal.isra.0+0x68>
30000864:	02d00693          	li	a3,45
30000868:	00d58023          	sb	a3,0(a1)
3000086c:	0200006f          	j	3000088c <itoa_decimal.isra.0+0x68>
30000870:	00050663          	beqz	a0,3000087c <itoa_decimal.isra.0+0x58>
30000874:	00000713          	li	a4,0
30000878:	fc1ff06f          	j	30000838 <itoa_decimal.isra.0+0x14>
3000087c:	03000793          	li	a5,48
30000880:	00f10223          	sb	a5,4(sp)
30000884:	00000713          	li	a4,0
30000888:	00100793          	li	a5,1
3000088c:	00e585b3          	add	a1,a1,a4
30000890:	00058693          	mv	a3,a1
30000894:	00078713          	mv	a4,a5
30000898:	fff70713          	addi	a4,a4,-1
3000089c:	00e80633          	add	a2,a6,a4
300008a0:	00064603          	lbu	a2,0(a2)
300008a4:	00168693          	addi	a3,a3,1
300008a8:	fec68fa3          	sb	a2,-1(a3)
300008ac:	fe0716e3          	bnez	a4,30000898 <itoa_decimal.isra.0+0x74>
300008b0:	00b787b3          	add	a5,a5,a1
300008b4:	00078023          	sb	zero,0(a5)
300008b8:	01010113          	addi	sp,sp,16
300008bc:	00008067          	ret

300008c0 <vprintf>:
300008c0:	fc010113          	addi	sp,sp,-64
300008c4:	02812c23          	sw	s0,56(sp)
300008c8:	02912a23          	sw	s1,52(sp)
300008cc:	03212823          	sw	s2,48(sp)
300008d0:	03312623          	sw	s3,44(sp)
300008d4:	03412423          	sw	s4,40(sp)
300008d8:	03512223          	sw	s5,36(sp)
300008dc:	02112e23          	sw	ra,60(sp)
300008e0:	03612023          	sw	s6,32(sp)
300008e4:	00050913          	mv	s2,a0
300008e8:	00058493          	mv	s1,a1
300008ec:	00000413          	li	s0,0
300008f0:	02500993          	li	s3,37
300008f4:	06900a13          	li	s4,105
300008f8:	07500a93          	li	s5,117
300008fc:	00094503          	lbu	a0,0(s2)
30000900:	02051863          	bnez	a0,30000930 <vprintf+0x70>
30000904:	03c12083          	lw	ra,60(sp)
30000908:	00040513          	mv	a0,s0
3000090c:	03812403          	lw	s0,56(sp)
30000910:	03412483          	lw	s1,52(sp)
30000914:	03012903          	lw	s2,48(sp)
30000918:	02c12983          	lw	s3,44(sp)
3000091c:	02812a03          	lw	s4,40(sp)
30000920:	02412a83          	lw	s5,36(sp)
30000924:	02012b03          	lw	s6,32(sp)
30000928:	04010113          	addi	sp,sp,64
3000092c:	00008067          	ret
30000930:	00190b13          	addi	s6,s2,1
30000934:	13351063          	bne	a0,s3,30000a54 <vprintf+0x194>
30000938:	00194783          	lbu	a5,1(s2)
3000093c:	10078c63          	beqz	a5,30000a54 <vprintf+0x194>
30000940:	05478063          	beq	a5,s4,30000980 <vprintf+0xc0>
30000944:	04fa6a63          	bltu	s4,a5,30000998 <vprintf+0xd8>
30000948:	05800713          	li	a4,88
3000094c:	0ce78063          	beq	a5,a4,30000a0c <vprintf+0x14c>
30000950:	02f76063          	bltu	a4,a5,30000970 <vprintf+0xb0>
30000954:	0f378863          	beq	a5,s3,30000a44 <vprintf+0x184>
30000958:	02500513          	li	a0,37
3000095c:	294000ef          	jal	30000bf0 <sys_putchar>
30000960:	00194503          	lbu	a0,1(s2)
30000964:	00240413          	addi	s0,s0,2
30000968:	288000ef          	jal	30000bf0 <sys_putchar>
3000096c:	0980006f          	j	30000a04 <vprintf+0x144>
30000970:	06300713          	li	a4,99
30000974:	06e78e63          	beq	a5,a4,300009f0 <vprintf+0x130>
30000978:	06400713          	li	a4,100
3000097c:	fce79ee3          	bne	a5,a4,30000958 <vprintf+0x98>
30000980:	0004a503          	lw	a0,0(s1)
30000984:	00010593          	mv	a1,sp
30000988:	00448913          	addi	s2,s1,4
3000098c:	e99ff0ef          	jal	30000824 <itoa_decimal.isra.0>
30000990:	00010513          	mv	a0,sp
30000994:	0300006f          	j	300009c4 <vprintf+0x104>
30000998:	ff5784e3          	beq	a5,s5,30000980 <vprintf+0xc0>
3000099c:	02faea63          	bltu	s5,a5,300009d0 <vprintf+0x110>
300009a0:	07000713          	li	a4,112
300009a4:	06e78a63          	beq	a5,a4,30000a18 <vprintf+0x158>
300009a8:	07300713          	li	a4,115
300009ac:	fae796e3          	bne	a5,a4,30000958 <vprintf+0x98>
300009b0:	0004a503          	lw	a0,0(s1)
300009b4:	00448913          	addi	s2,s1,4
300009b8:	00051663          	bnez	a0,300009c4 <vprintf+0x104>
300009bc:	30002537          	lui	a0,0x30002
300009c0:	6bc50513          	addi	a0,a0,1724 # 300026bc <gray_colors+0x7c>
300009c4:	d8dff0ef          	jal	30000750 <puts_helper>
300009c8:	00a40433          	add	s0,s0,a0
300009cc:	0340006f          	j	30000a00 <vprintf+0x140>
300009d0:	07800713          	li	a4,120
300009d4:	f8e792e3          	bne	a5,a4,30000958 <vprintf+0x98>
300009d8:	00448913          	addi	s2,s1,4
300009dc:	00000613          	li	a2,0
300009e0:	0004a503          	lw	a0,0(s1)
300009e4:	00010593          	mv	a1,sp
300009e8:	db1ff0ef          	jal	30000798 <itoa_hex.isra.0>
300009ec:	fa5ff06f          	j	30000990 <vprintf+0xd0>
300009f0:	0004c503          	lbu	a0,0(s1)
300009f4:	00448913          	addi	s2,s1,4
300009f8:	00140413          	addi	s0,s0,1
300009fc:	1f4000ef          	jal	30000bf0 <sys_putchar>
30000a00:	00090493          	mv	s1,s2
30000a04:	001b0913          	addi	s2,s6,1
30000a08:	ef5ff06f          	j	300008fc <vprintf+0x3c>
30000a0c:	00448913          	addi	s2,s1,4
30000a10:	00100613          	li	a2,1
30000a14:	fcdff06f          	j	300009e0 <vprintf+0x120>
30000a18:	03000513          	li	a0,48
30000a1c:	00448913          	addi	s2,s1,4
30000a20:	0004a483          	lw	s1,0(s1)
30000a24:	1cc000ef          	jal	30000bf0 <sys_putchar>
30000a28:	07800513          	li	a0,120
30000a2c:	1c4000ef          	jal	30000bf0 <sys_putchar>
30000a30:	00240413          	addi	s0,s0,2
30000a34:	00000613          	li	a2,0
30000a38:	00010593          	mv	a1,sp
30000a3c:	00048513          	mv	a0,s1
30000a40:	fa9ff06f          	j	300009e8 <vprintf+0x128>
30000a44:	00098513          	mv	a0,s3
30000a48:	1a8000ef          	jal	30000bf0 <sys_putchar>
30000a4c:	00140413          	addi	s0,s0,1
30000a50:	fb5ff06f          	j	30000a04 <vprintf+0x144>
30000a54:	19c000ef          	jal	30000bf0 <sys_putchar>
30000a58:	00140413          	addi	s0,s0,1
30000a5c:	00090b13          	mv	s6,s2
30000a60:	fa5ff06f          	j	30000a04 <vprintf+0x144>

30000a64 <printf>:
30000a64:	fc010113          	addi	sp,sp,-64
30000a68:	02b12223          	sw	a1,36(sp)
30000a6c:	02410593          	addi	a1,sp,36
30000a70:	00112e23          	sw	ra,28(sp)
30000a74:	02c12423          	sw	a2,40(sp)
30000a78:	02d12623          	sw	a3,44(sp)
30000a7c:	02e12823          	sw	a4,48(sp)
30000a80:	02f12a23          	sw	a5,52(sp)
30000a84:	03012c23          	sw	a6,56(sp)
30000a88:	03112e23          	sw	a7,60(sp)
30000a8c:	00b12623          	sw	a1,12(sp)
30000a90:	e31ff0ef          	jal	300008c0 <vprintf>
30000a94:	01c12083          	lw	ra,28(sp)
30000a98:	04010113          	addi	sp,sp,64
30000a9c:	00008067          	ret

30000aa0 <__divsi3>:
30000aa0:	06054063          	bltz	a0,30000b00 <__umodsi3+0x10>
30000aa4:	0605c663          	bltz	a1,30000b10 <__umodsi3+0x20>

30000aa8 <__udivsi3>:
30000aa8:	00058613          	mv	a2,a1
30000aac:	00050593          	mv	a1,a0
30000ab0:	fff00513          	li	a0,-1
30000ab4:	02060c63          	beqz	a2,30000aec <__udivsi3+0x44>
30000ab8:	00100693          	li	a3,1
30000abc:	00b67a63          	bgeu	a2,a1,30000ad0 <__udivsi3+0x28>
30000ac0:	00c05863          	blez	a2,30000ad0 <__udivsi3+0x28>
30000ac4:	00161613          	slli	a2,a2,0x1
30000ac8:	00169693          	slli	a3,a3,0x1
30000acc:	feb66ae3          	bltu	a2,a1,30000ac0 <__udivsi3+0x18>
30000ad0:	00000513          	li	a0,0
30000ad4:	00c5e663          	bltu	a1,a2,30000ae0 <__udivsi3+0x38>
30000ad8:	40c585b3          	sub	a1,a1,a2
30000adc:	00d56533          	or	a0,a0,a3
30000ae0:	0016d693          	srli	a3,a3,0x1
30000ae4:	00165613          	srli	a2,a2,0x1
30000ae8:	fe0696e3          	bnez	a3,30000ad4 <__udivsi3+0x2c>
30000aec:	00008067          	ret

30000af0 <__umodsi3>:
30000af0:	00008293          	mv	t0,ra
30000af4:	fb5ff0ef          	jal	30000aa8 <__udivsi3>
30000af8:	00058513          	mv	a0,a1
30000afc:	00028067          	jr	t0
30000b00:	40a00533          	neg	a0,a0
30000b04:	00b04863          	bgtz	a1,30000b14 <__umodsi3+0x24>
30000b08:	40b005b3          	neg	a1,a1
30000b0c:	f9dff06f          	j	30000aa8 <__udivsi3>
30000b10:	40b005b3          	neg	a1,a1
30000b14:	00008293          	mv	t0,ra
30000b18:	f91ff0ef          	jal	30000aa8 <__udivsi3>
30000b1c:	40a00533          	neg	a0,a0
30000b20:	00028067          	jr	t0

30000b24 <__modsi3>:
30000b24:	00008293          	mv	t0,ra
30000b28:	0005ca63          	bltz	a1,30000b3c <__modsi3+0x18>
30000b2c:	00054c63          	bltz	a0,30000b44 <__modsi3+0x20>
30000b30:	f79ff0ef          	jal	30000aa8 <__udivsi3>
30000b34:	00058513          	mv	a0,a1
30000b38:	00028067          	jr	t0
30000b3c:	40b005b3          	neg	a1,a1
30000b40:	fe0558e3          	bgez	a0,30000b30 <__modsi3+0xc>
30000b44:	40a00533          	neg	a0,a0
30000b48:	f61ff0ef          	jal	30000aa8 <__udivsi3>
30000b4c:	40b00533          	neg	a0,a1
30000b50:	00028067          	jr	t0

30000b54 <__muldi3>:
30000b54:	00050613          	mv	a2,a0
30000b58:	00000513          	li	a0,0
30000b5c:	0015f693          	andi	a3,a1,1
30000b60:	00068463          	beqz	a3,30000b68 <__muldi3+0x14>
30000b64:	00c50533          	add	a0,a0,a2
30000b68:	0015d593          	srli	a1,a1,0x1
30000b6c:	00161613          	slli	a2,a2,0x1
30000b70:	fe0596e3          	bnez	a1,30000b5c <__muldi3+0x8>
30000b74:	00008067          	ret

30000b78 <__mulsi3>:
30000b78:	00050793          	mv	a5,a0
30000b7c:	00000513          	li	a0,0
30000b80:	00079463          	bnez	a5,30000b88 <__mulsi3+0x10>
30000b84:	00008067          	ret
30000b88:	0017f713          	andi	a4,a5,1
30000b8c:	02b70733          	mul	a4,a4,a1
30000b90:	0017d793          	srli	a5,a5,0x1
30000b94:	00159593          	slli	a1,a1,0x1
30000b98:	00e50533          	add	a0,a0,a4
30000b9c:	fe5ff06f          	j	30000b80 <__mulsi3+0x8>

30000ba0 <__lshrdi3>:
30000ba0:	00050713          	mv	a4,a0
30000ba4:	00058793          	mv	a5,a1
30000ba8:	02060663          	beqz	a2,30000bd4 <__lshrdi3+0x34>
30000bac:	03f00813          	li	a6,63
30000bb0:	00000713          	li	a4,0
30000bb4:	00000793          	li	a5,0
30000bb8:	00c84e63          	blt	a6,a2,30000bd4 <__lshrdi3+0x34>
30000bbc:	ff010113          	addi	sp,sp,-16
30000bc0:	00112623          	sw	ra,12(sp)
30000bc4:	fddff0ef          	jal	30000ba0 <__lshrdi3>
30000bc8:	00c12083          	lw	ra,12(sp)
30000bcc:	01010113          	addi	sp,sp,16
30000bd0:	00008067          	ret
30000bd4:	00070513          	mv	a0,a4
30000bd8:	00078593          	mv	a1,a5
30000bdc:	00008067          	ret

30000be0 <sys_uart_init>:
30000be0:	030007b7          	lui	a5,0x3000
30000be4:	27100713          	li	a4,625
30000be8:	00e7a823          	sw	a4,16(a5) # 3000010 <pixel_buffer-0xfffff0>
30000bec:	00008067          	ret

30000bf0 <sys_putchar>:
30000bf0:	030007b7          	lui	a5,0x3000
30000bf4:	00a7aa23          	sw	a0,20(a5) # 3000014 <pixel_buffer-0xffffec>
30000bf8:	00008067          	ret

30000bfc <gpio_config>:
30000bfc:	0e050863          	beqz	a0,30000cec <gpio_config+0xf0>
30000c00:	fd010113          	addi	sp,sp,-48
30000c04:	01612823          	sw	s6,16(sp)
30000c08:	00052b03          	lw	s6,0(a0)
30000c0c:	02812423          	sw	s0,40(sp)
30000c10:	03000437          	lui	s0,0x3000
30000c14:	02912223          	sw	s1,36(sp)
30000c18:	01312e23          	sw	s3,28(sp)
30000c1c:	01412c23          	sw	s4,24(sp)
30000c20:	01512a23          	sw	s5,20(sp)
30000c24:	01712623          	sw	s7,12(sp)
30000c28:	01812423          	sw	s8,8(sp)
30000c2c:	01912223          	sw	s9,4(sp)
30000c30:	02112623          	sw	ra,44(sp)
30000c34:	03212023          	sw	s2,32(sp)
30000c38:	00050993          	mv	s3,a0
30000c3c:	00000493          	li	s1,0
30000c40:	00100b93          	li	s7,1
30000c44:	30002a37          	lui	s4,0x30002
30000c48:	30002c37          	lui	s8,0x30002
30000c4c:	00440413          	addi	s0,s0,4 # 3000004 <pixel_buffer-0xfffffc>
30000c50:	30002cb7          	lui	s9,0x30002
30000c54:	01000a93          	li	s5,16
30000c58:	009b57b3          	srl	a5,s6,s1
30000c5c:	0017f793          	andi	a5,a5,1
30000c60:	02078a63          	beqz	a5,30000c94 <gpio_config+0x98>
30000c64:	0049a783          	lw	a5,4(s3)
30000c68:	009b9933          	sll	s2,s7,s1
30000c6c:	00048593          	mv	a1,s1
30000c70:	06079063          	bnez	a5,30000cd0 <gpio_config+0xd4>
30000c74:	6c4c8513          	addi	a0,s9,1732 # 300026c4 <gray_colors+0x84>
30000c78:	dedff0ef          	jal	30000a64 <printf>
30000c7c:	00042783          	lw	a5,0(s0)
30000c80:	00f967b3          	or	a5,s2,a5
30000c84:	00f42023          	sw	a5,0(s0)
30000c88:	00042583          	lw	a1,0(s0)
30000c8c:	6dca0513          	addi	a0,s4,1756 # 300026dc <gray_colors+0x9c>
30000c90:	dd5ff0ef          	jal	30000a64 <printf>
30000c94:	00148493          	addi	s1,s1,1
30000c98:	fd5490e3          	bne	s1,s5,30000c58 <gpio_config+0x5c>
30000c9c:	02c12083          	lw	ra,44(sp)
30000ca0:	02812403          	lw	s0,40(sp)
30000ca4:	02412483          	lw	s1,36(sp)
30000ca8:	02012903          	lw	s2,32(sp)
30000cac:	01c12983          	lw	s3,28(sp)
30000cb0:	01812a03          	lw	s4,24(sp)
30000cb4:	01412a83          	lw	s5,20(sp)
30000cb8:	01012b03          	lw	s6,16(sp)
30000cbc:	00c12b83          	lw	s7,12(sp)
30000cc0:	00812c03          	lw	s8,8(sp)
30000cc4:	00412c83          	lw	s9,4(sp)
30000cc8:	03010113          	addi	sp,sp,48
30000ccc:	00008067          	ret
30000cd0:	6f0c0513          	addi	a0,s8,1776 # 300026f0 <gray_colors+0xb0>
30000cd4:	d91ff0ef          	jal	30000a64 <printf>
30000cd8:	00042783          	lw	a5,0(s0)
30000cdc:	fff94913          	not	s2,s2
30000ce0:	00f97933          	and	s2,s2,a5
30000ce4:	01242023          	sw	s2,0(s0)
30000ce8:	fa1ff06f          	j	30000c88 <gpio_config+0x8c>
30000cec:	00008067          	ret

30000cf0 <gpio_set_level>:
30000cf0:	00100713          	li	a4,1
30000cf4:	00a71533          	sll	a0,a4,a0
30000cf8:	030007b7          	lui	a5,0x3000
30000cfc:	00e59a63          	bne	a1,a4,30000d10 <gpio_set_level+0x20>
30000d00:	0007a703          	lw	a4,0(a5) # 3000000 <pixel_buffer-0x1000000>
30000d04:	00a76733          	or	a4,a4,a0
30000d08:	00e7a023          	sw	a4,0(a5)
30000d0c:	00008067          	ret
30000d10:	0007a703          	lw	a4,0(a5)
30000d14:	fff54513          	not	a0,a0
30000d18:	00e57533          	and	a0,a0,a4
30000d1c:	00a7a023          	sw	a0,0(a5)
30000d20:	00008067          	ret

30000d24 <gpio_get_level>:
30000d24:	030007b7          	lui	a5,0x3000
30000d28:	0007a783          	lw	a5,0(a5) # 3000000 <pixel_buffer-0x1000000>
30000d2c:	00a7d533          	srl	a0,a5,a0
30000d30:	00157513          	andi	a0,a0,1
30000d34:	00008067          	ret

30000d38 <qspi_init>:
30000d38:	ff010113          	addi	sp,sp,-16
30000d3c:	00112623          	sw	ra,12(sp)
30000d40:	01212023          	sw	s2,0(sp)
30000d44:	00812423          	sw	s0,8(sp)
30000d48:	00912223          	sw	s1,4(sp)
30000d4c:	030077b7          	lui	a5,0x3007
30000d50:	01000713          	li	a4,16
30000d54:	00e7a023          	sw	a4,0(a5) # 3007000 <pixel_buffer-0xff9000>
30000d58:	0007a023          	sw	zero,0(a5)
30000d5c:	0207a223          	sw	zero,36(a5)
30000d60:	0007aa23          	sw	zero,20(a5)
30000d64:	00052703          	lw	a4,0(a0)
30000d68:	30002537          	lui	a0,0x30002
30000d6c:	70850513          	addi	a0,a0,1800 # 30002708 <gray_colors+0xc8>
30000d70:	00e7a223          	sw	a4,4(a5)
30000d74:	0007a583          	lw	a1,0(a5)
30000d78:	00078913          	mv	s2,a5
30000d7c:	ce9ff0ef          	jal	30000a64 <printf>
30000d80:	02492583          	lw	a1,36(s2)
30000d84:	30002537          	lui	a0,0x30002
30000d88:	71c50513          	addi	a0,a0,1820 # 3000271c <gray_colors+0xdc>
30000d8c:	cd9ff0ef          	jal	30000a64 <printf>
30000d90:	01492583          	lw	a1,20(s2)
30000d94:	30002537          	lui	a0,0x30002
30000d98:	73050513          	addi	a0,a0,1840 # 30002730 <gray_colors+0xf0>
30000d9c:	cc9ff0ef          	jal	30000a64 <printf>
30000da0:	00812403          	lw	s0,8(sp)
30000da4:	00492583          	lw	a1,4(s2)
30000da8:	00c12083          	lw	ra,12(sp)
30000dac:	00412483          	lw	s1,4(sp)
30000db0:	00012903          	lw	s2,0(sp)
30000db4:	30002537          	lui	a0,0x30002
30000db8:	74050513          	addi	a0,a0,1856 # 30002740 <gray_colors+0x100>
30000dbc:	01010113          	addi	sp,sp,16
30000dc0:	ca5ff06f          	j	30000a64 <printf>

30000dc4 <qspi_write_8>:
30000dc4:	030077b7          	lui	a5,0x3007
30000dc8:	000806b7          	lui	a3,0x80
30000dcc:	00d7a823          	sw	a3,16(a5) # 3007010 <pixel_buffer-0xff8ff0>
30000dd0:	01851513          	slli	a0,a0,0x18
30000dd4:	10200713          	li	a4,258
30000dd8:	00a7ac23          	sw	a0,24(a5)
30000ddc:	00e7a023          	sw	a4,0(a5)
30000de0:	00100713          	li	a4,1
30000de4:	0007a683          	lw	a3,0(a5)
30000de8:	fee69ee3          	bne	a3,a4,30000de4 <qspi_write_8+0x20>
30000dec:	00008067          	ret

30000df0 <qspi_write_16>:
30000df0:	030077b7          	lui	a5,0x3007
30000df4:	001006b7          	lui	a3,0x100
30000df8:	00d7a823          	sw	a3,16(a5) # 3007010 <pixel_buffer-0xff8ff0>
30000dfc:	01051513          	slli	a0,a0,0x10
30000e00:	10200713          	li	a4,258
30000e04:	00a7ac23          	sw	a0,24(a5)
30000e08:	00e7a023          	sw	a4,0(a5)
30000e0c:	00100713          	li	a4,1
30000e10:	0007a683          	lw	a3,0(a5)
30000e14:	fee69ee3          	bne	a3,a4,30000e10 <qspi_write_16+0x20>
30000e18:	00008067          	ret

30000e1c <qspi_write_32>:
30000e1c:	030077b7          	lui	a5,0x3007
30000e20:	002006b7          	lui	a3,0x200
30000e24:	00d7a823          	sw	a3,16(a5) # 3007010 <pixel_buffer-0xff8ff0>
30000e28:	10200713          	li	a4,258
30000e2c:	00a7ac23          	sw	a0,24(a5)
30000e30:	00e7a023          	sw	a4,0(a5)
30000e34:	00100713          	li	a4,1
30000e38:	0007a683          	lw	a3,0(a5)
30000e3c:	fee69ee3          	bne	a3,a4,30000e38 <qspi_write_32+0x1c>
30000e40:	00008067          	ret

30000e44 <qspi_write_32x2>:
30000e44:	03007737          	lui	a4,0x3007
30000e48:	004006b7          	lui	a3,0x400
30000e4c:	00d72823          	sw	a3,16(a4) # 3007010 <pixel_buffer-0xff8ff0>
30000e50:	00a72c23          	sw	a0,24(a4)
30000e54:	10200793          	li	a5,258
30000e58:	00b72c23          	sw	a1,24(a4)
30000e5c:	00f72023          	sw	a5,0(a4)
30000e60:	00100793          	li	a5,1
30000e64:	00072683          	lw	a3,0(a4)
30000e68:	fef69ee3          	bne	a3,a5,30000e64 <qspi_write_32x2+0x20>
30000e6c:	00008067          	ret

30000e70 <qspi_write_32x8>:
30000e70:	03007e37          	lui	t3,0x3007
30000e74:	01000eb7          	lui	t4,0x1000
30000e78:	01de2823          	sw	t4,16(t3) # 3007010 <pixel_buffer-0xff8ff0>
30000e7c:	00ae2c23          	sw	a0,24(t3)
30000e80:	00be2c23          	sw	a1,24(t3)
30000e84:	00ce2c23          	sw	a2,24(t3)
30000e88:	00de2c23          	sw	a3,24(t3)
30000e8c:	00ee2c23          	sw	a4,24(t3)
30000e90:	00fe2c23          	sw	a5,24(t3)
30000e94:	010e2c23          	sw	a6,24(t3)
30000e98:	10200793          	li	a5,258
30000e9c:	011e2c23          	sw	a7,24(t3)
30000ea0:	00fe2023          	sw	a5,0(t3)
30000ea4:	00100793          	li	a5,1
30000ea8:	000e2703          	lw	a4,0(t3)
30000eac:	fef71ee3          	bne	a4,a5,30000ea8 <qspi_write_32x8+0x38>
30000eb0:	00008067          	ret

30000eb4 <qspi_write_32x16>:
30000eb4:	03007e37          	lui	t3,0x3007
30000eb8:	02000eb7          	lui	t4,0x2000
30000ebc:	01de2823          	sw	t4,16(t3) # 3007010 <pixel_buffer-0xff8ff0>
30000ec0:	00ae2c23          	sw	a0,24(t3)
30000ec4:	00be2c23          	sw	a1,24(t3)
30000ec8:	00ce2c23          	sw	a2,24(t3)
30000ecc:	00de2c23          	sw	a3,24(t3)
30000ed0:	00ee2c23          	sw	a4,24(t3)
30000ed4:	00fe2c23          	sw	a5,24(t3)
30000ed8:	010e2c23          	sw	a6,24(t3)
30000edc:	011e2c23          	sw	a7,24(t3)
30000ee0:	00012783          	lw	a5,0(sp)
30000ee4:	00fe2c23          	sw	a5,24(t3)
30000ee8:	00412783          	lw	a5,4(sp)
30000eec:	00fe2c23          	sw	a5,24(t3)
30000ef0:	00812783          	lw	a5,8(sp)
30000ef4:	00fe2c23          	sw	a5,24(t3)
30000ef8:	00c12783          	lw	a5,12(sp)
30000efc:	00fe2c23          	sw	a5,24(t3)
30000f00:	01012783          	lw	a5,16(sp)
30000f04:	00fe2c23          	sw	a5,24(t3)
30000f08:	01412783          	lw	a5,20(sp)
30000f0c:	00fe2c23          	sw	a5,24(t3)
30000f10:	01812783          	lw	a5,24(sp)
30000f14:	00fe2c23          	sw	a5,24(t3)
30000f18:	01c12783          	lw	a5,28(sp)
30000f1c:	00fe2c23          	sw	a5,24(t3)
30000f20:	10200793          	li	a5,258
30000f24:	00fe2023          	sw	a5,0(t3)
30000f28:	00100793          	li	a5,1
30000f2c:	000e2703          	lw	a4,0(t3)
30000f30:	fef71ee3          	bne	a4,a5,30000f2c <qspi_write_32x16+0x78>
30000f34:	00008067          	ret

30000f38 <qspi_write_32x32>:
30000f38:	03007e37          	lui	t3,0x3007
30000f3c:	04000eb7          	lui	t4,0x4000
30000f40:	01de2823          	sw	t4,16(t3) # 3007010 <pixel_buffer-0xff8ff0>
30000f44:	00ae2c23          	sw	a0,24(t3)
30000f48:	00be2c23          	sw	a1,24(t3)
30000f4c:	00ce2c23          	sw	a2,24(t3)
30000f50:	00de2c23          	sw	a3,24(t3)
30000f54:	00ee2c23          	sw	a4,24(t3)
30000f58:	00fe2c23          	sw	a5,24(t3)
30000f5c:	010e2c23          	sw	a6,24(t3)
30000f60:	011e2c23          	sw	a7,24(t3)
30000f64:	00012783          	lw	a5,0(sp)
30000f68:	018e0313          	addi	t1,t3,24
30000f6c:	00f32023          	sw	a5,0(t1)
30000f70:	00412783          	lw	a5,4(sp)
30000f74:	00f32023          	sw	a5,0(t1)
30000f78:	00812783          	lw	a5,8(sp)
30000f7c:	00f32023          	sw	a5,0(t1)
30000f80:	00c12783          	lw	a5,12(sp)
30000f84:	00f32023          	sw	a5,0(t1)
30000f88:	01012783          	lw	a5,16(sp)
30000f8c:	00f32023          	sw	a5,0(t1)
30000f90:	01412783          	lw	a5,20(sp)
30000f94:	00f32023          	sw	a5,0(t1)
30000f98:	01812783          	lw	a5,24(sp)
30000f9c:	00f32023          	sw	a5,0(t1)
30000fa0:	01c12783          	lw	a5,28(sp)
30000fa4:	00f32023          	sw	a5,0(t1)
30000fa8:	02012783          	lw	a5,32(sp)
30000fac:	00f32023          	sw	a5,0(t1)
30000fb0:	02412783          	lw	a5,36(sp)
30000fb4:	00f32023          	sw	a5,0(t1)
30000fb8:	02812783          	lw	a5,40(sp)
30000fbc:	00f32023          	sw	a5,0(t1)
30000fc0:	02c12783          	lw	a5,44(sp)
30000fc4:	00f32023          	sw	a5,0(t1)
30000fc8:	03012783          	lw	a5,48(sp)
30000fcc:	00f32023          	sw	a5,0(t1)
30000fd0:	03412783          	lw	a5,52(sp)
30000fd4:	00f32023          	sw	a5,0(t1)
30000fd8:	03812783          	lw	a5,56(sp)
30000fdc:	00f32023          	sw	a5,0(t1)
30000fe0:	03c12783          	lw	a5,60(sp)
30000fe4:	00f32023          	sw	a5,0(t1)
30000fe8:	04012783          	lw	a5,64(sp)
30000fec:	00f32023          	sw	a5,0(t1)
30000ff0:	04412783          	lw	a5,68(sp)
30000ff4:	00f32023          	sw	a5,0(t1)
30000ff8:	04812783          	lw	a5,72(sp)
30000ffc:	00f32023          	sw	a5,0(t1)
30001000:	04c12783          	lw	a5,76(sp)
30001004:	00f32023          	sw	a5,0(t1)
30001008:	05012783          	lw	a5,80(sp)
3000100c:	00f32023          	sw	a5,0(t1)
30001010:	05412783          	lw	a5,84(sp)
30001014:	00f32023          	sw	a5,0(t1)
30001018:	05812783          	lw	a5,88(sp)
3000101c:	00f32023          	sw	a5,0(t1)
30001020:	05c12783          	lw	a5,92(sp)
30001024:	00f32023          	sw	a5,0(t1)
30001028:	10200793          	li	a5,258
3000102c:	00fe2023          	sw	a5,0(t3)
30001030:	00100793          	li	a5,1
30001034:	000e2703          	lw	a4,0(t3)
30001038:	fef71ee3          	bne	a4,a5,30001034 <qspi_write_32x32+0xfc>
3000103c:	00008067          	ret

30001040 <delay_us>:
30001040:	03000737          	lui	a4,0x3000
30001044:	10000793          	li	a5,256
30001048:	04f72e23          	sw	a5,92(a4) # 300005c <pixel_buffer-0xffffa4>
3000104c:	04800793          	li	a5,72
30001050:	02f50533          	mul	a0,a0,a5
30001054:	06470793          	addi	a5,a4,100
30001058:	10100693          	li	a3,257
3000105c:	fff50513          	addi	a0,a0,-1
30001060:	00a7a023          	sw	a0,0(a5)
30001064:	04d72e23          	sw	a3,92(a4)
30001068:	0007a703          	lw	a4,0(a5)
3000106c:	fe071ee3          	bnez	a4,30001068 <delay_us+0x28>
30001070:	00008067          	ret

30001074 <delay_ms>:
30001074:	3e800793          	li	a5,1000
30001078:	02f50533          	mul	a0,a0,a5
3000107c:	fc5ff06f          	j	30001040 <delay_us>

30001080 <delay_s>:
30001080:	3e800793          	li	a5,1000
30001084:	02f50533          	mul	a0,a0,a5
30001088:	fedff06f          	j	30001074 <delay_ms>

3000108c <sys_tick_init>:
3000108c:	030007b7          	lui	a5,0x3000
30001090:	10000713          	li	a4,256
30001094:	06e7a423          	sw	a4,104(a5) # 3000068 <pixel_buffer-0xffff98>
30001098:	fff00693          	li	a3,-1
3000109c:	06d7a823          	sw	a3,112(a5)
300010a0:	10100713          	li	a4,257
300010a4:	06e7a423          	sw	a4,104(a5)
300010a8:	00008067          	ret

300010ac <get_sys_tick>:
300010ac:	030007b7          	lui	a5,0x3000
300010b0:	0707a503          	lw	a0,112(a5) # 3000070 <pixel_buffer-0xffff90>
300010b4:	fff54513          	not	a0,a0
300010b8:	00008067          	ret

300010bc <pwm_init>:
300010bc:	00052703          	lw	a4,0(a0)
300010c0:	030047b7          	lui	a5,0x3004
300010c4:	00e7a223          	sw	a4,4(a5) # 3004004 <pixel_buffer-0xffbffc>
300010c8:	00452703          	lw	a4,4(a0)
300010cc:	00e7a623          	sw	a4,12(a5)
300010d0:	00300713          	li	a4,3
300010d4:	00e7a023          	sw	a4,0(a5)
300010d8:	00008067          	ret

300010dc <pwm_set_compare>:
300010dc:	00200793          	li	a5,2
300010e0:	02f50863          	beq	a0,a5,30001110 <pwm_set_compare+0x34>
300010e4:	00a7ea63          	bltu	a5,a0,300010f8 <pwm_set_compare+0x1c>
300010e8:	00051e63          	bnez	a0,30001104 <pwm_set_compare+0x28>
300010ec:	030047b7          	lui	a5,0x3004
300010f0:	00b7a823          	sw	a1,16(a5) # 3004010 <pixel_buffer-0xffbff0>
300010f4:	00008067          	ret
300010f8:	00300793          	li	a5,3
300010fc:	02f50063          	beq	a0,a5,3000111c <pwm_set_compare+0x40>
30001100:	00008067          	ret
30001104:	030047b7          	lui	a5,0x3004
30001108:	00b7aa23          	sw	a1,20(a5) # 3004014 <pixel_buffer-0xffbfec>
3000110c:	00008067          	ret
30001110:	030047b7          	lui	a5,0x3004
30001114:	00b7ac23          	sw	a1,24(a5) # 3004018 <pixel_buffer-0xffbfe8>
30001118:	00008067          	ret
3000111c:	030047b7          	lui	a5,0x3004
30001120:	00b7ae23          	sw	a1,28(a5) # 300401c <pixel_buffer-0xffbfe4>
30001124:	00008067          	ret

30001128 <i2c_get_ack>:
30001128:	03006737          	lui	a4,0x3006
3000112c:	01470713          	addi	a4,a4,20 # 3006014 <pixel_buffer-0xff9fec>
30001130:	00072783          	lw	a5,0(a4)
30001134:	0027f793          	andi	a5,a5,2
30001138:	fe078ce3          	beqz	a5,30001130 <i2c_get_ack+0x8>
3000113c:	030067b7          	lui	a5,0x3006
30001140:	01478793          	addi	a5,a5,20 # 3006014 <pixel_buffer-0xff9fec>
30001144:	0007a703          	lw	a4,0(a5)
30001148:	00277713          	andi	a4,a4,2
3000114c:	fe071ce3          	bnez	a4,30001144 <i2c_get_ack+0x1c>
30001150:	0007a503          	lw	a0,0(a5)
30001154:	00755513          	srli	a0,a0,0x7
30001158:	00157513          	andi	a0,a0,1
3000115c:	00154513          	xori	a0,a0,1
30001160:	00008067          	ret

30001164 <i2c_stop>:
30001164:	030067b7          	lui	a5,0x3006
30001168:	04000713          	li	a4,64
3000116c:	00e7a823          	sw	a4,16(a5) # 3006010 <pixel_buffer-0xff9ff0>
30001170:	01478713          	addi	a4,a5,20
30001174:	00072783          	lw	a5,0(a4)
30001178:	0407f793          	andi	a5,a5,64
3000117c:	fe079ce3          	bnez	a5,30001174 <i2c_stop+0x10>
30001180:	00008067          	ret

30001184 <i2c_start_write>:
30001184:	ff010113          	addi	sp,sp,-16
30001188:	00112623          	sw	ra,12(sp)
3000118c:	030067b7          	lui	a5,0x3006
30001190:	00151513          	slli	a0,a0,0x1
30001194:	00a7a423          	sw	a0,8(a5) # 3006008 <pixel_buffer-0xff9ff8>
30001198:	09000713          	li	a4,144
3000119c:	00e7a823          	sw	a4,16(a5)
300011a0:	f89ff0ef          	jal	30001128 <i2c_get_ack>
300011a4:	00051c63          	bnez	a0,300011bc <i2c_start_write+0x38>
300011a8:	00c12083          	lw	ra,12(sp)
300011ac:	30002537          	lui	a0,0x30002
300011b0:	75450513          	addi	a0,a0,1876 # 30002754 <gray_colors+0x114>
300011b4:	01010113          	addi	sp,sp,16
300011b8:	8adff06f          	j	30000a64 <printf>
300011bc:	00c12083          	lw	ra,12(sp)
300011c0:	01010113          	addi	sp,sp,16
300011c4:	00008067          	ret

300011c8 <i2c_write_byte>:
300011c8:	ff010113          	addi	sp,sp,-16
300011cc:	00112623          	sw	ra,12(sp)
300011d0:	030067b7          	lui	a5,0x3006
300011d4:	00a7a423          	sw	a0,8(a5) # 3006008 <pixel_buffer-0xff9ff8>
300011d8:	01000713          	li	a4,16
300011dc:	00e7a823          	sw	a4,16(a5)
300011e0:	f49ff0ef          	jal	30001128 <i2c_get_ack>
300011e4:	00051c63          	bnez	a0,300011fc <i2c_write_byte+0x34>
300011e8:	00c12083          	lw	ra,12(sp)
300011ec:	30002537          	lui	a0,0x30002
300011f0:	77050513          	addi	a0,a0,1904 # 30002770 <gray_colors+0x130>
300011f4:	01010113          	addi	sp,sp,16
300011f8:	86dff06f          	j	30000a64 <printf>
300011fc:	00c12083          	lw	ra,12(sp)
30001200:	01010113          	addi	sp,sp,16
30001204:	00008067          	ret

30001208 <i2c_init>:
30001208:	030067b7          	lui	a5,0x3006
3000120c:	0007a023          	sw	zero,0(a5) # 3006000 <pixel_buffer-0xffa000>
30001210:	00052683          	lw	a3,0(a0)
30001214:	08000713          	li	a4,128
30001218:	00d7a223          	sw	a3,4(a5)
3000121c:	00e7a023          	sw	a4,0(a5)
30001220:	00008067          	ret

30001224 <i2c_write_nbyte>:
30001224:	fe010113          	addi	sp,sp,-32
30001228:	00812c23          	sw	s0,24(sp)
3000122c:	00912a23          	sw	s1,20(sp)
30001230:	01212823          	sw	s2,16(sp)
30001234:	01312623          	sw	s3,12(sp)
30001238:	01412423          	sw	s4,8(sp)
3000123c:	00058913          	mv	s2,a1
30001240:	00112e23          	sw	ra,28(sp)
30001244:	00060993          	mv	s3,a2
30001248:	00068413          	mv	s0,a3
3000124c:	00070493          	mv	s1,a4
30001250:	f35ff0ef          	jal	30001184 <i2c_start_write>
30001254:	00800793          	li	a5,8
30001258:	0ff97a13          	zext.b	s4,s2
3000125c:	02f99a63          	bne	s3,a5,30001290 <i2c_write_nbyte+0x6c>
30001260:	000a0513          	mv	a0,s4
30001264:	f65ff0ef          	jal	300011c8 <i2c_write_byte>
30001268:	009404b3          	add	s1,s0,s1
3000126c:	02941863          	bne	s0,s1,3000129c <i2c_write_nbyte+0x78>
30001270:	01812403          	lw	s0,24(sp)
30001274:	01c12083          	lw	ra,28(sp)
30001278:	01412483          	lw	s1,20(sp)
3000127c:	01012903          	lw	s2,16(sp)
30001280:	00c12983          	lw	s3,12(sp)
30001284:	00812a03          	lw	s4,8(sp)
30001288:	02010113          	addi	sp,sp,32
3000128c:	ed9ff06f          	j	30001164 <i2c_stop>
30001290:	00895513          	srli	a0,s2,0x8
30001294:	f35ff0ef          	jal	300011c8 <i2c_write_byte>
30001298:	fc9ff06f          	j	30001260 <i2c_write_nbyte+0x3c>
3000129c:	00044503          	lbu	a0,0(s0)
300012a0:	00140413          	addi	s0,s0,1
300012a4:	f25ff0ef          	jal	300011c8 <i2c_write_byte>
300012a8:	fc5ff06f          	j	3000126c <i2c_write_nbyte+0x48>

300012ac <i2c_read_nbyte>:
300012ac:	fe010113          	addi	sp,sp,-32
300012b0:	00812c23          	sw	s0,24(sp)
300012b4:	00912a23          	sw	s1,20(sp)
300012b8:	01212823          	sw	s2,16(sp)
300012bc:	01312623          	sw	s3,12(sp)
300012c0:	01412423          	sw	s4,8(sp)
300012c4:	01512223          	sw	s5,4(sp)
300012c8:	00058913          	mv	s2,a1
300012cc:	00112e23          	sw	ra,28(sp)
300012d0:	01612023          	sw	s6,0(sp)
300012d4:	00050413          	mv	s0,a0
300012d8:	00060a13          	mv	s4,a2
300012dc:	00068993          	mv	s3,a3
300012e0:	00070493          	mv	s1,a4
300012e4:	ea1ff0ef          	jal	30001184 <i2c_start_write>
300012e8:	00800793          	li	a5,8
300012ec:	0ff97a93          	zext.b	s5,s2
300012f0:	08fa1263          	bne	s4,a5,30001374 <i2c_read_nbyte+0xc8>
300012f4:	000a8513          	mv	a0,s5
300012f8:	00141413          	slli	s0,s0,0x1
300012fc:	03006a37          	lui	s4,0x3006
30001300:	03006937          	lui	s2,0x3006
30001304:	ec5ff0ef          	jal	300011c8 <i2c_write_byte>
30001308:	00146413          	ori	s0,s0,1
3000130c:	e59ff0ef          	jal	30001164 <i2c_stop>
30001310:	008a0a13          	addi	s4,s4,8 # 3006008 <pixel_buffer-0xff9ff8>
30001314:	01090913          	addi	s2,s2,16 # 3006010 <pixel_buffer-0xff9ff0>
30001318:	09000a93          	li	s5,144
3000131c:	008a2023          	sw	s0,0(s4)
30001320:	01592023          	sw	s5,0(s2)
30001324:	e05ff0ef          	jal	30001128 <i2c_get_ack>
30001328:	fe050ae3          	beqz	a0,3000131c <i2c_read_nbyte+0x70>
3000132c:	03006937          	lui	s2,0x3006
30001330:	03006a37          	lui	s4,0x3006
30001334:	00000413          	li	s0,0
30001338:	fff48a93          	addi	s5,s1,-1
3000133c:	01090913          	addi	s2,s2,16 # 3006010 <pixel_buffer-0xff9ff0>
30001340:	30002b37          	lui	s6,0x30002
30001344:	00ca0a13          	addi	s4,s4,12 # 300600c <pixel_buffer-0xff9ff4>
30001348:	02941c63          	bne	s0,s1,30001380 <i2c_read_nbyte+0xd4>
3000134c:	01812403          	lw	s0,24(sp)
30001350:	01c12083          	lw	ra,28(sp)
30001354:	01412483          	lw	s1,20(sp)
30001358:	01012903          	lw	s2,16(sp)
3000135c:	00c12983          	lw	s3,12(sp)
30001360:	00812a03          	lw	s4,8(sp)
30001364:	00412a83          	lw	s5,4(sp)
30001368:	00012b03          	lw	s6,0(sp)
3000136c:	02010113          	addi	sp,sp,32
30001370:	df5ff06f          	j	30001164 <i2c_stop>
30001374:	00895513          	srli	a0,s2,0x8
30001378:	e51ff0ef          	jal	300011c8 <i2c_write_byte>
3000137c:	f79ff06f          	j	300012f4 <i2c_read_nbyte+0x48>
30001380:	02000793          	li	a5,32
30001384:	008a9463          	bne	s5,s0,3000138c <i2c_read_nbyte+0xe0>
30001388:	06000793          	li	a5,96
3000138c:	00f92023          	sw	a5,0(s2)
30001390:	d99ff0ef          	jal	30001128 <i2c_get_ack>
30001394:	00051663          	bnez	a0,300013a0 <i2c_read_nbyte+0xf4>
30001398:	788b0513          	addi	a0,s6,1928 # 30002788 <gray_colors+0x148>
3000139c:	ec8ff0ef          	jal	30000a64 <printf>
300013a0:	000a2703          	lw	a4,0(s4)
300013a4:	008987b3          	add	a5,s3,s0
300013a8:	00140413          	addi	s0,s0,1
300013ac:	00e78023          	sb	a4,0(a5)
300013b0:	f99ff06f          	j	30001348 <i2c_read_nbyte+0x9c>

300013b4 <hp_uart_init>:
300013b4:	044aa7b7          	lui	a5,0x44aa
300013b8:	20078793          	addi	a5,a5,512 # 44aa200 <_ebss+0x499d00>
300013bc:	02a7d7b3          	divu	a5,a5,a0
300013c0:	ff010113          	addi	sp,sp,-16
300013c4:	00112623          	sw	ra,12(sp)
300013c8:	01212023          	sw	s2,0(sp)
300013cc:	00812423          	sw	s0,8(sp)
300013d0:	00912223          	sw	s1,4(sp)
300013d4:	03003937          	lui	s2,0x3003
300013d8:	00092023          	sw	zero,0(s2) # 3003000 <pixel_buffer-0xffd000>
300013dc:	00050593          	mv	a1,a0
300013e0:	30002537          	lui	a0,0x30002
300013e4:	7a050513          	addi	a0,a0,1952 # 300027a0 <gray_colors+0x160>
300013e8:	fff78793          	addi	a5,a5,-1
300013ec:	00f92223          	sw	a5,4(s2)
300013f0:	00f00793          	li	a5,15
300013f4:	00f92623          	sw	a5,12(s2)
300013f8:	00c00793          	li	a5,12
300013fc:	00f92623          	sw	a5,12(s2)
30001400:	01f00793          	li	a5,31
30001404:	00f92023          	sw	a5,0(s2)
30001408:	e5cff0ef          	jal	30000a64 <printf>
3000140c:	00092583          	lw	a1,0(s2)
30001410:	30002537          	lui	a0,0x30002
30001414:	7c450513          	addi	a0,a0,1988 # 300027c4 <gray_colors+0x184>
30001418:	e4cff0ef          	jal	30000a64 <printf>
3000141c:	00c92583          	lw	a1,12(s2)
30001420:	30002537          	lui	a0,0x30002
30001424:	7d450513          	addi	a0,a0,2004 # 300027d4 <gray_colors+0x194>
30001428:	e3cff0ef          	jal	30000a64 <printf>
3000142c:	00812403          	lw	s0,8(sp)
30001430:	00492583          	lw	a1,4(s2)
30001434:	00c12083          	lw	ra,12(sp)
30001438:	00412483          	lw	s1,4(sp)
3000143c:	00012903          	lw	s2,0(sp)
30001440:	30002537          	lui	a0,0x30002
30001444:	7e450513          	addi	a0,a0,2020 # 300027e4 <gray_colors+0x1a4>
30001448:	01010113          	addi	sp,sp,16
3000144c:	e18ff06f          	j	30000a64 <printf>

30001450 <hp_uart_send>:
30001450:	03003737          	lui	a4,0x3003
30001454:	01070713          	addi	a4,a4,16 # 3003010 <pixel_buffer-0xffcff0>
30001458:	00072783          	lw	a5,0(a4)
3000145c:	1007f793          	andi	a5,a5,256
30001460:	fe079ce3          	bnez	a5,30001458 <hp_uart_send+0x8>
30001464:	030037b7          	lui	a5,0x3003
30001468:	00a7a423          	sw	a0,8(a5) # 3003008 <pixel_buffer-0xffcff8>
3000146c:	00008067          	ret

30001470 <hp_uart_send_str>:
30001470:	ff010113          	addi	sp,sp,-16
30001474:	00812423          	sw	s0,8(sp)
30001478:	00112623          	sw	ra,12(sp)
3000147c:	00050413          	mv	s0,a0
30001480:	00044503          	lbu	a0,0(s0)
30001484:	00051a63          	bnez	a0,30001498 <hp_uart_send_str+0x28>
30001488:	00c12083          	lw	ra,12(sp)
3000148c:	00812403          	lw	s0,8(sp)
30001490:	01010113          	addi	sp,sp,16
30001494:	00008067          	ret
30001498:	00140413          	addi	s0,s0,1
3000149c:	fb5ff0ef          	jal	30001450 <hp_uart_send>
300014a0:	fe1ff06f          	j	30001480 <hp_uart_send_str+0x10>

300014a4 <hp_uart_recv>:
300014a4:	030036b7          	lui	a3,0x3003
300014a8:	00050713          	mv	a4,a0
300014ac:	01068693          	addi	a3,a3,16 # 3003010 <pixel_buffer-0xffcff0>
300014b0:	0006a783          	lw	a5,0(a3)
300014b4:	0807f793          	andi	a5,a5,128
300014b8:	fe079ce3          	bnez	a5,300014b0 <hp_uart_recv+0xc>
300014bc:	030037b7          	lui	a5,0x3003
300014c0:	0087a783          	lw	a5,8(a5) # 3003008 <pixel_buffer-0xffcff8>
300014c4:	0ff7f513          	zext.b	a0,a5
300014c8:	00a70023          	sb	a0,0(a4)
300014cc:	f85ff06f          	j	30001450 <hp_uart_send>

300014d0 <hp_uart_recv_str>:
300014d0:	ff010113          	addi	sp,sp,-16
300014d4:	00812423          	sw	s0,8(sp)
300014d8:	00912223          	sw	s1,4(sp)
300014dc:	00112623          	sw	ra,12(sp)
300014e0:	00050413          	mv	s0,a0
300014e4:	00a00493          	li	s1,10
300014e8:	00040513          	mv	a0,s0
300014ec:	fb9ff0ef          	jal	300014a4 <hp_uart_recv>
300014f0:	00044783          	lbu	a5,0(s0)
300014f4:	00140413          	addi	s0,s0,1
300014f8:	fe9798e3          	bne	a5,s1,300014e8 <hp_uart_recv_str+0x18>
300014fc:	00c12083          	lw	ra,12(sp)
30001500:	00812403          	lw	s0,8(sp)
30001504:	00412483          	lw	s1,4(sp)
30001508:	01010113          	addi	sp,sp,16
3000150c:	00008067          	ret

30001510 <st7735_wr_data8>:
30001510:	00052503          	lw	a0,0(a0)
30001514:	ff010113          	addi	sp,sp,-16
30001518:	00812423          	sw	s0,8(sp)
3000151c:	00058413          	mv	s0,a1
30001520:	00100593          	li	a1,1
30001524:	00112623          	sw	ra,12(sp)
30001528:	fc8ff0ef          	jal	30000cf0 <gpio_set_level>
3000152c:	00040513          	mv	a0,s0
30001530:	00812403          	lw	s0,8(sp)
30001534:	00c12083          	lw	ra,12(sp)
30001538:	01010113          	addi	sp,sp,16
3000153c:	889ff06f          	j	30000dc4 <qspi_write_8>

30001540 <st7735_wr_data16>:
30001540:	00052503          	lw	a0,0(a0)
30001544:	ff010113          	addi	sp,sp,-16
30001548:	00812423          	sw	s0,8(sp)
3000154c:	00058413          	mv	s0,a1
30001550:	00100593          	li	a1,1
30001554:	00112623          	sw	ra,12(sp)
30001558:	f98ff0ef          	jal	30000cf0 <gpio_set_level>
3000155c:	00040513          	mv	a0,s0
30001560:	00812403          	lw	s0,8(sp)
30001564:	00c12083          	lw	ra,12(sp)
30001568:	01010113          	addi	sp,sp,16
3000156c:	885ff06f          	j	30000df0 <qspi_write_16>

30001570 <st7735_wr_data32>:
30001570:	00052503          	lw	a0,0(a0)
30001574:	ff010113          	addi	sp,sp,-16
30001578:	00812423          	sw	s0,8(sp)
3000157c:	00058413          	mv	s0,a1
30001580:	00100593          	li	a1,1
30001584:	00112623          	sw	ra,12(sp)
30001588:	f68ff0ef          	jal	30000cf0 <gpio_set_level>
3000158c:	00040513          	mv	a0,s0
30001590:	00812403          	lw	s0,8(sp)
30001594:	00c12083          	lw	ra,12(sp)
30001598:	01010113          	addi	sp,sp,16
3000159c:	881ff06f          	j	30000e1c <qspi_write_32>

300015a0 <st7735_wr_data32x2>:
300015a0:	00052503          	lw	a0,0(a0)
300015a4:	ff010113          	addi	sp,sp,-16
300015a8:	00812423          	sw	s0,8(sp)
300015ac:	00058413          	mv	s0,a1
300015b0:	00100593          	li	a1,1
300015b4:	00912223          	sw	s1,4(sp)
300015b8:	00112623          	sw	ra,12(sp)
300015bc:	00060493          	mv	s1,a2
300015c0:	f30ff0ef          	jal	30000cf0 <gpio_set_level>
300015c4:	00040513          	mv	a0,s0
300015c8:	00812403          	lw	s0,8(sp)
300015cc:	00c12083          	lw	ra,12(sp)
300015d0:	00048593          	mv	a1,s1
300015d4:	00412483          	lw	s1,4(sp)
300015d8:	01010113          	addi	sp,sp,16
300015dc:	869ff06f          	j	30000e44 <qspi_write_32x2>

300015e0 <st7735_wr_data32x8>:
300015e0:	fd010113          	addi	sp,sp,-48
300015e4:	01112623          	sw	a7,12(sp)
300015e8:	00052503          	lw	a0,0(a0)
300015ec:	03012883          	lw	a7,48(sp)
300015f0:	02812423          	sw	s0,40(sp)
300015f4:	00058413          	mv	s0,a1
300015f8:	00100593          	li	a1,1
300015fc:	02912223          	sw	s1,36(sp)
30001600:	02112623          	sw	ra,44(sp)
30001604:	00060493          	mv	s1,a2
30001608:	00d12e23          	sw	a3,28(sp)
3000160c:	00e12c23          	sw	a4,24(sp)
30001610:	00f12a23          	sw	a5,20(sp)
30001614:	01012823          	sw	a6,16(sp)
30001618:	01112423          	sw	a7,8(sp)
3000161c:	ed4ff0ef          	jal	30000cf0 <gpio_set_level>
30001620:	00040513          	mv	a0,s0
30001624:	02812403          	lw	s0,40(sp)
30001628:	00812883          	lw	a7,8(sp)
3000162c:	00c12803          	lw	a6,12(sp)
30001630:	01012783          	lw	a5,16(sp)
30001634:	01412703          	lw	a4,20(sp)
30001638:	01812683          	lw	a3,24(sp)
3000163c:	01c12603          	lw	a2,28(sp)
30001640:	02c12083          	lw	ra,44(sp)
30001644:	00048593          	mv	a1,s1
30001648:	02412483          	lw	s1,36(sp)
3000164c:	03010113          	addi	sp,sp,48
30001650:	821ff06f          	j	30000e70 <qspi_write_32x8>

30001654 <st7735_wr_data32x16>:
30001654:	fb010113          	addi	sp,sp,-80
30001658:	01112623          	sw	a7,12(sp)
3000165c:	00052503          	lw	a0,0(a0)
30001660:	05012883          	lw	a7,80(sp)
30001664:	04812423          	sw	s0,72(sp)
30001668:	05212023          	sw	s2,64(sp)
3000166c:	03312e23          	sw	s3,60(sp)
30001670:	03412c23          	sw	s4,56(sp)
30001674:	03512a23          	sw	s5,52(sp)
30001678:	03612823          	sw	s6,48(sp)
3000167c:	03712623          	sw	s7,44(sp)
30001680:	03812423          	sw	s8,40(sp)
30001684:	03912223          	sw	s9,36(sp)
30001688:	05412903          	lw	s2,84(sp)
3000168c:	05812983          	lw	s3,88(sp)
30001690:	05c12a03          	lw	s4,92(sp)
30001694:	06012a83          	lw	s5,96(sp)
30001698:	06412b03          	lw	s6,100(sp)
3000169c:	06812b83          	lw	s7,104(sp)
300016a0:	06c12c03          	lw	s8,108(sp)
300016a4:	07012c83          	lw	s9,112(sp)
300016a8:	00058413          	mv	s0,a1
300016ac:	00100593          	li	a1,1
300016b0:	04912223          	sw	s1,68(sp)
300016b4:	04112623          	sw	ra,76(sp)
300016b8:	00060493          	mv	s1,a2
300016bc:	00d12e23          	sw	a3,28(sp)
300016c0:	00e12c23          	sw	a4,24(sp)
300016c4:	00f12a23          	sw	a5,20(sp)
300016c8:	01012823          	sw	a6,16(sp)
300016cc:	01112423          	sw	a7,8(sp)
300016d0:	e20ff0ef          	jal	30000cf0 <gpio_set_level>
300016d4:	00040513          	mv	a0,s0
300016d8:	04812403          	lw	s0,72(sp)
300016dc:	07912623          	sw	s9,108(sp)
300016e0:	07812423          	sw	s8,104(sp)
300016e4:	07712223          	sw	s7,100(sp)
300016e8:	07612023          	sw	s6,96(sp)
300016ec:	05512e23          	sw	s5,92(sp)
300016f0:	05412c23          	sw	s4,88(sp)
300016f4:	05312a23          	sw	s3,84(sp)
300016f8:	05212823          	sw	s2,80(sp)
300016fc:	00812883          	lw	a7,8(sp)
30001700:	00c12803          	lw	a6,12(sp)
30001704:	01012783          	lw	a5,16(sp)
30001708:	01412703          	lw	a4,20(sp)
3000170c:	01812683          	lw	a3,24(sp)
30001710:	01c12603          	lw	a2,28(sp)
30001714:	04c12083          	lw	ra,76(sp)
30001718:	04012903          	lw	s2,64(sp)
3000171c:	03c12983          	lw	s3,60(sp)
30001720:	03812a03          	lw	s4,56(sp)
30001724:	03412a83          	lw	s5,52(sp)
30001728:	03012b03          	lw	s6,48(sp)
3000172c:	02c12b83          	lw	s7,44(sp)
30001730:	02812c03          	lw	s8,40(sp)
30001734:	02412c83          	lw	s9,36(sp)
30001738:	00048593          	mv	a1,s1
3000173c:	04412483          	lw	s1,68(sp)
30001740:	05010113          	addi	sp,sp,80
30001744:	f70ff06f          	j	30000eb4 <qspi_write_32x16>

30001748 <st7735_wr_data32x32>:
30001748:	f7010113          	addi	sp,sp,-144
3000174c:	03112e23          	sw	a7,60(sp)
30001750:	09012883          	lw	a7,144(sp)
30001754:	08112623          	sw	ra,140(sp)
30001758:	08812423          	sw	s0,136(sp)
3000175c:	08912223          	sw	s1,132(sp)
30001760:	09212023          	sw	s2,128(sp)
30001764:	07312e23          	sw	s3,124(sp)
30001768:	07412c23          	sw	s4,120(sp)
3000176c:	07512a23          	sw	s5,116(sp)
30001770:	07612823          	sw	s6,112(sp)
30001774:	07712623          	sw	s7,108(sp)
30001778:	07812423          	sw	s8,104(sp)
3000177c:	07912223          	sw	s9,100(sp)
30001780:	05b12e23          	sw	s11,92(sp)
30001784:	07a12023          	sw	s10,96(sp)
30001788:	09412403          	lw	s0,148(sp)
3000178c:	09812903          	lw	s2,152(sp)
30001790:	09c12983          	lw	s3,156(sp)
30001794:	0a012a03          	lw	s4,160(sp)
30001798:	0a412a83          	lw	s5,164(sp)
3000179c:	0a812b03          	lw	s6,168(sp)
300017a0:	0ac12b83          	lw	s7,172(sp)
300017a4:	0b012c03          	lw	s8,176(sp)
300017a8:	0b412c83          	lw	s9,180(sp)
300017ac:	00c12223          	sw	a2,4(sp)
300017b0:	04d12623          	sw	a3,76(sp)
300017b4:	04e12423          	sw	a4,72(sp)
300017b8:	05012023          	sw	a6,64(sp)
300017bc:	03112c23          	sw	a7,56(sp)
300017c0:	00b12023          	sw	a1,0(sp)
300017c4:	04f12223          	sw	a5,68(sp)
300017c8:	0b812d03          	lw	s10,184(sp)
300017cc:	0c412783          	lw	a5,196(sp)
300017d0:	0d812303          	lw	t1,216(sp)
300017d4:	0dc12e03          	lw	t3,220(sp)
300017d8:	00f12423          	sw	a5,8(sp)
300017dc:	0c812783          	lw	a5,200(sp)
300017e0:	0e012e83          	lw	t4,224(sp)
300017e4:	0e412f03          	lw	t5,228(sp)
300017e8:	00f12623          	sw	a5,12(sp)
300017ec:	0cc12783          	lw	a5,204(sp)
300017f0:	0e812f83          	lw	t6,232(sp)
300017f4:	0ec12283          	lw	t0,236(sp)
300017f8:	00f12823          	sw	a5,16(sp)
300017fc:	0d012783          	lw	a5,208(sp)
30001800:	0f012383          	lw	t2,240(sp)
30001804:	00052503          	lw	a0,0(a0)
30001808:	00f12a23          	sw	a5,20(sp)
3000180c:	0d412783          	lw	a5,212(sp)
30001810:	00100593          	li	a1,1
30001814:	0bc12d83          	lw	s11,188(sp)
30001818:	0c012483          	lw	s1,192(sp)
3000181c:	00f12c23          	sw	a5,24(sp)
30001820:	02612a23          	sw	t1,52(sp)
30001824:	03c12823          	sw	t3,48(sp)
30001828:	03d12623          	sw	t4,44(sp)
3000182c:	03e12423          	sw	t5,40(sp)
30001830:	03f12223          	sw	t6,36(sp)
30001834:	02512023          	sw	t0,32(sp)
30001838:	00712e23          	sw	t2,28(sp)
3000183c:	cb4ff0ef          	jal	30000cf0 <gpio_set_level>
30001840:	01812783          	lw	a5,24(sp)
30001844:	01c12383          	lw	t2,28(sp)
30001848:	02012283          	lw	t0,32(sp)
3000184c:	0cf12823          	sw	a5,208(sp)
30001850:	01412783          	lw	a5,20(sp)
30001854:	02412f83          	lw	t6,36(sp)
30001858:	02812f03          	lw	t5,40(sp)
3000185c:	0cf12623          	sw	a5,204(sp)
30001860:	01012783          	lw	a5,16(sp)
30001864:	02c12e83          	lw	t4,44(sp)
30001868:	03012e03          	lw	t3,48(sp)
3000186c:	0cf12423          	sw	a5,200(sp)
30001870:	00c12783          	lw	a5,12(sp)
30001874:	03412303          	lw	t1,52(sp)
30001878:	0a912e23          	sw	s1,188(sp)
3000187c:	0cf12223          	sw	a5,196(sp)
30001880:	00812783          	lw	a5,8(sp)
30001884:	0bb12c23          	sw	s11,184(sp)
30001888:	0ba12a23          	sw	s10,180(sp)
3000188c:	0cf12023          	sw	a5,192(sp)
30001890:	0b912823          	sw	s9,176(sp)
30001894:	0b812623          	sw	s8,172(sp)
30001898:	0b712423          	sw	s7,168(sp)
3000189c:	0b612223          	sw	s6,164(sp)
300018a0:	0b512023          	sw	s5,160(sp)
300018a4:	0e712623          	sw	t2,236(sp)
300018a8:	0e512423          	sw	t0,232(sp)
300018ac:	0ff12223          	sw	t6,228(sp)
300018b0:	0fe12023          	sw	t5,224(sp)
300018b4:	0dd12e23          	sw	t4,220(sp)
300018b8:	0dc12c23          	sw	t3,216(sp)
300018bc:	0c612a23          	sw	t1,212(sp)
300018c0:	09412e23          	sw	s4,156(sp)
300018c4:	08812823          	sw	s0,144(sp)
300018c8:	08812403          	lw	s0,136(sp)
300018cc:	09312c23          	sw	s3,152(sp)
300018d0:	09212a23          	sw	s2,148(sp)
300018d4:	03812883          	lw	a7,56(sp)
300018d8:	03c12803          	lw	a6,60(sp)
300018dc:	04012783          	lw	a5,64(sp)
300018e0:	04412703          	lw	a4,68(sp)
300018e4:	04812683          	lw	a3,72(sp)
300018e8:	04c12603          	lw	a2,76(sp)
300018ec:	00412583          	lw	a1,4(sp)
300018f0:	00012503          	lw	a0,0(sp)
300018f4:	08c12083          	lw	ra,140(sp)
300018f8:	08412483          	lw	s1,132(sp)
300018fc:	08012903          	lw	s2,128(sp)
30001900:	07c12983          	lw	s3,124(sp)
30001904:	07812a03          	lw	s4,120(sp)
30001908:	07412a83          	lw	s5,116(sp)
3000190c:	07012b03          	lw	s6,112(sp)
30001910:	06c12b83          	lw	s7,108(sp)
30001914:	06812c03          	lw	s8,104(sp)
30001918:	06412c83          	lw	s9,100(sp)
3000191c:	06012d03          	lw	s10,96(sp)
30001920:	05c12d83          	lw	s11,92(sp)
30001924:	09010113          	addi	sp,sp,144
30001928:	e10ff06f          	j	30000f38 <qspi_write_32x32>

3000192c <st7735_wr_cmd>:
3000192c:	00052503          	lw	a0,0(a0)
30001930:	ff010113          	addi	sp,sp,-16
30001934:	00812423          	sw	s0,8(sp)
30001938:	00058413          	mv	s0,a1
3000193c:	00000593          	li	a1,0
30001940:	00112623          	sw	ra,12(sp)
30001944:	bacff0ef          	jal	30000cf0 <gpio_set_level>
30001948:	00040513          	mv	a0,s0
3000194c:	00812403          	lw	s0,8(sp)
30001950:	00c12083          	lw	ra,12(sp)
30001954:	01010113          	addi	sp,sp,16
30001958:	c6cff06f          	j	30000dc4 <qspi_write_8>

3000195c <st7735_addr_set>:
3000195c:	fe010113          	addi	sp,sp,-32
30001960:	01412423          	sw	s4,8(sp)
30001964:	00058a13          	mv	s4,a1
30001968:	02a00593          	li	a1,42
3000196c:	00112e23          	sw	ra,28(sp)
30001970:	00812c23          	sw	s0,24(sp)
30001974:	00912a23          	sw	s1,20(sp)
30001978:	00050413          	mv	s0,a0
3000197c:	01212823          	sw	s2,16(sp)
30001980:	01312623          	sw	s3,12(sp)
30001984:	00060913          	mv	s2,a2
30001988:	00068993          	mv	s3,a3
3000198c:	00070493          	mv	s1,a4
30001990:	f9dff0ef          	jal	3000192c <st7735_wr_cmd>
30001994:	01044783          	lbu	a5,16(s0)
30001998:	00040513          	mv	a0,s0
3000199c:	00fa05b3          	add	a1,s4,a5
300019a0:	01059593          	slli	a1,a1,0x10
300019a4:	0105d593          	srli	a1,a1,0x10
300019a8:	b99ff0ef          	jal	30001540 <st7735_wr_data16>
300019ac:	01044783          	lbu	a5,16(s0)
300019b0:	00040513          	mv	a0,s0
300019b4:	00f985b3          	add	a1,s3,a5
300019b8:	01059593          	slli	a1,a1,0x10
300019bc:	0105d593          	srli	a1,a1,0x10
300019c0:	b81ff0ef          	jal	30001540 <st7735_wr_data16>
300019c4:	00040513          	mv	a0,s0
300019c8:	02b00593          	li	a1,43
300019cc:	f61ff0ef          	jal	3000192c <st7735_wr_cmd>
300019d0:	01144783          	lbu	a5,17(s0)
300019d4:	00040513          	mv	a0,s0
300019d8:	00f905b3          	add	a1,s2,a5
300019dc:	01059593          	slli	a1,a1,0x10
300019e0:	0105d593          	srli	a1,a1,0x10
300019e4:	b5dff0ef          	jal	30001540 <st7735_wr_data16>
300019e8:	01144783          	lbu	a5,17(s0)
300019ec:	00040513          	mv	a0,s0
300019f0:	00f485b3          	add	a1,s1,a5
300019f4:	01059593          	slli	a1,a1,0x10
300019f8:	0105d593          	srli	a1,a1,0x10
300019fc:	b45ff0ef          	jal	30001540 <st7735_wr_data16>
30001a00:	00040513          	mv	a0,s0
30001a04:	01812403          	lw	s0,24(sp)
30001a08:	01c12083          	lw	ra,28(sp)
30001a0c:	01412483          	lw	s1,20(sp)
30001a10:	01012903          	lw	s2,16(sp)
30001a14:	00c12983          	lw	s3,12(sp)
30001a18:	00812a03          	lw	s4,8(sp)
30001a1c:	02c00593          	li	a1,44
30001a20:	02010113          	addi	sp,sp,32
30001a24:	f09ff06f          	j	3000192c <st7735_wr_cmd>

30001a28 <st7735_fill>:
30001a28:	f7010113          	addi	sp,sp,-144
30001a2c:	07312e23          	sw	s3,124(sp)
30001a30:	07412c23          	sw	s4,120(sp)
30001a34:	00070993          	mv	s3,a4
30001a38:	00068a13          	mv	s4,a3
30001a3c:	fff70713          	addi	a4,a4,-1
30001a40:	fff68693          	addi	a3,a3,-1
30001a44:	01071713          	slli	a4,a4,0x10
30001a48:	01069693          	slli	a3,a3,0x10
30001a4c:	01075713          	srli	a4,a4,0x10
30001a50:	0106d693          	srli	a3,a3,0x10
30001a54:	08812423          	sw	s0,136(sp)
30001a58:	08912223          	sw	s1,132(sp)
30001a5c:	07512a23          	sw	s5,116(sp)
30001a60:	07612823          	sw	s6,112(sp)
30001a64:	08112623          	sw	ra,140(sp)
30001a68:	09212023          	sw	s2,128(sp)
30001a6c:	00050a93          	mv	s5,a0
30001a70:	00058b13          	mv	s6,a1
30001a74:	00060493          	mv	s1,a2
30001a78:	00078413          	mv	s0,a5
30001a7c:	ee1ff0ef          	jal	3000195c <st7735_addr_set>
30001a80:	0d34ea63          	bltu	s1,s3,30001b54 <st7735_fill+0x12c>
30001a84:	08c12083          	lw	ra,140(sp)
30001a88:	08812403          	lw	s0,136(sp)
30001a8c:	08412483          	lw	s1,132(sp)
30001a90:	08012903          	lw	s2,128(sp)
30001a94:	07c12983          	lw	s3,124(sp)
30001a98:	07812a03          	lw	s4,120(sp)
30001a9c:	07412a83          	lw	s5,116(sp)
30001aa0:	07012b03          	lw	s6,112(sp)
30001aa4:	09010113          	addi	sp,sp,144
30001aa8:	00008067          	ret
30001aac:	04090913          	addi	s2,s2,64
30001ab0:	00812c23          	sw	s0,24(sp)
30001ab4:	00812a23          	sw	s0,20(sp)
30001ab8:	00812823          	sw	s0,16(sp)
30001abc:	00812623          	sw	s0,12(sp)
30001ac0:	00812423          	sw	s0,8(sp)
30001ac4:	00812223          	sw	s0,4(sp)
30001ac8:	00812023          	sw	s0,0(sp)
30001acc:	00040893          	mv	a7,s0
30001ad0:	00040813          	mv	a6,s0
30001ad4:	00040793          	mv	a5,s0
30001ad8:	00040713          	mv	a4,s0
30001adc:	00040693          	mv	a3,s0
30001ae0:	00040613          	mv	a2,s0
30001ae4:	00040593          	mv	a1,s0
30001ae8:	000a8513          	mv	a0,s5
30001aec:	01091913          	slli	s2,s2,0x10
30001af0:	06812023          	sw	s0,96(sp)
30001af4:	04812e23          	sw	s0,92(sp)
30001af8:	04812c23          	sw	s0,88(sp)
30001afc:	04812a23          	sw	s0,84(sp)
30001b00:	04812823          	sw	s0,80(sp)
30001b04:	04812623          	sw	s0,76(sp)
30001b08:	04812423          	sw	s0,72(sp)
30001b0c:	04812223          	sw	s0,68(sp)
30001b10:	04812023          	sw	s0,64(sp)
30001b14:	02812e23          	sw	s0,60(sp)
30001b18:	02812c23          	sw	s0,56(sp)
30001b1c:	02812a23          	sw	s0,52(sp)
30001b20:	02812823          	sw	s0,48(sp)
30001b24:	02812623          	sw	s0,44(sp)
30001b28:	02812423          	sw	s0,40(sp)
30001b2c:	02812223          	sw	s0,36(sp)
30001b30:	02812023          	sw	s0,32(sp)
30001b34:	00812e23          	sw	s0,28(sp)
30001b38:	01095913          	srli	s2,s2,0x10
30001b3c:	c0dff0ef          	jal	30001748 <st7735_wr_data32x32>
30001b40:	f74966e3          	bltu	s2,s4,30001aac <st7735_fill+0x84>
30001b44:	00148493          	addi	s1,s1,1
30001b48:	01049493          	slli	s1,s1,0x10
30001b4c:	0104d493          	srli	s1,s1,0x10
30001b50:	f31ff06f          	j	30001a80 <st7735_fill+0x58>
30001b54:	000b0913          	mv	s2,s6
30001b58:	fe9ff06f          	j	30001b40 <st7735_fill+0x118>

30001b5c <st7735_init>:
30001b5c:	00052783          	lw	a5,0(a0)
30001b60:	fe010113          	addi	sp,sp,-32
30001b64:	00912a23          	sw	s1,20(sp)
30001b68:	00100493          	li	s1,1
30001b6c:	00f497b3          	sll	a5,s1,a5
30001b70:	00812c23          	sw	s0,24(sp)
30001b74:	00050413          	mv	s0,a0
30001b78:	00810513          	addi	a0,sp,8
30001b7c:	00112e23          	sw	ra,28(sp)
30001b80:	00f12423          	sw	a5,8(sp)
30001b84:	00912623          	sw	s1,12(sp)
30001b88:	874ff0ef          	jal	30000bfc <gpio_config>
30001b8c:	00042503          	lw	a0,0(s0)
30001b90:	00000593          	li	a1,0
30001b94:	95cff0ef          	jal	30000cf0 <gpio_set_level>
30001b98:	07800513          	li	a0,120
30001b9c:	cd8ff0ef          	jal	30001074 <delay_ms>
30001ba0:	01100593          	li	a1,17
30001ba4:	00040513          	mv	a0,s0
30001ba8:	d85ff0ef          	jal	3000192c <st7735_wr_cmd>
30001bac:	07800513          	li	a0,120
30001bb0:	cc4ff0ef          	jal	30001074 <delay_ms>
30001bb4:	0b100593          	li	a1,177
30001bb8:	00040513          	mv	a0,s0
30001bbc:	d71ff0ef          	jal	3000192c <st7735_wr_cmd>
30001bc0:	00048593          	mv	a1,s1
30001bc4:	00040513          	mv	a0,s0
30001bc8:	949ff0ef          	jal	30001510 <st7735_wr_data8>
30001bcc:	02c00593          	li	a1,44
30001bd0:	00040513          	mv	a0,s0
30001bd4:	93dff0ef          	jal	30001510 <st7735_wr_data8>
30001bd8:	02d00593          	li	a1,45
30001bdc:	00040513          	mv	a0,s0
30001be0:	931ff0ef          	jal	30001510 <st7735_wr_data8>
30001be4:	0b200593          	li	a1,178
30001be8:	00040513          	mv	a0,s0
30001bec:	d41ff0ef          	jal	3000192c <st7735_wr_cmd>
30001bf0:	00048593          	mv	a1,s1
30001bf4:	00040513          	mv	a0,s0
30001bf8:	919ff0ef          	jal	30001510 <st7735_wr_data8>
30001bfc:	02c00593          	li	a1,44
30001c00:	00040513          	mv	a0,s0
30001c04:	90dff0ef          	jal	30001510 <st7735_wr_data8>
30001c08:	02d00593          	li	a1,45
30001c0c:	00040513          	mv	a0,s0
30001c10:	901ff0ef          	jal	30001510 <st7735_wr_data8>
30001c14:	0b300593          	li	a1,179
30001c18:	00040513          	mv	a0,s0
30001c1c:	d11ff0ef          	jal	3000192c <st7735_wr_cmd>
30001c20:	00048593          	mv	a1,s1
30001c24:	00040513          	mv	a0,s0
30001c28:	8e9ff0ef          	jal	30001510 <st7735_wr_data8>
30001c2c:	02c00593          	li	a1,44
30001c30:	00040513          	mv	a0,s0
30001c34:	8ddff0ef          	jal	30001510 <st7735_wr_data8>
30001c38:	02d00593          	li	a1,45
30001c3c:	00040513          	mv	a0,s0
30001c40:	8d1ff0ef          	jal	30001510 <st7735_wr_data8>
30001c44:	00048593          	mv	a1,s1
30001c48:	00040513          	mv	a0,s0
30001c4c:	8c5ff0ef          	jal	30001510 <st7735_wr_data8>
30001c50:	02c00593          	li	a1,44
30001c54:	00040513          	mv	a0,s0
30001c58:	8b9ff0ef          	jal	30001510 <st7735_wr_data8>
30001c5c:	02d00593          	li	a1,45
30001c60:	00040513          	mv	a0,s0
30001c64:	8adff0ef          	jal	30001510 <st7735_wr_data8>
30001c68:	0b400593          	li	a1,180
30001c6c:	00040513          	mv	a0,s0
30001c70:	cbdff0ef          	jal	3000192c <st7735_wr_cmd>
30001c74:	00700593          	li	a1,7
30001c78:	00040513          	mv	a0,s0
30001c7c:	895ff0ef          	jal	30001510 <st7735_wr_data8>
30001c80:	30002537          	lui	a0,0x30002
30001c84:	7f450513          	addi	a0,a0,2036 # 300027f4 <gray_colors+0x1b4>
30001c88:	dddfe0ef          	jal	30000a64 <printf>
30001c8c:	0c000593          	li	a1,192
30001c90:	00040513          	mv	a0,s0
30001c94:	c99ff0ef          	jal	3000192c <st7735_wr_cmd>
30001c98:	0a200593          	li	a1,162
30001c9c:	00040513          	mv	a0,s0
30001ca0:	871ff0ef          	jal	30001510 <st7735_wr_data8>
30001ca4:	00200593          	li	a1,2
30001ca8:	00040513          	mv	a0,s0
30001cac:	865ff0ef          	jal	30001510 <st7735_wr_data8>
30001cb0:	08400593          	li	a1,132
30001cb4:	00040513          	mv	a0,s0
30001cb8:	859ff0ef          	jal	30001510 <st7735_wr_data8>
30001cbc:	0c100593          	li	a1,193
30001cc0:	00040513          	mv	a0,s0
30001cc4:	c69ff0ef          	jal	3000192c <st7735_wr_cmd>
30001cc8:	0c500593          	li	a1,197
30001ccc:	00040513          	mv	a0,s0
30001cd0:	841ff0ef          	jal	30001510 <st7735_wr_data8>
30001cd4:	0c200593          	li	a1,194
30001cd8:	00040513          	mv	a0,s0
30001cdc:	c51ff0ef          	jal	3000192c <st7735_wr_cmd>
30001ce0:	00a00593          	li	a1,10
30001ce4:	00040513          	mv	a0,s0
30001ce8:	829ff0ef          	jal	30001510 <st7735_wr_data8>
30001cec:	00000593          	li	a1,0
30001cf0:	00040513          	mv	a0,s0
30001cf4:	81dff0ef          	jal	30001510 <st7735_wr_data8>
30001cf8:	0c300593          	li	a1,195
30001cfc:	00040513          	mv	a0,s0
30001d00:	c2dff0ef          	jal	3000192c <st7735_wr_cmd>
30001d04:	08a00593          	li	a1,138
30001d08:	00040513          	mv	a0,s0
30001d0c:	805ff0ef          	jal	30001510 <st7735_wr_data8>
30001d10:	02a00593          	li	a1,42
30001d14:	00040513          	mv	a0,s0
30001d18:	ff8ff0ef          	jal	30001510 <st7735_wr_data8>
30001d1c:	0c400593          	li	a1,196
30001d20:	00040513          	mv	a0,s0
30001d24:	c09ff0ef          	jal	3000192c <st7735_wr_cmd>
30001d28:	08a00593          	li	a1,138
30001d2c:	00040513          	mv	a0,s0
30001d30:	fe0ff0ef          	jal	30001510 <st7735_wr_data8>
30001d34:	0ee00593          	li	a1,238
30001d38:	00040513          	mv	a0,s0
30001d3c:	fd4ff0ef          	jal	30001510 <st7735_wr_data8>
30001d40:	0c500593          	li	a1,197
30001d44:	00040513          	mv	a0,s0
30001d48:	be5ff0ef          	jal	3000192c <st7735_wr_cmd>
30001d4c:	00e00593          	li	a1,14
30001d50:	00040513          	mv	a0,s0
30001d54:	fbcff0ef          	jal	30001510 <st7735_wr_data8>
30001d58:	03600593          	li	a1,54
30001d5c:	00040513          	mv	a0,s0
30001d60:	bcdff0ef          	jal	3000192c <st7735_wr_cmd>
30001d64:	30003537          	lui	a0,0x30003
30001d68:	80c50513          	addi	a0,a0,-2036 # 3000280c <gray_colors+0x1cc>
30001d6c:	cf9fe0ef          	jal	30000a64 <printf>
30001d70:	00c42783          	lw	a5,12(s0)
30001d74:	0a800593          	li	a1,168
30001d78:	00978e63          	beq	a5,s1,30001d94 <st7735_init+0x238>
30001d7c:	00200713          	li	a4,2
30001d80:	00800593          	li	a1,8
30001d84:	00e78863          	beq	a5,a4,30001d94 <st7735_init+0x238>
30001d88:	0c800593          	li	a1,200
30001d8c:	00078463          	beqz	a5,30001d94 <st7735_init+0x238>
30001d90:	06800593          	li	a1,104
30001d94:	00040513          	mv	a0,s0
30001d98:	f78ff0ef          	jal	30001510 <st7735_wr_data8>
30001d9c:	00040513          	mv	a0,s0
30001da0:	0e000593          	li	a1,224
30001da4:	b89ff0ef          	jal	3000192c <st7735_wr_cmd>
30001da8:	00040513          	mv	a0,s0
30001dac:	00f00593          	li	a1,15
30001db0:	f60ff0ef          	jal	30001510 <st7735_wr_data8>
30001db4:	00040513          	mv	a0,s0
30001db8:	01a00593          	li	a1,26
30001dbc:	f54ff0ef          	jal	30001510 <st7735_wr_data8>
30001dc0:	00040513          	mv	a0,s0
30001dc4:	00f00593          	li	a1,15
30001dc8:	f48ff0ef          	jal	30001510 <st7735_wr_data8>
30001dcc:	00040513          	mv	a0,s0
30001dd0:	01800593          	li	a1,24
30001dd4:	f3cff0ef          	jal	30001510 <st7735_wr_data8>
30001dd8:	00040513          	mv	a0,s0
30001ddc:	02f00593          	li	a1,47
30001de0:	f30ff0ef          	jal	30001510 <st7735_wr_data8>
30001de4:	00040513          	mv	a0,s0
30001de8:	02800593          	li	a1,40
30001dec:	f24ff0ef          	jal	30001510 <st7735_wr_data8>
30001df0:	00040513          	mv	a0,s0
30001df4:	02000593          	li	a1,32
30001df8:	f18ff0ef          	jal	30001510 <st7735_wr_data8>
30001dfc:	00040513          	mv	a0,s0
30001e00:	02200593          	li	a1,34
30001e04:	f0cff0ef          	jal	30001510 <st7735_wr_data8>
30001e08:	00040513          	mv	a0,s0
30001e0c:	01f00593          	li	a1,31
30001e10:	f00ff0ef          	jal	30001510 <st7735_wr_data8>
30001e14:	00040513          	mv	a0,s0
30001e18:	01b00593          	li	a1,27
30001e1c:	ef4ff0ef          	jal	30001510 <st7735_wr_data8>
30001e20:	00040513          	mv	a0,s0
30001e24:	02300593          	li	a1,35
30001e28:	ee8ff0ef          	jal	30001510 <st7735_wr_data8>
30001e2c:	00040513          	mv	a0,s0
30001e30:	03700593          	li	a1,55
30001e34:	edcff0ef          	jal	30001510 <st7735_wr_data8>
30001e38:	00040513          	mv	a0,s0
30001e3c:	00000593          	li	a1,0
30001e40:	ed0ff0ef          	jal	30001510 <st7735_wr_data8>
30001e44:	00040513          	mv	a0,s0
30001e48:	00700593          	li	a1,7
30001e4c:	ec4ff0ef          	jal	30001510 <st7735_wr_data8>
30001e50:	00040513          	mv	a0,s0
30001e54:	00200593          	li	a1,2
30001e58:	eb8ff0ef          	jal	30001510 <st7735_wr_data8>
30001e5c:	00040513          	mv	a0,s0
30001e60:	01000593          	li	a1,16
30001e64:	eacff0ef          	jal	30001510 <st7735_wr_data8>
30001e68:	00040513          	mv	a0,s0
30001e6c:	0e100593          	li	a1,225
30001e70:	abdff0ef          	jal	3000192c <st7735_wr_cmd>
30001e74:	00040513          	mv	a0,s0
30001e78:	00f00593          	li	a1,15
30001e7c:	e94ff0ef          	jal	30001510 <st7735_wr_data8>
30001e80:	00040513          	mv	a0,s0
30001e84:	01b00593          	li	a1,27
30001e88:	e88ff0ef          	jal	30001510 <st7735_wr_data8>
30001e8c:	00040513          	mv	a0,s0
30001e90:	00f00593          	li	a1,15
30001e94:	e7cff0ef          	jal	30001510 <st7735_wr_data8>
30001e98:	00040513          	mv	a0,s0
30001e9c:	01700593          	li	a1,23
30001ea0:	e70ff0ef          	jal	30001510 <st7735_wr_data8>
30001ea4:	00040513          	mv	a0,s0
30001ea8:	03300593          	li	a1,51
30001eac:	e64ff0ef          	jal	30001510 <st7735_wr_data8>
30001eb0:	00040513          	mv	a0,s0
30001eb4:	02c00593          	li	a1,44
30001eb8:	e58ff0ef          	jal	30001510 <st7735_wr_data8>
30001ebc:	00040513          	mv	a0,s0
30001ec0:	02900593          	li	a1,41
30001ec4:	e4cff0ef          	jal	30001510 <st7735_wr_data8>
30001ec8:	00040513          	mv	a0,s0
30001ecc:	02e00593          	li	a1,46
30001ed0:	e40ff0ef          	jal	30001510 <st7735_wr_data8>
30001ed4:	00040513          	mv	a0,s0
30001ed8:	03000593          	li	a1,48
30001edc:	e34ff0ef          	jal	30001510 <st7735_wr_data8>
30001ee0:	00040513          	mv	a0,s0
30001ee4:	03000593          	li	a1,48
30001ee8:	e28ff0ef          	jal	30001510 <st7735_wr_data8>
30001eec:	00040513          	mv	a0,s0
30001ef0:	03900593          	li	a1,57
30001ef4:	e1cff0ef          	jal	30001510 <st7735_wr_data8>
30001ef8:	00040513          	mv	a0,s0
30001efc:	03f00593          	li	a1,63
30001f00:	e10ff0ef          	jal	30001510 <st7735_wr_data8>
30001f04:	00040513          	mv	a0,s0
30001f08:	00000593          	li	a1,0
30001f0c:	e04ff0ef          	jal	30001510 <st7735_wr_data8>
30001f10:	00040513          	mv	a0,s0
30001f14:	00700593          	li	a1,7
30001f18:	df8ff0ef          	jal	30001510 <st7735_wr_data8>
30001f1c:	00040513          	mv	a0,s0
30001f20:	00300593          	li	a1,3
30001f24:	decff0ef          	jal	30001510 <st7735_wr_data8>
30001f28:	01000593          	li	a1,16
30001f2c:	00040513          	mv	a0,s0
30001f30:	de0ff0ef          	jal	30001510 <st7735_wr_data8>
30001f34:	30003537          	lui	a0,0x30003
30001f38:	82850513          	addi	a0,a0,-2008 # 30002828 <gray_colors+0x1e8>
30001f3c:	b29fe0ef          	jal	30000a64 <printf>
30001f40:	00040513          	mv	a0,s0
30001f44:	0f000593          	li	a1,240
30001f48:	9e5ff0ef          	jal	3000192c <st7735_wr_cmd>
30001f4c:	00040513          	mv	a0,s0
30001f50:	00100593          	li	a1,1
30001f54:	dbcff0ef          	jal	30001510 <st7735_wr_data8>
30001f58:	00040513          	mv	a0,s0
30001f5c:	0f600593          	li	a1,246
30001f60:	9cdff0ef          	jal	3000192c <st7735_wr_cmd>
30001f64:	00040513          	mv	a0,s0
30001f68:	00000593          	li	a1,0
30001f6c:	da4ff0ef          	jal	30001510 <st7735_wr_data8>
30001f70:	00040513          	mv	a0,s0
30001f74:	03a00593          	li	a1,58
30001f78:	9b5ff0ef          	jal	3000192c <st7735_wr_cmd>
30001f7c:	00040513          	mv	a0,s0
30001f80:	00500593          	li	a1,5
30001f84:	d8cff0ef          	jal	30001510 <st7735_wr_data8>
30001f88:	00040513          	mv	a0,s0
30001f8c:	02900593          	li	a1,41
30001f90:	99dff0ef          	jal	3000192c <st7735_wr_cmd>
30001f94:	08000713          	li	a4,128
30001f98:	00040513          	mv	a0,s0
30001f9c:	fff00793          	li	a5,-1
30001fa0:	00070693          	mv	a3,a4
30001fa4:	00000613          	li	a2,0
30001fa8:	00000593          	li	a1,0
30001fac:	a7dff0ef          	jal	30001a28 <st7735_fill>
30001fb0:	30003537          	lui	a0,0x30003
30001fb4:	84450513          	addi	a0,a0,-1980 # 30002844 <gray_colors+0x204>
30001fb8:	aadfe0ef          	jal	30000a64 <printf>
30001fbc:	01c12083          	lw	ra,28(sp)
30001fc0:	01812403          	lw	s0,24(sp)
30001fc4:	01412483          	lw	s1,20(sp)
30001fc8:	02010113          	addi	sp,sp,32
30001fcc:	00008067          	ret

30001fd0 <st7735_fill_img>:
30001fd0:	fff70713          	addi	a4,a4,-1
30001fd4:	fff68693          	addi	a3,a3,-1
30001fd8:	00e60733          	add	a4,a2,a4
30001fdc:	00d586b3          	add	a3,a1,a3
30001fe0:	f8010113          	addi	sp,sp,-128
30001fe4:	01071713          	slli	a4,a4,0x10
30001fe8:	01069693          	slli	a3,a3,0x10
30001fec:	06812c23          	sw	s0,120(sp)
30001ff0:	06912a23          	sw	s1,116(sp)
30001ff4:	00078413          	mv	s0,a5
30001ff8:	01075713          	srli	a4,a4,0x10
30001ffc:	0106d693          	srli	a3,a3,0x10
30002000:	000084b7          	lui	s1,0x8
30002004:	07212823          	sw	s2,112(sp)
30002008:	06112e23          	sw	ra,124(sp)
3000200c:	00050913          	mv	s2,a0
30002010:	009404b3          	add	s1,s0,s1
30002014:	949ff0ef          	jal	3000195c <st7735_addr_set>
30002018:	07c42783          	lw	a5,124(s0)
3000201c:	00090513          	mv	a0,s2
30002020:	08040413          	addi	s0,s0,128
30002024:	06f12023          	sw	a5,96(sp)
30002028:	ff842783          	lw	a5,-8(s0)
3000202c:	04f12e23          	sw	a5,92(sp)
30002030:	ff442783          	lw	a5,-12(s0)
30002034:	04f12c23          	sw	a5,88(sp)
30002038:	ff042783          	lw	a5,-16(s0)
3000203c:	04f12a23          	sw	a5,84(sp)
30002040:	fec42783          	lw	a5,-20(s0)
30002044:	04f12823          	sw	a5,80(sp)
30002048:	fe842783          	lw	a5,-24(s0)
3000204c:	04f12623          	sw	a5,76(sp)
30002050:	fe442783          	lw	a5,-28(s0)
30002054:	04f12423          	sw	a5,72(sp)
30002058:	fe042783          	lw	a5,-32(s0)
3000205c:	04f12223          	sw	a5,68(sp)
30002060:	fdc42783          	lw	a5,-36(s0)
30002064:	04f12023          	sw	a5,64(sp)
30002068:	fd842783          	lw	a5,-40(s0)
3000206c:	02f12e23          	sw	a5,60(sp)
30002070:	fd442783          	lw	a5,-44(s0)
30002074:	02f12c23          	sw	a5,56(sp)
30002078:	fd042783          	lw	a5,-48(s0)
3000207c:	02f12a23          	sw	a5,52(sp)
30002080:	fcc42783          	lw	a5,-52(s0)
30002084:	02f12823          	sw	a5,48(sp)
30002088:	fc842783          	lw	a5,-56(s0)
3000208c:	02f12623          	sw	a5,44(sp)
30002090:	fc442783          	lw	a5,-60(s0)
30002094:	02f12423          	sw	a5,40(sp)
30002098:	fc042783          	lw	a5,-64(s0)
3000209c:	02f12223          	sw	a5,36(sp)
300020a0:	fbc42783          	lw	a5,-68(s0)
300020a4:	02f12023          	sw	a5,32(sp)
300020a8:	fb842783          	lw	a5,-72(s0)
300020ac:	00f12e23          	sw	a5,28(sp)
300020b0:	fb442783          	lw	a5,-76(s0)
300020b4:	00f12c23          	sw	a5,24(sp)
300020b8:	fb042783          	lw	a5,-80(s0)
300020bc:	00f12a23          	sw	a5,20(sp)
300020c0:	fac42783          	lw	a5,-84(s0)
300020c4:	00f12823          	sw	a5,16(sp)
300020c8:	fa842783          	lw	a5,-88(s0)
300020cc:	00f12623          	sw	a5,12(sp)
300020d0:	fa442783          	lw	a5,-92(s0)
300020d4:	00f12423          	sw	a5,8(sp)
300020d8:	fa042783          	lw	a5,-96(s0)
300020dc:	00f12223          	sw	a5,4(sp)
300020e0:	f9c42783          	lw	a5,-100(s0)
300020e4:	00f12023          	sw	a5,0(sp)
300020e8:	f9842883          	lw	a7,-104(s0)
300020ec:	f9442803          	lw	a6,-108(s0)
300020f0:	f9042783          	lw	a5,-112(s0)
300020f4:	f8c42703          	lw	a4,-116(s0)
300020f8:	f8842683          	lw	a3,-120(s0)
300020fc:	f8442603          	lw	a2,-124(s0)
30002100:	f8042583          	lw	a1,-128(s0)
30002104:	e44ff0ef          	jal	30001748 <st7735_wr_data32x32>
30002108:	f08498e3          	bne	s1,s0,30002018 <st7735_fill_img+0x48>
3000210c:	07c12083          	lw	ra,124(sp)
30002110:	07812403          	lw	s0,120(sp)
30002114:	07412483          	lw	s1,116(sp)
30002118:	07012903          	lw	s2,112(sp)
3000211c:	08010113          	addi	sp,sp,128
30002120:	00008067          	ret

30002124 <sensirion_crc8.constprop.0>:
30002124:	00054783          	lbu	a5,0(a0)
30002128:	00800693          	li	a3,8
3000212c:	fff7c793          	not	a5,a5
30002130:	0ff7f793          	zext.b	a5,a5
30002134:	01879713          	slli	a4,a5,0x18
30002138:	41875713          	srai	a4,a4,0x18
3000213c:	00075a63          	bgez	a4,30002150 <sensirion_crc8.constprop.0+0x2c>
30002140:	00171713          	slli	a4,a4,0x1
30002144:	03174713          	xori	a4,a4,49
30002148:	0ff77793          	zext.b	a5,a4
3000214c:	00c0006f          	j	30002158 <sensirion_crc8.constprop.0+0x34>
30002150:	00179793          	slli	a5,a5,0x1
30002154:	0ff7f793          	zext.b	a5,a5
30002158:	fff68693          	addi	a3,a3,-1
3000215c:	0ff6f693          	zext.b	a3,a3
30002160:	fc069ae3          	bnez	a3,30002134 <sensirion_crc8.constprop.0+0x10>
30002164:	00154703          	lbu	a4,1(a0)
30002168:	00e7c533          	xor	a0,a5,a4
3000216c:	00800713          	li	a4,8
30002170:	01851793          	slli	a5,a0,0x18
30002174:	4187d793          	srai	a5,a5,0x18
30002178:	0007da63          	bgez	a5,3000218c <sensirion_crc8.constprop.0+0x68>
3000217c:	00179793          	slli	a5,a5,0x1
30002180:	0317c793          	xori	a5,a5,49
30002184:	0ff7f513          	zext.b	a0,a5
30002188:	00c0006f          	j	30002194 <sensirion_crc8.constprop.0+0x70>
3000218c:	00151513          	slli	a0,a0,0x1
30002190:	0ff57513          	zext.b	a0,a0
30002194:	fff70713          	addi	a4,a4,-1
30002198:	0ff77713          	zext.b	a4,a4
3000219c:	fc071ae3          	bnez	a4,30002170 <sensirion_crc8.constprop.0+0x4c>
300021a0:	00008067          	ret

300021a4 <sgp30_read_serial_id>:
300021a4:	02051463          	bnez	a0,300021cc <sgp30_read_serial_id+0x28>
300021a8:	00000513          	li	a0,0
300021ac:	00008067          	ret
300021b0:	00000513          	li	a0,0
300021b4:	01c12083          	lw	ra,28(sp)
300021b8:	01812403          	lw	s0,24(sp)
300021bc:	01412483          	lw	s1,20(sp)
300021c0:	01012903          	lw	s2,16(sp)
300021c4:	02010113          	addi	sp,sp,32
300021c8:	00008067          	ret
300021cc:	fe010113          	addi	sp,sp,-32
300021d0:	000035b7          	lui	a1,0x3
300021d4:	00912a23          	sw	s1,20(sp)
300021d8:	00900713          	li	a4,9
300021dc:	00050493          	mv	s1,a0
300021e0:	00410693          	addi	a3,sp,4
300021e4:	01000613          	li	a2,16
300021e8:	68258593          	addi	a1,a1,1666 # 3682 <pixel_buffer-0x3ffc97e>
300021ec:	05800513          	li	a0,88
300021f0:	00812c23          	sw	s0,24(sp)
300021f4:	01212823          	sw	s2,16(sp)
300021f8:	00112e23          	sw	ra,28(sp)
300021fc:	00012223          	sw	zero,4(sp)
30002200:	00012423          	sw	zero,8(sp)
30002204:	00010623          	sb	zero,12(sp)
30002208:	00410413          	addi	s0,sp,4
3000220c:	8a0ff0ef          	jal	300012ac <i2c_read_nbyte>
30002210:	00d10913          	addi	s2,sp,13
30002214:	00040513          	mv	a0,s0
30002218:	f0dff0ef          	jal	30002124 <sensirion_crc8.constprop.0>
3000221c:	00244783          	lbu	a5,2(s0)
30002220:	f8a798e3          	bne	a5,a0,300021b0 <sgp30_read_serial_id+0xc>
30002224:	00340413          	addi	s0,s0,3
30002228:	fe8916e3          	bne	s2,s0,30002214 <sgp30_read_serial_id+0x70>
3000222c:	00414783          	lbu	a5,4(sp)
30002230:	00714683          	lbu	a3,7(sp)
30002234:	00514603          	lbu	a2,5(sp)
30002238:	00879713          	slli	a4,a5,0x8
3000223c:	00b14783          	lbu	a5,11(sp)
30002240:	01869693          	slli	a3,a3,0x18
30002244:	00100513          	li	a0,1
30002248:	00d7e7b3          	or	a5,a5,a3
3000224c:	00814683          	lbu	a3,8(sp)
30002250:	01069693          	slli	a3,a3,0x10
30002254:	00d7e7b3          	or	a5,a5,a3
30002258:	00a14683          	lbu	a3,10(sp)
3000225c:	00869693          	slli	a3,a3,0x8
30002260:	00d7e7b3          	or	a5,a5,a3
30002264:	00f4a023          	sw	a5,0(s1) # 8000 <pixel_buffer-0x3ff8000>
30002268:	00c767b3          	or	a5,a4,a2
3000226c:	00f4a223          	sw	a5,4(s1)
30002270:	f45ff06f          	j	300021b4 <sgp30_read_serial_id+0x10>

30002274 <sgp30_read_feature_set>:
30002274:	02051063          	bnez	a0,30002294 <sgp30_read_feature_set+0x20>
30002278:	00000513          	li	a0,0
3000227c:	00008067          	ret
30002280:	00000513          	li	a0,0
30002284:	01c12083          	lw	ra,28(sp)
30002288:	01812403          	lw	s0,24(sp)
3000228c:	02010113          	addi	sp,sp,32
30002290:	00008067          	ret
30002294:	fe010113          	addi	sp,sp,-32
30002298:	000025b7          	lui	a1,0x2
3000229c:	00812c23          	sw	s0,24(sp)
300022a0:	00300713          	li	a4,3
300022a4:	00c10693          	addi	a3,sp,12
300022a8:	01000613          	li	a2,16
300022ac:	02f58593          	addi	a1,a1,47 # 202f <pixel_buffer-0x3ffdfd1>
300022b0:	00050413          	mv	s0,a0
300022b4:	05800513          	li	a0,88
300022b8:	00112e23          	sw	ra,28(sp)
300022bc:	00011623          	sh	zero,12(sp)
300022c0:	00010723          	sb	zero,14(sp)
300022c4:	fe9fe0ef          	jal	300012ac <i2c_read_nbyte>
300022c8:	00c10513          	addi	a0,sp,12
300022cc:	e59ff0ef          	jal	30002124 <sensirion_crc8.constprop.0>
300022d0:	00e14783          	lbu	a5,14(sp)
300022d4:	faa796e3          	bne	a5,a0,30002280 <sgp30_read_feature_set+0xc>
300022d8:	00c15783          	lhu	a5,12(sp)
300022dc:	00100513          	li	a0,1
300022e0:	0087d713          	srli	a4,a5,0x8
300022e4:	00879793          	slli	a5,a5,0x8
300022e8:	00f767b3          	or	a5,a4,a5
300022ec:	00f41023          	sh	a5,0(s0)
300022f0:	f95ff06f          	j	30002284 <sgp30_read_feature_set+0x10>

300022f4 <sgp30_init_air_quality>:
300022f4:	000025b7          	lui	a1,0x2
300022f8:	ff010113          	addi	sp,sp,-16
300022fc:	05800513          	li	a0,88
30002300:	00000713          	li	a4,0
30002304:	00000693          	li	a3,0
30002308:	01000613          	li	a2,16
3000230c:	00358593          	addi	a1,a1,3 # 2003 <pixel_buffer-0x3ffdffd>
30002310:	00112623          	sw	ra,12(sp)
30002314:	f11fe0ef          	jal	30001224 <i2c_write_nbyte>
30002318:	00c12083          	lw	ra,12(sp)
3000231c:	00100513          	li	a0,1
30002320:	01010113          	addi	sp,sp,16
30002324:	00008067          	ret

30002328 <sgp30_measure_air_quality>:
30002328:	02051063          	bnez	a0,30002348 <sgp30_measure_air_quality+0x20>
3000232c:	00000513          	li	a0,0
30002330:	00008067          	ret
30002334:	00000513          	li	a0,0
30002338:	01c12083          	lw	ra,28(sp)
3000233c:	01812403          	lw	s0,24(sp)
30002340:	02010113          	addi	sp,sp,32
30002344:	00008067          	ret
30002348:	fe010113          	addi	sp,sp,-32
3000234c:	00812c23          	sw	s0,24(sp)
30002350:	00050413          	mv	s0,a0
30002354:	00c00513          	li	a0,12
30002358:	00112e23          	sw	ra,28(sp)
3000235c:	00012423          	sw	zero,8(sp)
30002360:	00011623          	sh	zero,12(sp)
30002364:	d11fe0ef          	jal	30001074 <delay_ms>
30002368:	000025b7          	lui	a1,0x2
3000236c:	00600713          	li	a4,6
30002370:	00810693          	addi	a3,sp,8
30002374:	01000613          	li	a2,16
30002378:	00858593          	addi	a1,a1,8 # 2008 <pixel_buffer-0x3ffdff8>
3000237c:	05800513          	li	a0,88
30002380:	f2dfe0ef          	jal	300012ac <i2c_read_nbyte>
30002384:	00810513          	addi	a0,sp,8
30002388:	d9dff0ef          	jal	30002124 <sensirion_crc8.constprop.0>
3000238c:	00a14783          	lbu	a5,10(sp)
30002390:	faa792e3          	bne	a5,a0,30002334 <sgp30_measure_air_quality+0xc>
30002394:	00b10513          	addi	a0,sp,11
30002398:	d8dff0ef          	jal	30002124 <sensirion_crc8.constprop.0>
3000239c:	00d14783          	lbu	a5,13(sp)
300023a0:	f8a79ae3          	bne	a5,a0,30002334 <sgp30_measure_air_quality+0xc>
300023a4:	00815783          	lhu	a5,8(sp)
300023a8:	00100513          	li	a0,1
300023ac:	0087d713          	srli	a4,a5,0x8
300023b0:	00879793          	slli	a5,a5,0x8
300023b4:	00f767b3          	or	a5,a4,a5
300023b8:	00f41023          	sh	a5,0(s0)
300023bc:	00c14783          	lbu	a5,12(sp)
300023c0:	00b14703          	lbu	a4,11(sp)
300023c4:	00879793          	slli	a5,a5,0x8
300023c8:	00e7e733          	or	a4,a5,a4
300023cc:	00871713          	slli	a4,a4,0x8
300023d0:	0087d793          	srli	a5,a5,0x8
300023d4:	00e7e7b3          	or	a5,a5,a4
300023d8:	00f41123          	sh	a5,2(s0)
300023dc:	f5dff06f          	j	30002338 <sgp30_measure_air_quality+0x10>

300023e0 <sgp30_get_baseline>:
300023e0:	02051063          	bnez	a0,30002400 <sgp30_get_baseline+0x20>
300023e4:	00000513          	li	a0,0
300023e8:	00008067          	ret
300023ec:	00000513          	li	a0,0
300023f0:	01c12083          	lw	ra,28(sp)
300023f4:	01812403          	lw	s0,24(sp)
300023f8:	02010113          	addi	sp,sp,32
300023fc:	00008067          	ret
30002400:	fe010113          	addi	sp,sp,-32
30002404:	00812c23          	sw	s0,24(sp)
30002408:	00050413          	mv	s0,a0
3000240c:	00a00513          	li	a0,10
30002410:	00112e23          	sw	ra,28(sp)
30002414:	00012423          	sw	zero,8(sp)
30002418:	00011623          	sh	zero,12(sp)
3000241c:	c59fe0ef          	jal	30001074 <delay_ms>
30002420:	000025b7          	lui	a1,0x2
30002424:	00600713          	li	a4,6
30002428:	00810693          	addi	a3,sp,8
3000242c:	01000613          	li	a2,16
30002430:	01558593          	addi	a1,a1,21 # 2015 <pixel_buffer-0x3ffdfeb>
30002434:	05800513          	li	a0,88
30002438:	e75fe0ef          	jal	300012ac <i2c_read_nbyte>
3000243c:	00810513          	addi	a0,sp,8
30002440:	ce5ff0ef          	jal	30002124 <sensirion_crc8.constprop.0>
30002444:	00a14783          	lbu	a5,10(sp)
30002448:	faa792e3          	bne	a5,a0,300023ec <sgp30_get_baseline+0xc>
3000244c:	00b10513          	addi	a0,sp,11
30002450:	cd5ff0ef          	jal	30002124 <sensirion_crc8.constprop.0>
30002454:	00d14783          	lbu	a5,13(sp)
30002458:	f8a79ae3          	bne	a5,a0,300023ec <sgp30_get_baseline+0xc>
3000245c:	00815783          	lhu	a5,8(sp)
30002460:	00100513          	li	a0,1
30002464:	0087d713          	srli	a4,a5,0x8
30002468:	00879793          	slli	a5,a5,0x8
3000246c:	00f767b3          	or	a5,a4,a5
30002470:	00f41023          	sh	a5,0(s0)
30002474:	00c14783          	lbu	a5,12(sp)
30002478:	00b14703          	lbu	a4,11(sp)
3000247c:	00879793          	slli	a5,a5,0x8
30002480:	00e7e733          	or	a4,a5,a4
30002484:	00871713          	slli	a4,a4,0x8
30002488:	0087d793          	srli	a5,a5,0x8
3000248c:	00e7e7b3          	or	a5,a5,a4
30002490:	00f41123          	sh	a5,2(s0)
30002494:	f5dff06f          	j	300023f0 <sgp30_get_baseline+0x10>

30002498 <sgp30_set_baseline>:
30002498:	08050063          	beqz	a0,30002518 <sgp30_set_baseline+0x80>
3000249c:	00255783          	lhu	a5,2(a0)
300024a0:	fe010113          	addi	sp,sp,-32
300024a4:	00812c23          	sw	s0,24(sp)
300024a8:	0087d713          	srli	a4,a5,0x8
300024ac:	00879793          	slli	a5,a5,0x8
300024b0:	00f767b3          	or	a5,a4,a5
300024b4:	00050413          	mv	s0,a0
300024b8:	00810513          	addi	a0,sp,8
300024bc:	00112e23          	sw	ra,28(sp)
300024c0:	00f11423          	sh	a5,8(sp)
300024c4:	c61ff0ef          	jal	30002124 <sensirion_crc8.constprop.0>
300024c8:	00045783          	lhu	a5,0(s0)
300024cc:	00a10523          	sb	a0,10(sp)
300024d0:	00b10513          	addi	a0,sp,11
300024d4:	0087d713          	srli	a4,a5,0x8
300024d8:	00e105a3          	sb	a4,11(sp)
300024dc:	00f10623          	sb	a5,12(sp)
300024e0:	c45ff0ef          	jal	30002124 <sensirion_crc8.constprop.0>
300024e4:	000025b7          	lui	a1,0x2
300024e8:	00a106a3          	sb	a0,13(sp)
300024ec:	00810693          	addi	a3,sp,8
300024f0:	05800513          	li	a0,88
300024f4:	00600713          	li	a4,6
300024f8:	01000613          	li	a2,16
300024fc:	01e58593          	addi	a1,a1,30 # 201e <pixel_buffer-0x3ffdfe2>
30002500:	d25fe0ef          	jal	30001224 <i2c_write_nbyte>
30002504:	01c12083          	lw	ra,28(sp)
30002508:	01812403          	lw	s0,24(sp)
3000250c:	00100513          	li	a0,1
30002510:	02010113          	addi	sp,sp,32
30002514:	00008067          	ret
30002518:	00000513          	li	a0,0
3000251c:	00008067          	ret

30002520 <sgp30_set_humidity>:
30002520:	fe010113          	addi	sp,sp,-32
30002524:	00855793          	srli	a5,a0,0x8
30002528:	00851513          	slli	a0,a0,0x8
3000252c:	00a7e7b3          	or	a5,a5,a0
30002530:	00c10513          	addi	a0,sp,12
30002534:	00112e23          	sw	ra,28(sp)
30002538:	00f11623          	sh	a5,12(sp)
3000253c:	be9ff0ef          	jal	30002124 <sensirion_crc8.constprop.0>
30002540:	000025b7          	lui	a1,0x2
30002544:	00a10723          	sb	a0,14(sp)
30002548:	00c10693          	addi	a3,sp,12
3000254c:	05800513          	li	a0,88
30002550:	00300713          	li	a4,3
30002554:	01000613          	li	a2,16
30002558:	06158593          	addi	a1,a1,97 # 2061 <pixel_buffer-0x3ffdf9f>
3000255c:	cc9fe0ef          	jal	30001224 <i2c_write_nbyte>
30002560:	01c12083          	lw	ra,28(sp)
30002564:	00100513          	li	a0,1
30002568:	02010113          	addi	sp,sp,32
3000256c:	00008067          	ret

30002570 <sgp30_measure_test>:
30002570:	02051063          	bnez	a0,30002590 <sgp30_measure_test+0x20>
30002574:	00000513          	li	a0,0
30002578:	00008067          	ret
3000257c:	00000513          	li	a0,0
30002580:	01c12083          	lw	ra,28(sp)
30002584:	01812403          	lw	s0,24(sp)
30002588:	02010113          	addi	sp,sp,32
3000258c:	00008067          	ret
30002590:	fe010113          	addi	sp,sp,-32
30002594:	00812c23          	sw	s0,24(sp)
30002598:	00050413          	mv	s0,a0
3000259c:	0dc00513          	li	a0,220
300025a0:	00112e23          	sw	ra,28(sp)
300025a4:	00011623          	sh	zero,12(sp)
300025a8:	00010723          	sb	zero,14(sp)
300025ac:	ac9fe0ef          	jal	30001074 <delay_ms>
300025b0:	000025b7          	lui	a1,0x2
300025b4:	00300713          	li	a4,3
300025b8:	00c10693          	addi	a3,sp,12
300025bc:	01000613          	li	a2,16
300025c0:	03258593          	addi	a1,a1,50 # 2032 <pixel_buffer-0x3ffdfce>
300025c4:	05800513          	li	a0,88
300025c8:	ce5fe0ef          	jal	300012ac <i2c_read_nbyte>
300025cc:	00c10513          	addi	a0,sp,12
300025d0:	b55ff0ef          	jal	30002124 <sensirion_crc8.constprop.0>
300025d4:	00e14783          	lbu	a5,14(sp)
300025d8:	faa792e3          	bne	a5,a0,3000257c <sgp30_measure_test+0xc>
300025dc:	00c15783          	lhu	a5,12(sp)
300025e0:	00100513          	li	a0,1
300025e4:	0087d713          	srli	a4,a5,0x8
300025e8:	00879793          	slli	a5,a5,0x8
300025ec:	00f767b3          	or	a5,a4,a5
300025f0:	00f41023          	sh	a5,0(s0)
300025f4:	f8dff06f          	j	30002580 <sgp30_measure_test+0x10>

300025f8 <main>:
300025f8:	fd010113          	addi	sp,sp,-48
300025fc:	02112623          	sw	ra,44(sp)
30002600:	de0fe0ef          	jal	30000be0 <sys_uart_init>
30002604:	30002537          	lui	a0,0x30002
30002608:	68450513          	addi	a0,a0,1668 # 30002684 <gray_colors+0x44>
3000260c:	c58fe0ef          	jal	30000a64 <printf>
30002610:	00810513          	addi	a0,sp,8
30002614:	00012423          	sw	zero,8(sp)
30002618:	f20fe0ef          	jal	30000d38 <qspi_init>
3000261c:	300025b7          	lui	a1,0x30002
30002620:	01400613          	li	a2,20
30002624:	67058593          	addi	a1,a1,1648 # 30002670 <gray_colors+0x30>
30002628:	00c10513          	addi	a0,sp,12
3000262c:	8c4fe0ef          	jal	300006f0 <memcpy>
30002630:	00c10513          	addi	a0,sp,12
30002634:	d28ff0ef          	jal	30001b5c <st7735_init>
30002638:	00c10513          	addi	a0,sp,12
3000263c:	b51fd0ef          	jal	3000018c <donut>

30002640 <gray_colors>:
30002640:	00000000 10821082 21042104 31863186     .........!.!.1.1
30002650:	42084208 528a528a 630c630c 738e738e     .B.B.R.R.c.c.s.s
30002660:	84108410 94929492 a514a514 b596b596     ................
30002670:	00000002 00000080 00000080 00000000     ................
30002680:	00000302 756e6f64 65742074 0a217473     ....donut test!.
30002690:	00000000 33323130 37363534 42413938     ....0123456789AB
300026a0:	46454443 00000000 33323130 37363534     CDEF....01234567
300026b0:	62613938 66656463 00000000 6c756e28     89abcdef....(nul
300026c0:	0000296c 6f697067 20642520 20746573     l)..gpio %d set 
300026d0:	69207361 7475706e 0000000a 5f474552     as input....REG_
300026e0:	4f495047 424e455f 7830203a 000a7825     GPIO_ENB: 0x%x..
300026f0:	6f697067 20642520 20746573 6f207361     gpio %d set as o
30002700:	75707475 00000a74 69707371 6174735f     utput...qspi_sta
30002710:	3a737574 0a782520 00000000 69707371     tus: %x.....qspi
30002720:	746e695f 3a676663 0a782520 00000000     _intcfg: %x.....
30002730:	69707371 6d75645f 7825203a 0000000a     qspi_dum: %x....
30002740:	69707371 6b6c635f 3a766964 0a782520     qspi_clkdiv: %x.
30002750:	00000000 3a433249 61747320 77207472     ....I2C: start w
30002760:	65746972 206f6e20 0a6b6361 00000000     rite no ack.....
30002770:	3a433249 69727720 62206574 20657479     I2C: write byte 
30002780:	61206f6e 000a6b63 3a433249 61657220     no ack..I2C: rea
30002790:	79622064 6e206574 6361206f 00000a6b     d byte no ack...
300027a0:	54524155 696e6920 6c616974 64657a69     UART initialized
300027b0:	74697720 61622068 61726475 25206574      with baudrate %
300027c0:	00000a64 54524155 52434c20 7830203a     d...UART LCR: 0x
300027d0:	000a7825 54524155 52434620 7830203a     %x..UART FCR: 0x
300027e0:	000a7825 54524155 56494420 7830203a     %x..UART DIV: 0x
300027f0:	000a7825 65746661 72662072 20656d61     %x..after frame 
30002800:	65746172 696e6920 00000a74 65746661     rate init...afte
30002810:	6f702072 20726577 75716573 65636e65     r power sequence
30002820:	696e6920 00000a74 65746661 61672072      init...after ga
30002830:	20616d6d 75716573 65636e65 696e6920     mma sequence ini
30002840:	00000a74 20544654 74696e69 6e6f6420     t...TFT init don
30002850:	00000a65                                e...
